ARM GAS  C:\Users\adamh\AppData\Local\Temp\ccZb9C5K.s 			page 1


   1              		.syntax unified
   2              		.cpu cortex-m3
   3              		.fpu softvfp
   4              		.eabi_attribute 20, 1
   5              		.eabi_attribute 21, 1
   6              		.eabi_attribute 23, 3
   7              		.eabi_attribute 24, 1
   8              		.eabi_attribute 25, 1
   9              		.eabi_attribute 26, 1
  10              		.eabi_attribute 30, 1
  11              		.eabi_attribute 34, 1
  12              		.eabi_attribute 18, 4
  13              		.thumb
  14              		.syntax unified
  15              		.file	"fft.c"
  16              		.text
  17              	.Ltext0:
  18              		.cfi_sections	.debug_frame
  19              		.global	__aeabi_i2d
  20              		.global	__aeabi_dmul
  21              		.global	__aeabi_d2f
  22              		.global	__aeabi_fsub
  23              		.global	__aeabi_f2d
  24              		.global	__aeabi_i2f
  25              		.global	__aeabi_fmul
  26              		.global	__aeabi_f2uiz
  27              		.section	.text.DoFFT,"ax",%progbits
  28              		.align	2
  29              		.global	DoFFT
  30              		.thumb
  31              		.thumb_func
  32              		.type	DoFFT, %function
  33              	DoFFT:
  34              	.LFB64:
  35              		.file 1 "fft.c"
   1:fft.c         **** // Adam Høj FFT - baseret på metoden i Handbook of Mathematics //
   2:fft.c         **** #include "fft.h"
   3:fft.c         **** 
   4:fft.c         **** #define omega_n (cpow(cexp(-2 * M_PI * I / n), (k / 2) * v))
   5:fft.c         **** #define omega_N (cpow(cexp(-2 * M_PI * I / NO_OF_SAMPLES), (k / 2) * v))
   6:fft.c         **** void
   7:fft.c         **** DoFFT(uint16 inputArray[])
   8:fft.c         **** {
  36              		.loc 1 8 0
  37              		.cfi_startproc
  38              		@ args = 0, pretend = 0, frame = 8
  39              		@ frame_needed = 0, uses_anonymous_args = 0
  40              	.LVL0:
  41 0000 70B5     		push	{r4, r5, r6, lr}
  42              		.cfi_def_cfa_offset 16
  43              		.cfi_offset 4, -16
  44              		.cfi_offset 5, -12
  45              		.cfi_offset 6, -8
  46              		.cfi_offset 14, -4
  47 0002 82B0     		sub	sp, sp, #8
  48              		.cfi_def_cfa_offset 24
  49 0004 0546     		mov	r5, r0
ARM GAS  C:\Users\adamh\AppData\Local\Temp\ccZb9C5K.s 			page 2


  50              	.LVL1:
  51              	.LBB2:
   9:fft.c         ****   float complex coefficientArray[NO_OF_SAMPLES] = { 0 };
  10:fft.c         ****   int16 a[n] = { 0 };
  11:fft.c         ****   int16 b[n] = { 0 };
  12:fft.c         ****   int32 mag[n] = { 0 };
  13:fft.c         ****   int32 phase[n] = { 0 };
  14:fft.c         **** 
  15:fft.c         ****   char uartBuffer[256];
  16:fft.c         ****   // Pure aesthetics  - no functional use
  17:fft.c         ****   //  UART_1_PutString("FFT started.... \r\n");
  18:fft.c         ****   // The real deal
  19:fft.c         **** 
  20:fft.c         ****   // HANNING !
  21:fft.c         ****   for (int i = 0; i < NO_OF_SAMPLES + 1; i++) {
  52              		.loc 1 21 0
  53 0006 0024     		movs	r4, #0
  54 0008 2DE0     		b	.L2
  55              	.LVL2:
  56              	.L3:
  57              	.LBB3:
  22:fft.c         ****     float hann = 0.5 * (1 - ccosf(2 * M_PI * i / NO_OF_SAMPLES));
  58              		.loc 1 22 0 discriminator 3
  59 000a 2046     		mov	r0, r4
  60 000c FFF7FEFF 		bl	__aeabi_i2d
  61              	.LVL3:
  62 0010 27A3     		adr	r3, .L17
  63 0012 D3E90023 		ldrd	r2, [r3]
  64 0016 FFF7FEFF 		bl	__aeabi_dmul
  65              	.LVL4:
  66 001a 0022     		movs	r2, #0
  67 001c 4FF07F53 		mov	r3, #1069547520
  68 0020 FFF7FEFF 		bl	__aeabi_dmul
  69              	.LVL5:
  70 0024 FFF7FEFF 		bl	__aeabi_d2f
  71              	.LVL6:
  72 0028 0146     		mov	r1, r0
  73 002a 0022     		movs	r2, #0
  74 002c 6846     		mov	r0, sp
  75 002e FFF7FEFF 		bl	ccosf
  76              	.LVL7:
  77 0032 0099     		ldr	r1, [sp]	@ float
  78 0034 4FF07E50 		mov	r0, #1065353216
  79 0038 FFF7FEFF 		bl	__aeabi_fsub
  80              	.LVL8:
  81 003c FFF7FEFF 		bl	__aeabi_f2d
  82              	.LVL9:
  83 0040 0022     		movs	r2, #0
  84 0042 1D4B     		ldr	r3, .L17+8
  85 0044 FFF7FEFF 		bl	__aeabi_dmul
  86              	.LVL10:
  87 0048 FFF7FEFF 		bl	__aeabi_d2f
  88              	.LVL11:
  89 004c 0646     		mov	r6, r0
  90              	.LVL12:
  23:fft.c         ****     inputArray[i] = hann * inputArray[i];
  91              		.loc 1 23 0 discriminator 3
ARM GAS  C:\Users\adamh\AppData\Local\Temp\ccZb9C5K.s 			page 3


  92 004e 35F81400 		ldrh	r0, [r5, r4, lsl #1]
  93              	.LVL13:
  94 0052 FFF7FEFF 		bl	__aeabi_i2f
  95              	.LVL14:
  96 0056 3146     		mov	r1, r6
  97 0058 FFF7FEFF 		bl	__aeabi_fmul
  98              	.LVL15:
  99 005c FFF7FEFF 		bl	__aeabi_f2uiz
 100              	.LVL16:
 101 0060 25F81400 		strh	r0, [r5, r4, lsl #1]	@ movhi
 102              	.LBE3:
  21:fft.c         ****     float hann = 0.5 * (1 - ccosf(2 * M_PI * i / NO_OF_SAMPLES));
 103              		.loc 1 21 0 discriminator 3
 104 0064 0134     		adds	r4, r4, #1
 105              	.LVL17:
 106              	.L2:
  21:fft.c         ****     float hann = 0.5 * (1 - ccosf(2 * M_PI * i / NO_OF_SAMPLES));
 107              		.loc 1 21 0 is_stmt 0 discriminator 1
 108 0066 082C     		cmp	r4, #8
 109 0068 CFDD     		ble	.L3
 110 006a 0022     		movs	r2, #0
 111 006c 13E0     		b	.L4
 112              	.LVL18:
 113              	.L11:
 114              	.LBE2:
 115              	.LBB4:
  24:fft.c         ****   }
  25:fft.c         **** 
  26:fft.c         **** //UART_1_PutString("input:\n");
  27:fft.c         **** //  for (uint8 i = 0; i < NO_OF_SAMPLES; i++) {
  28:fft.c         **** //    snprintf(uartBuffer,
  29:fft.c         **** //             sizeof(uartBuffer),
  30:fft.c         **** //             "%d\n",
  31:fft.c         **** //             inputArray[i]);
  32:fft.c         **** //    UART_1_PutString(uartBuffer);
  33:fft.c         **** //  };
  34:fft.c         **** 
  35:fft.c         **** 
  36:fft.c         **** 
  37:fft.c         ****   // Lige koefficienter
  38:fft.c         **** 
  39:fft.c         ****   for (uint8 k = 0; k < NO_OF_SAMPLES; k++) {
  40:fft.c         **** 
  41:fft.c         ****     if ((k) % 2 == 0) {
 116              		.loc 1 41 0 is_stmt 1
 117 006e 12F00101 		ands	r1, r2, #1
 118 0072 03D0     		beq	.L14
 119              	.LBB5:
 120 0074 05E0     		b	.L6
 121              	.LVL19:
 122              	.L7:
  42:fft.c         ****       // modulus tjek
  43:fft.c         ****       for (uint8 v = 0; v < n; v++) { // Gennemløb op til n.   hvor n = N/2
 123              		.loc 1 43 0 discriminator 3
 124 0076 0133     		adds	r3, r3, #1
 125              	.LVL20:
 126 0078 DBB2     		uxtb	r3, r3
ARM GAS  C:\Users\adamh\AppData\Local\Temp\ccZb9C5K.s 			page 4


 127              	.LVL21:
 128 007a 00E0     		b	.L5
 129              	.LVL22:
 130              	.L14:
 131              	.LBE5:
 132 007c 0023     		movs	r3, #0
 133              	.L5:
 134              	.LVL23:
 135              	.LBB6:
 136              		.loc 1 43 0 is_stmt 0 discriminator 1
 137 007e 032B     		cmp	r3, #3
 138 0080 F9D9     		bls	.L7
 139              	.LVL24:
 140              	.L6:
 141              	.LBE6:
  44:fft.c         ****         coefficientArray[k] += (inputArray[v] + inputArray[n + v]) * omega_n;
  45:fft.c         ****       }
  46:fft.c         ****     }
  47:fft.c         ****     // ULIGE coefficient
  48:fft.c         ****     if ((k) % 2 == 1) {
 142              		.loc 1 48 0 is_stmt 1
 143 0082 19B9     		cbnz	r1, .L15
 144              	.LBB7:
 145 0084 05E0     		b	.L9
 146              	.LVL25:
 147              	.L10:
  49:fft.c         ****       for (uint8 v = 0; v < n; v++) {
 148              		.loc 1 49 0 discriminator 3
 149 0086 0133     		adds	r3, r3, #1
 150              	.LVL26:
 151 0088 DBB2     		uxtb	r3, r3
 152              	.LVL27:
 153 008a 00E0     		b	.L8
 154              	.LVL28:
 155              	.L15:
 156              	.LBE7:
 157 008c 0023     		movs	r3, #0
 158              	.L8:
 159              	.LVL29:
 160              	.LBB8:
 161              		.loc 1 49 0 is_stmt 0 discriminator 1
 162 008e 032B     		cmp	r3, #3
 163 0090 F9D9     		bls	.L10
 164              	.LVL30:
 165              	.L9:
 166              	.LBE8:
  39:fft.c         **** 
 167              		.loc 1 39 0 is_stmt 1 discriminator 2
 168 0092 0132     		adds	r2, r2, #1
 169              	.LVL31:
 170 0094 D2B2     		uxtb	r2, r2
 171              	.LVL32:
 172              	.L4:
  39:fft.c         **** 
 173              		.loc 1 39 0 is_stmt 0 discriminator 1
 174 0096 072A     		cmp	r2, #7
 175 0098 E9D9     		bls	.L11
ARM GAS  C:\Users\adamh\AppData\Local\Temp\ccZb9C5K.s 			page 5


 176 009a 0123     		movs	r3, #1
 177 009c 01E0     		b	.L12
 178              	.LVL33:
 179              	.L13:
 180              	.LBE4:
 181              	.LBB9:
  50:fft.c         ****         coefficientArray[k] += (inputArray[v] - inputArray[n + v]) *
  51:fft.c         ****                                cpow(cexp(-2 * M_PI * I / NO_OF_SAMPLES), v) *
  52:fft.c         ****                                omega_n;
  53:fft.c         ****       };
  54:fft.c         ****     };
  55:fft.c         ****   }
  56:fft.c         **** 
  57:fft.c         **** 
  58:fft.c         ****   a[0] = floor(2 * coefficientArray[0]);
  59:fft.c         ****   b[0] = 0;
  60:fft.c         ****   mag[0] = floor(cabsf(a[0] + b[0] * I));
  61:fft.c         **** 
  62:fft.c         ****   for (uint8 k = 1; k < n; k++) {
 182              		.loc 1 62 0 is_stmt 1 discriminator 3
 183 009e 0133     		adds	r3, r3, #1
 184              	.LVL34:
 185 00a0 DBB2     		uxtb	r3, r3
 186              	.LVL35:
 187              	.L12:
 188              		.loc 1 62 0 is_stmt 0 discriminator 1
 189 00a2 032B     		cmp	r3, #3
 190 00a4 FBD9     		bls	.L13
 191              	.LBE9:
  63:fft.c         ****     a[k] = floor(2 * crealf(coefficientArray[k]));
  64:fft.c         ****     b[k] = floor(-2 * cimagf(coefficientArray[k]));
  65:fft.c         ****     mag[k] = cabsf(coefficientArray[k]);
  66:fft.c         ****     //        mag[k] = cabsf(a[k]+b[k]*I);
  67:fft.c         ****     phase[k] = cargf(coefficientArray[k]);
  68:fft.c         ****   };
  69:fft.c         **** //  UART_1_PutString("a\t b\t mag\t phase\n");
  70:fft.c         **** //  for (uint8 i = 0; i < n; i++) {
  71:fft.c         **** //    snprintf(uartBuffer,
  72:fft.c         **** //             sizeof(uartBuffer),
  73:fft.c         **** //             "%d\t %d\t %ld\t %ld\n",
  74:fft.c         **** //             a[i],
  75:fft.c         **** //             b[i],
  76:fft.c         **** //             mag[i],
  77:fft.c         **** //             phase[i]);
  78:fft.c         **** //    UART_1_PutString(uartBuffer);
  79:fft.c         **** //  };
  80:fft.c         **** }
 192              		.loc 1 80 0 is_stmt 1
 193 00a6 02B0     		add	sp, sp, #8
 194              		.cfi_def_cfa_offset 16
 195              		@ sp needed
 196 00a8 70BD     		pop	{r4, r5, r6, pc}
 197              	.LVL36:
 198              	.L18:
 199 00aa 00BFAFF3 		.align	3
 199      0080
 200              	.L17:
ARM GAS  C:\Users\adamh\AppData\Local\Temp\ccZb9C5K.s 			page 6


 201 00b0 182D4454 		.word	1413754136
 202 00b4 FB211940 		.word	1075388923
 203 00b8 0000E03F 		.word	1071644672
 204              		.cfi_endproc
 205              	.LFE64:
 206              		.size	DoFFT, .-DoFFT
 207              		.text
 208              	.Letext0:
 209              		.file 2 "c:\\program files (x86)\\cypress\\psoc creator\\4.3\\psoc creator\\import\\gnu\\arm\\5.4.
 210              		.file 3 "c:\\program files (x86)\\cypress\\psoc creator\\4.3\\psoc creator\\import\\gnu\\arm\\5.4.
 211              		.file 4 "Generated_Source\\PSoC5/cytypes.h"
 212              		.file 5 "Generated_Source\\PSoC5/core_cm3.h"
 213              		.file 6 "c:\\program files (x86)\\cypress\\psoc creator\\4.3\\psoc creator\\import\\gnu\\arm\\5.4.