ARM GAS  C:\Users\adamh\AppData\Local\Temp\ccDxOX5d.s 			page 1


   1              		.syntax unified
   2              		.cpu cortex-m3
   3              		.fpu softvfp
   4              		.eabi_attribute 20, 1
   5              		.eabi_attribute 21, 1
   6              		.eabi_attribute 23, 3
   7              		.eabi_attribute 24, 1
   8              		.eabi_attribute 25, 1
   9              		.eabi_attribute 26, 1
  10              		.eabi_attribute 30, 1
  11              		.eabi_attribute 34, 1
  12              		.eabi_attribute 18, 4
  13              		.thumb
  14              		.syntax unified
  15              		.file	"main.c"
  16              		.text
  17              	.Ltext0:
  18              		.cfi_sections	.debug_frame
  19              		.section	.text.ISR_DMA_Done,"ax",%progbits
  20              		.align	2
  21              		.global	ISR_DMA_Done
  22              		.thumb
  23              		.thumb_func
  24              		.type	ISR_DMA_Done, %function
  25              	ISR_DMA_Done:
  26              	.LFB67:
  27              		.file 1 "main.c"
   1:main.c        **** /* ========================================
   2:main.c        ****  *
   3:main.c        ****  * Copyright YOUR COMPANY, THE YEAR
   4:main.c        ****  * All Rights Reserved
   5:main.c        ****  * UNPUBLISHED, LICENSED SOFTWARE.
   6:main.c        ****  *
   7:main.c        ****  * CONFIDENTIAL AND PROPRIETARY INFORMATION
   8:main.c        ****  * WHICH IS THE PROPERTY OF your company.
   9:main.c        ****  *
  10:main.c        ****  * ========================================
  11:main.c        ****  */
  12:main.c        **** #include "project.h"
  13:main.c        **** #include <complex.h>
  14:main.c        **** #include <stdio.h>
  15:main.c        **** #include <tgmath.h>
  16:main.c        **** #include <stdlib.h>
  17:main.c        **** #include "fft.h"
  18:main.c        **** 
  19:main.c        **** #define NO_OF_SAMPLES2 64
  20:main.c        **** #define n (NO_OF_SAMPLES / 2)
  21:main.c        **** 
  22:main.c        **** 
  23:main.c        **** #define TRANSFER_COUNT1 NO_OF_SAMPLES1 * 2
  24:main.c        **** #define TRANSFER_COUNT2 NO_OF_SAMPLES2 * 2
  25:main.c        **** volatile char DMA_Done_Flag = 0;
  26:main.c        **** /* Defines for DMA_1 */
  27:main.c        **** #define DMA_1_BYTES_PER_BURST 2
  28:main.c        **** #define DMA_1_REQUEST_PER_BURST 1
  29:main.c        **** #define DMA_1_SRC_BASE (CYDEV_PERIPH_BASE)
  30:main.c        **** #define DMA_1_DST_BASE (CYDEV_SRAM_BASE)
ARM GAS  C:\Users\adamh\AppData\Local\Temp\ccDxOX5d.s 			page 2


  31:main.c        **** 
  32:main.c        **** /* Variable declarations for DMA_1 */
  33:main.c        **** /* Move these variable declarations to the top of the function */
  34:main.c        **** 
  35:main.c        **** CY_ISR_PROTO(ISR_UART_rx_handler);
  36:main.c        **** void
  37:main.c        **** handleByteReceived(uint8 byteReceived);
  38:main.c        **** 
  39:main.c        **** 
  40:main.c        **** CY_ISR_PROTO(ISR_DMA_Done);
  41:main.c        **** 
  42:main.c        **** char uartBuffer[256];
  43:main.c        **** uint16 ADCToFFT[NO_OF_SAMPLES] = {0};
  44:main.c        **** uint16* fftResult; // FFT Result pointer.
  45:main.c        **** uint16 ADC_Sample[NO_OF_SAMPLES] = { 0 };
  46:main.c        **** 
  47:main.c        **** int
  48:main.c        **** main(void)
  49:main.c        **** {
  50:main.c        ****   CyGlobalIntEnable; /* Enable global interrupts. */
  51:main.c        **** 
  52:main.c        ****   ISR_DMA_Done_StartEx(ISR_DMA_Done);
  53:main.c        ****     ADC_DelSig_Start(); 
  54:main.c        ****     ADC_DelSig_StartConvert(); 
  55:main.c        ****   isr_uart_rx_StartEx(ISR_UART_rx_handler);
  56:main.c        ****   UART_1_Start();
  57:main.c        ****   uint8 DMA_1_Chan;
  58:main.c        ****   uint8 DMA_1_TD[1];
  59:main.c        **** 
  60:main.c        ****   /* DMA Configuration for DMA_1 */
  61:main.c        ****   DMA_1_Chan = DMA_1_DmaInitialize(DMA_1_BYTES_PER_BURST,
  62:main.c        ****                                    DMA_1_REQUEST_PER_BURST,
  63:main.c        ****                                    HI16(DMA_1_SRC_BASE),
  64:main.c        ****                                    HI16(DMA_1_DST_BASE));
  65:main.c        ****   DMA_1_TD[0] = CyDmaTdAllocate();
  66:main.c        ****   CyDmaTdSetConfiguration(DMA_1_TD[0],
  67:main.c        ****                           2 * NO_OF_SAMPLES,
  68:main.c        ****                           DMA_1_TD[0],
  69:main.c        ****                            DMA_1__TD_TERMOUT_EN |
  70:main.c        ****                             CY_DMA_TD_INC_DST_ADR);
  71:main.c        ****   CyDmaTdSetAddress(DMA_1_TD[0],
  72:main.c        ****                     LO16((uint32)ADC_DelSig_DEC_SAMP_PTR),
  73:main.c        ****                     LO16((uint32)&ADC_Sample[0]));
  74:main.c        ****   CyDmaChSetInitialTd(DMA_1_Chan, DMA_1_TD[0]);
  75:main.c        ****   CyDmaChEnable(DMA_1_Chan, 1);
  76:main.c        **** 
  77:main.c        **** 
  78:main.c        ****   /* Place your initialization/startup code here (e.g. MyInst_Start()) */
  79:main.c        ****   UART_1_PutString("Starting...\n");
  80:main.c        **** 
  81:main.c        **** 
  82:main.c        **** 
  83:main.c        **** 
  84:main.c        **** 
  85:main.c        ****   for (;;) {
  86:main.c        **** //    CyDelay(100);     
  87:main.c        ****     /* Place your application code here. */
ARM GAS  C:\Users\adamh\AppData\Local\Temp\ccDxOX5d.s 			page 3


  88:main.c        ****   }
  89:main.c        **** }
  90:main.c        **** 
  91:main.c        ****         
  92:main.c        ****     
  93:main.c        **** CY_ISR(ISR_UART_rx_handler)
  94:main.c        **** {
  95:main.c        ****   uint8 bytesToRead = UART_1_GetRxBufferSize();
  96:main.c        ****   while (bytesToRead > 0) {
  97:main.c        ****     uint8 byteReceived = UART_1_ReadRxData();
  98:main.c        ****     UART_1_WriteTxData(byteReceived); // echo back
  99:main.c        **** 
 100:main.c        ****     handleByteReceived(byteReceived);
 101:main.c        **** 
 102:main.c        ****     bytesToRead--;
 103:main.c        ****   }
 104:main.c        **** }
 105:main.c        **** 
 106:main.c        **** void
 107:main.c        **** handleByteReceived(uint8 byteReceived)
 108:main.c        **** {
 109:main.c        ****   switch (byteReceived) {
 110:main.c        ****     case 'q': {
 111:main.c        ****       UART_1_PutString("q pressed! \n");
 112:main.c        ****     } break;
 113:main.c        ****     case 'w': {
 114:main.c        ****       UART_1_PutString("w pressed! \n");
 115:main.c        ****     } break;
 116:main.c        ****     default: {
 117:main.c        ****       // nothing
 118:main.c        ****     } break;
 119:main.c        ****   }
 120:main.c        **** }
 121:main.c        **** 
 122:main.c        **** 
 123:main.c        **** CY_ISR(ISR_DMA_Done)
 124:main.c        **** {
  28              		.loc 1 124 0
  29              		.cfi_startproc
  30              		@ args = 0, pretend = 0, frame = 0
  31              		@ frame_needed = 0, uses_anonymous_args = 0
  32 0000 30B5     		push	{r4, r5, lr}
  33              		.cfi_def_cfa_offset 12
  34              		.cfi_offset 4, -12
  35              		.cfi_offset 5, -8
  36              		.cfi_offset 14, -4
  37 0002 83B0     		sub	sp, sp, #12
  38              		.cfi_def_cfa_offset 24
 125:main.c        ****    UART_1_PutString("In ISR DMA DONE\n");
  39              		.loc 1 125 0
  40 0004 1548     		ldr	r0, .L5
  41 0006 FFF7FEFF 		bl	UART_1_PutString
  42              	.LVL0:
 126:main.c        ****     dma_done_test_Write(1);
  43              		.loc 1 126 0
  44 000a 0120     		movs	r0, #1
  45 000c FFF7FEFF 		bl	dma_done_test_Write
ARM GAS  C:\Users\adamh\AppData\Local\Temp\ccDxOX5d.s 			page 4


  46              	.LVL1:
 127:main.c        **** 
 128:main.c        ****     fftResult = DoFFT(ADC_Sample);
  47              		.loc 1 128 0
  48 0010 1348     		ldr	r0, .L5+4
  49 0012 FFF7FEFF 		bl	DoFFT
  50              	.LVL2:
  51 0016 134B     		ldr	r3, .L5+8
  52 0018 1860     		str	r0, [r3]
 129:main.c        ****     UART_1_PutString("Magnitude resultat\n");
  53              		.loc 1 129 0
  54 001a 1348     		ldr	r0, .L5+12
  55 001c FFF7FEFF 		bl	UART_1_PutString
  56              	.LVL3:
  57              	.LBB2:
 130:main.c        ****     for (size_t i = 0; i < NO_OF_SAMPLES/2; i++) {
  58              		.loc 1 130 0
  59 0020 0024     		movs	r4, #0
  60 0022 10E0     		b	.L2
  61              	.LVL4:
  62              	.L3:
 131:main.c        ****         snprintf(uartBuffer,sizeof(uartBuffer),"%d: %d\n",i,fftResult[i]);
  63              		.loc 1 131 0 discriminator 3
  64 0024 0F4B     		ldr	r3, .L5+8
  65 0026 1B68     		ldr	r3, [r3]
  66 0028 33F81430 		ldrh	r3, [r3, r4, lsl #1]
  67 002c 0F4D     		ldr	r5, .L5+16
  68 002e 0093     		str	r3, [sp]
  69 0030 2346     		mov	r3, r4
  70 0032 0F4A     		ldr	r2, .L5+20
  71 0034 4FF48071 		mov	r1, #256
  72 0038 2846     		mov	r0, r5
  73 003a FFF7FEFF 		bl	snprintf
  74              	.LVL5:
 132:main.c        ****         UART_1_PutString(uartBuffer);
  75              		.loc 1 132 0 discriminator 3
  76 003e 2846     		mov	r0, r5
  77 0040 FFF7FEFF 		bl	UART_1_PutString
  78              	.LVL6:
 130:main.c        ****     for (size_t i = 0; i < NO_OF_SAMPLES/2; i++) {
  79              		.loc 1 130 0 discriminator 3
  80 0044 0134     		adds	r4, r4, #1
  81              	.LVL7:
  82              	.L2:
 130:main.c        ****     for (size_t i = 0; i < NO_OF_SAMPLES/2; i++) {
  83              		.loc 1 130 0 is_stmt 0 discriminator 1
  84 0046 0F2C     		cmp	r4, #15
  85 0048 ECD9     		bls	.L3
  86              	.LBE2:
 133:main.c        ****     }
 134:main.c        ****      
 135:main.c        ****        UART_1_PutString("BYE BYE ISR DMA DONE\n");    
  87              		.loc 1 135 0 is_stmt 1
  88 004a 0A48     		ldr	r0, .L5+24
  89 004c FFF7FEFF 		bl	UART_1_PutString
  90              	.LVL8:
 136:main.c        ****         dma_done_test_Write(0);
ARM GAS  C:\Users\adamh\AppData\Local\Temp\ccDxOX5d.s 			page 5


  91              		.loc 1 136 0
  92 0050 0020     		movs	r0, #0
  93 0052 FFF7FEFF 		bl	dma_done_test_Write
  94              	.LVL9:
 137:main.c        **** }
  95              		.loc 1 137 0
  96 0056 03B0     		add	sp, sp, #12
  97              		.cfi_def_cfa_offset 12
  98              		@ sp needed
  99 0058 30BD     		pop	{r4, r5, pc}
 100              	.LVL10:
 101              	.L6:
 102 005a 00BF     		.align	2
 103              	.L5:
 104 005c 00000000 		.word	.LC0
 105 0060 00000000 		.word	.LANCHOR0
 106 0064 00000000 		.word	fftResult
 107 0068 14000000 		.word	.LC1
 108 006c 00000000 		.word	uartBuffer
 109 0070 28000000 		.word	.LC2
 110 0074 30000000 		.word	.LC3
 111              		.cfi_endproc
 112              	.LFE67:
 113              		.size	ISR_DMA_Done, .-ISR_DMA_Done
 114              		.section	.text.main,"ax",%progbits
 115              		.align	2
 116              		.global	main
 117              		.thumb
 118              		.thumb_func
 119              		.type	main, %function
 120              	main:
 121              	.LFB64:
  49:main.c        ****   CyGlobalIntEnable; /* Enable global interrupts. */
 122              		.loc 1 49 0
 123              		.cfi_startproc
 124              		@ args = 0, pretend = 0, frame = 0
 125              		@ frame_needed = 0, uses_anonymous_args = 0
 126 0000 38B5     		push	{r3, r4, r5, lr}
 127              		.cfi_def_cfa_offset 16
 128              		.cfi_offset 3, -16
 129              		.cfi_offset 4, -12
 130              		.cfi_offset 5, -8
 131              		.cfi_offset 14, -4
  50:main.c        **** 
 132              		.loc 1 50 0
 133              		.syntax unified
 134              	@ 50 "main.c" 1
 135 0002 62B6     		CPSIE   i
 136              	@ 0 "" 2
  52:main.c        ****     ADC_DelSig_Start(); 
 137              		.loc 1 52 0
 138              		.thumb
 139              		.syntax unified
 140 0004 1748     		ldr	r0, .L10
 141 0006 FFF7FEFF 		bl	ISR_DMA_Done_StartEx
 142              	.LVL11:
  53:main.c        ****     ADC_DelSig_StartConvert(); 
ARM GAS  C:\Users\adamh\AppData\Local\Temp\ccDxOX5d.s 			page 6


 143              		.loc 1 53 0
 144 000a FFF7FEFF 		bl	ADC_DelSig_Start
 145              	.LVL12:
  54:main.c        ****   isr_uart_rx_StartEx(ISR_UART_rx_handler);
 146              		.loc 1 54 0
 147 000e FFF7FEFF 		bl	ADC_DelSig_StartConvert
 148              	.LVL13:
  55:main.c        ****   UART_1_Start();
 149              		.loc 1 55 0
 150 0012 1548     		ldr	r0, .L10+4
 151 0014 FFF7FEFF 		bl	isr_uart_rx_StartEx
 152              	.LVL14:
  56:main.c        ****   uint8 DMA_1_Chan;
 153              		.loc 1 56 0
 154 0018 FFF7FEFF 		bl	UART_1_Start
 155              	.LVL15:
  61:main.c        ****                                    DMA_1_REQUEST_PER_BURST,
 156              		.loc 1 61 0
 157 001c 41F6FF73 		movw	r3, #8191
 158 0020 4FF48042 		mov	r2, #16384
 159 0024 0121     		movs	r1, #1
 160 0026 0220     		movs	r0, #2
 161 0028 FFF7FEFF 		bl	DMA_1_DmaInitialize
 162              	.LVL16:
 163 002c 0546     		mov	r5, r0
 164              	.LVL17:
  65:main.c        ****   CyDmaTdSetConfiguration(DMA_1_TD[0],
 165              		.loc 1 65 0
 166 002e FFF7FEFF 		bl	CyDmaTdAllocate
 167              	.LVL18:
 168 0032 0446     		mov	r4, r0
  66:main.c        ****                           2 * NO_OF_SAMPLES,
 169              		.loc 1 66 0
 170 0034 0623     		movs	r3, #6
 171 0036 0246     		mov	r2, r0
 172 0038 4021     		movs	r1, #64
 173 003a FFF7FEFF 		bl	CyDmaTdSetConfiguration
 174              	.LVL19:
  71:main.c        ****                     LO16((uint32)ADC_DelSig_DEC_SAMP_PTR),
 175              		.loc 1 71 0
 176 003e 0B4A     		ldr	r2, .L10+8
 177 0040 92B2     		uxth	r2, r2
 178 0042 44F61061 		movw	r1, #19984
 179 0046 2046     		mov	r0, r4
 180 0048 FFF7FEFF 		bl	CyDmaTdSetAddress
 181              	.LVL20:
  74:main.c        ****   CyDmaChEnable(DMA_1_Chan, 1);
 182              		.loc 1 74 0
 183 004c 2146     		mov	r1, r4
 184 004e 2846     		mov	r0, r5
 185 0050 FFF7FEFF 		bl	CyDmaChSetInitialTd
 186              	.LVL21:
  75:main.c        **** 
 187              		.loc 1 75 0
 188 0054 0121     		movs	r1, #1
 189 0056 2846     		mov	r0, r5
 190 0058 FFF7FEFF 		bl	CyDmaChEnable
ARM GAS  C:\Users\adamh\AppData\Local\Temp\ccDxOX5d.s 			page 7


 191              	.LVL22:
  79:main.c        **** 
 192              		.loc 1 79 0
 193 005c 0448     		ldr	r0, .L10+12
 194 005e FFF7FEFF 		bl	UART_1_PutString
 195              	.LVL23:
 196              	.L8:
 197 0062 FEE7     		b	.L8
 198              	.L11:
 199              		.align	2
 200              	.L10:
 201 0064 00000000 		.word	ISR_DMA_Done
 202 0068 00000000 		.word	ISR_UART_rx_handler
 203 006c 00000000 		.word	.LANCHOR0
 204 0070 48000000 		.word	.LC4
 205              		.cfi_endproc
 206              	.LFE64:
 207              		.size	main, .-main
 208              		.section	.text.handleByteReceived,"ax",%progbits
 209              		.align	2
 210              		.global	handleByteReceived
 211              		.thumb
 212              		.thumb_func
 213              		.type	handleByteReceived, %function
 214              	handleByteReceived:
 215              	.LFB66:
 108:main.c        ****   switch (byteReceived) {
 216              		.loc 1 108 0
 217              		.cfi_startproc
 218              		@ args = 0, pretend = 0, frame = 0
 219              		@ frame_needed = 0, uses_anonymous_args = 0
 220              	.LVL24:
 221 0000 08B5     		push	{r3, lr}
 222              		.cfi_def_cfa_offset 8
 223              		.cfi_offset 3, -8
 224              		.cfi_offset 14, -4
 109:main.c        ****     case 'q': {
 225              		.loc 1 109 0
 226 0002 7128     		cmp	r0, #113
 227 0004 02D0     		beq	.L14
 228 0006 7728     		cmp	r0, #119
 229 0008 04D0     		beq	.L15
 230 000a 08BD     		pop	{r3, pc}
 231              	.L14:
 111:main.c        ****     } break;
 232              		.loc 1 111 0
 233 000c 0348     		ldr	r0, .L17
 234              	.LVL25:
 235 000e FFF7FEFF 		bl	UART_1_PutString
 236              	.LVL26:
 112:main.c        ****     case 'w': {
 237              		.loc 1 112 0
 238 0012 08BD     		pop	{r3, pc}
 239              	.LVL27:
 240              	.L15:
 114:main.c        ****     } break;
 241              		.loc 1 114 0
ARM GAS  C:\Users\adamh\AppData\Local\Temp\ccDxOX5d.s 			page 8


 242 0014 0248     		ldr	r0, .L17+4
 243              	.LVL28:
 244 0016 FFF7FEFF 		bl	UART_1_PutString
 245              	.LVL29:
 246 001a 08BD     		pop	{r3, pc}
 247              	.L18:
 248              		.align	2
 249              	.L17:
 250 001c 58000000 		.word	.LC5
 251 0020 68000000 		.word	.LC6
 252              		.cfi_endproc
 253              	.LFE66:
 254              		.size	handleByteReceived, .-handleByteReceived
 255              		.section	.text.ISR_UART_rx_handler,"ax",%progbits
 256              		.align	2
 257              		.global	ISR_UART_rx_handler
 258              		.thumb
 259              		.thumb_func
 260              		.type	ISR_UART_rx_handler, %function
 261              	ISR_UART_rx_handler:
 262              	.LFB65:
  94:main.c        ****   uint8 bytesToRead = UART_1_GetRxBufferSize();
 263              		.loc 1 94 0
 264              		.cfi_startproc
 265              		@ args = 0, pretend = 0, frame = 0
 266              		@ frame_needed = 0, uses_anonymous_args = 0
 267 0000 38B5     		push	{r3, r4, r5, lr}
 268              		.cfi_def_cfa_offset 16
 269              		.cfi_offset 3, -16
 270              		.cfi_offset 4, -12
 271              		.cfi_offset 5, -8
 272              		.cfi_offset 14, -4
  95:main.c        ****   while (bytesToRead > 0) {
 273              		.loc 1 95 0
 274 0002 FFF7FEFF 		bl	UART_1_GetRxBufferSize
 275              	.LVL30:
 276 0006 0446     		mov	r4, r0
 277              	.LVL31:
  96:main.c        ****     uint8 byteReceived = UART_1_ReadRxData();
 278              		.loc 1 96 0
 279 0008 09E0     		b	.L20
 280              	.L21:
 281              	.LBB3:
  97:main.c        ****     UART_1_WriteTxData(byteReceived); // echo back
 282              		.loc 1 97 0
 283 000a FFF7FEFF 		bl	UART_1_ReadRxData
 284              	.LVL32:
 285 000e 0546     		mov	r5, r0
 286              	.LVL33:
  98:main.c        **** 
 287              		.loc 1 98 0
 288 0010 FFF7FEFF 		bl	UART_1_WriteTxData
 289              	.LVL34:
 100:main.c        **** 
 290              		.loc 1 100 0
 291 0014 2846     		mov	r0, r5
 292 0016 FFF7FEFF 		bl	handleByteReceived
ARM GAS  C:\Users\adamh\AppData\Local\Temp\ccDxOX5d.s 			page 9


 293              	.LVL35:
 102:main.c        ****   }
 294              		.loc 1 102 0
 295 001a 013C     		subs	r4, r4, #1
 296              	.LVL36:
 297 001c E4B2     		uxtb	r4, r4
 298              	.LVL37:
 299              	.L20:
 300              	.LBE3:
  96:main.c        ****     uint8 byteReceived = UART_1_ReadRxData();
 301              		.loc 1 96 0
 302 001e 002C     		cmp	r4, #0
 303 0020 F3D1     		bne	.L21
 104:main.c        **** 
 304              		.loc 1 104 0
 305 0022 38BD     		pop	{r3, r4, r5, pc}
 306              		.cfi_endproc
 307              	.LFE65:
 308              		.size	ISR_UART_rx_handler, .-ISR_UART_rx_handler
 309              		.global	ADC_Sample
 310              		.comm	fftResult,4,4
 311              		.global	ADCToFFT
 312              		.comm	uartBuffer,256,4
 313              		.global	DMA_Done_Flag
 314              		.section	.rodata.str1.4,"aMS",%progbits,1
 315              		.align	2
 316              	.LC0:
 317 0000 496E2049 		.ascii	"In ISR DMA DONE\012\000"
 317      53522044 
 317      4D412044 
 317      4F4E450A 
 317      00
 318 0011 000000   		.space	3
 319              	.LC1:
 320 0014 4D61676E 		.ascii	"Magnitude resultat\012\000"
 320      69747564 
 320      65207265 
 320      73756C74 
 320      61740A00 
 321              	.LC2:
 322 0028 25643A20 		.ascii	"%d: %d\012\000"
 322      25640A00 
 323              	.LC3:
 324 0030 42594520 		.ascii	"BYE BYE ISR DMA DONE\012\000"
 324      42594520 
 324      49535220 
 324      444D4120 
 324      444F4E45 
 325 0046 0000     		.space	2
 326              	.LC4:
 327 0048 53746172 		.ascii	"Starting...\012\000"
 327      74696E67 
 327      2E2E2E0A 
 327      00
 328 0055 000000   		.space	3
 329              	.LC5:
 330 0058 71207072 		.ascii	"q pressed! \012\000"
ARM GAS  C:\Users\adamh\AppData\Local\Temp\ccDxOX5d.s 			page 10


 330      65737365 
 330      6421200A 
 330      00
 331 0065 000000   		.space	3
 332              	.LC6:
 333 0068 77207072 		.ascii	"w pressed! \012\000"
 333      65737365 
 333      6421200A 
 333      00
 334              		.bss
 335              		.align	2
 336              		.set	.LANCHOR0,. + 0
 337              		.type	ADC_Sample, %object
 338              		.size	ADC_Sample, 64
 339              	ADC_Sample:
 340 0000 00000000 		.space	64
 340      00000000 
 340      00000000 
 340      00000000 
 340      00000000 
 341              		.type	ADCToFFT, %object
 342              		.size	ADCToFFT, 64
 343              	ADCToFFT:
 344 0040 00000000 		.space	64
 344      00000000 
 344      00000000 
 344      00000000 
 344      00000000 
 345              		.type	DMA_Done_Flag, %object
 346              		.size	DMA_Done_Flag, 1
 347              	DMA_Done_Flag:
 348 0080 00       		.space	1
 349              		.text
 350              	.Letext0:
 351              		.file 2 "c:\\program files (x86)\\cypress\\psoc creator\\4.3\\psoc creator\\import\\gnu\\arm\\5.4.
 352              		.file 3 "c:\\program files (x86)\\cypress\\psoc creator\\4.3\\psoc creator\\import\\gnu\\arm\\5.4.
 353              		.file 4 "Generated_Source\\PSoC5/cytypes.h"
 354              		.file 5 "c:\\program files (x86)\\cypress\\psoc creator\\4.3\\psoc creator\\import\\gnu\\arm\\5.4.
 355              		.file 6 "Generated_Source\\PSoC5/core_cm3.h"
 356              		.file 7 "c:\\program files (x86)\\cypress\\psoc creator\\4.3\\psoc creator\\import\\gnu\\arm\\5.4.
 357              		.file 8 "Generated_Source\\PSoC5/UART_1.h"
 358              		.file 9 "Generated_Source\\PSoC5/dma_done_test.h"
 359              		.file 10 "fft.h"
 360              		.file 11 "Generated_Source\\PSoC5/ISR_DMA_Done.h"
 361              		.file 12 "Generated_Source\\PSoC5/ADC_DelSig.h"
 362              		.file 13 "Generated_Source\\PSoC5/isr_uart_rx.h"
 363              		.file 14 "Generated_Source\\PSoC5/DMA_1_dma.h"
 364              		.file 15 "Generated_Source\\PSoC5/CYDMAC.H"