ARM GAS  C:\Users\asha\AppData\Local\Temp\ccDsxdaM.s 			page 1


   1              		.cpu cortex-m0
   2              		.fpu softvfp
   3              		.eabi_attribute 20, 1
   4              		.eabi_attribute 21, 1
   5              		.eabi_attribute 23, 3
   6              		.eabi_attribute 24, 1
   7              		.eabi_attribute 25, 1
   8              		.eabi_attribute 26, 1
   9              		.eabi_attribute 30, 2
  10              		.eabi_attribute 18, 4
  11              		.code	16
  12              		.file	"Cm0Start.c"
  19 0000 C0000000 		.text
  19      02006100 
  19      00000201 
  19      FB0E0D00 
  19      01010101 
  20              	.Ltext0:
  21              		.cfi_sections	.debug_frame
  22              		.section	.text.IntDefaultHandler,"ax",%progbits
  23              		.align	2
  24              		.global	IntDefaultHandler
  25              		.code	16
  26              		.thumb_func
  27              		.type	IntDefaultHandler, %function
  28              	IntDefaultHandler:
  29              	.LFB0:
  30              		.file 1 ".\\Generated_Source\\PSoC4\\Cm0Start.c"
   1:.\Generated_Source\PSoC4/Cm0Start.c **** /*******************************************************************************
   2:.\Generated_Source\PSoC4/Cm0Start.c **** * File Name: Cm0Start.c
   3:.\Generated_Source\PSoC4/Cm0Start.c **** * Version 3.40
   4:.\Generated_Source\PSoC4/Cm0Start.c **** *
   5:.\Generated_Source\PSoC4/Cm0Start.c **** *  Description:
   6:.\Generated_Source\PSoC4/Cm0Start.c **** *  Startup code for the ARM CM0.
   7:.\Generated_Source\PSoC4/Cm0Start.c **** *
   8:.\Generated_Source\PSoC4/Cm0Start.c **** ********************************************************************************
   9:.\Generated_Source\PSoC4/Cm0Start.c **** * Copyright 2010-2013, Cypress Semiconductor Corporation.  All rights reserved.
  10:.\Generated_Source\PSoC4/Cm0Start.c **** * You may use this file only in accordance with the license, terms, conditions,
  11:.\Generated_Source\PSoC4/Cm0Start.c **** * disclaimers, and limitations in the end user license agreement accompanying
  12:.\Generated_Source\PSoC4/Cm0Start.c **** * the software package with which this file was provided.
  13:.\Generated_Source\PSoC4/Cm0Start.c **** *******************************************************************************/
  14:.\Generated_Source\PSoC4/Cm0Start.c **** 
  15:.\Generated_Source\PSoC4/Cm0Start.c **** #include "cydevice_trm.h"
  16:.\Generated_Source\PSoC4/Cm0Start.c **** #include "cytypes.h"
  17:.\Generated_Source\PSoC4/Cm0Start.c **** #include "cyfitter_cfg.h"
  18:.\Generated_Source\PSoC4/Cm0Start.c **** #include "CyLib.h"
  19:.\Generated_Source\PSoC4/Cm0Start.c **** #include "cyfitter.h"
  20:.\Generated_Source\PSoC4/Cm0Start.c **** 
  21:.\Generated_Source\PSoC4/Cm0Start.c **** #define NUM_VECTORS                 (CY_INT_IRQ_BASE + CY_NUM_INTERRUPTS)
  22:.\Generated_Source\PSoC4/Cm0Start.c **** #define CPUSS_CONFIG                ((reg32 *) CYREG_CPUSS_CONFIG)
  23:.\Generated_Source\PSoC4/Cm0Start.c **** #define NUM_ROM_VECTORS             4u
ARM GAS  C:\Users\asha\AppData\Local\Temp\ccDsxdaM.s 			page 2


  24:.\Generated_Source\PSoC4/Cm0Start.c **** 
  25:.\Generated_Source\PSoC4/Cm0Start.c **** #if defined(__ARMCC_VERSION)
  26:.\Generated_Source\PSoC4/Cm0Start.c ****     #define INITIAL_STACK_POINTER (cyisraddress)(uint32)&Image$$ARM_LIB_STACK$$ZI$$Limit
  27:.\Generated_Source\PSoC4/Cm0Start.c **** #elif defined (__GNUC__)
  28:.\Generated_Source\PSoC4/Cm0Start.c ****     #define INITIAL_STACK_POINTER __cs3_stack
  29:.\Generated_Source\PSoC4/Cm0Start.c **** #endif  /* (__ARMCC_VERSION) */
  30:.\Generated_Source\PSoC4/Cm0Start.c **** 
  31:.\Generated_Source\PSoC4/Cm0Start.c **** /* Extern functions */
  32:.\Generated_Source\PSoC4/Cm0Start.c **** extern void CyBtldr_CheckLaunch(void);
  33:.\Generated_Source\PSoC4/Cm0Start.c **** 
  34:.\Generated_Source\PSoC4/Cm0Start.c **** /* Function prototypes */
  35:.\Generated_Source\PSoC4/Cm0Start.c **** void initialize_psoc(void);
  36:.\Generated_Source\PSoC4/Cm0Start.c **** 
  37:.\Generated_Source\PSoC4/Cm0Start.c **** /* Global variables */
  38:.\Generated_Source\PSoC4/Cm0Start.c **** CY_NOINIT static uint32 cySysNoInitDataValid;
  39:.\Generated_Source\PSoC4/Cm0Start.c **** 
  40:.\Generated_Source\PSoC4/Cm0Start.c **** #if (CYDEV_PROJ_TYPE != CYDEV_PROJ_TYPE_STANDARD)
  41:.\Generated_Source\PSoC4/Cm0Start.c **** 
  42:.\Generated_Source\PSoC4/Cm0Start.c ****     /*******************************************************************************
  43:.\Generated_Source\PSoC4/Cm0Start.c ****     This variable is used by Bootloader/Bootloadable components to schedule
  44:.\Generated_Source\PSoC4/Cm0Start.c ****     what application will be started after software reset.
  45:.\Generated_Source\PSoC4/Cm0Start.c ****     *******************************************************************************/
  46:.\Generated_Source\PSoC4/Cm0Start.c ****     #if (__ARMCC_VERSION)
  47:.\Generated_Source\PSoC4/Cm0Start.c ****         volatile uint32 __attribute__ ((section(".bootloaderruntype"), zero_init))  cyBtldrRunType;
  48:.\Generated_Source\PSoC4/Cm0Start.c ****     #else   /* (__GNUC__) */
  49:.\Generated_Source\PSoC4/Cm0Start.c ****         volatile uint32 __attribute__ ((section(".bootloaderruntype")))             cyBtldrRunType;
  50:.\Generated_Source\PSoC4/Cm0Start.c ****     #endif  /* (__ARMCC_VERSION) */
  51:.\Generated_Source\PSoC4/Cm0Start.c **** 
  52:.\Generated_Source\PSoC4/Cm0Start.c **** #endif  /* (CYDEV_PROJ_TYPE != CYDEV_PROJ_TYPE_STANDARD) */
  53:.\Generated_Source\PSoC4/Cm0Start.c **** 
  54:.\Generated_Source\PSoC4/Cm0Start.c **** /*******************************************************************************
  55:.\Generated_Source\PSoC4/Cm0Start.c **** * Function Name: IntDefaultHandler
  56:.\Generated_Source\PSoC4/Cm0Start.c **** ********************************************************************************
  57:.\Generated_Source\PSoC4/Cm0Start.c **** *
  58:.\Generated_Source\PSoC4/Cm0Start.c **** * Summary:
  59:.\Generated_Source\PSoC4/Cm0Start.c **** *  This function is called for all interrupts, other than reset, that get called
  60:.\Generated_Source\PSoC4/Cm0Start.c **** *  before the system is setup.
  61:.\Generated_Source\PSoC4/Cm0Start.c **** *
  62:.\Generated_Source\PSoC4/Cm0Start.c **** * Parameters:
  63:.\Generated_Source\PSoC4/Cm0Start.c **** *  None
  64:.\Generated_Source\PSoC4/Cm0Start.c **** *
  65:.\Generated_Source\PSoC4/Cm0Start.c **** * Return:
  66:.\Generated_Source\PSoC4/Cm0Start.c **** *  None
  67:.\Generated_Source\PSoC4/Cm0Start.c **** *
  68:.\Generated_Source\PSoC4/Cm0Start.c **** * Theory:
  69:.\Generated_Source\PSoC4/Cm0Start.c **** *   Any value other than zero is acceptable.
  70:.\Generated_Source\PSoC4/Cm0Start.c **** *
  71:.\Generated_Source\PSoC4/Cm0Start.c **** *******************************************************************************/
  72:.\Generated_Source\PSoC4/Cm0Start.c **** __attribute__ ((noreturn))
  73:.\Generated_Source\PSoC4/Cm0Start.c **** CY_ISR(IntDefaultHandler)
  74:.\Generated_Source\PSoC4/Cm0Start.c **** {
  31              		.loc 1 74 0
  32              		.cfi_startproc
  33 0000 00B5     		push	{lr}
  34              	.LCFI0:
  35              		.cfi_def_cfa_offset 4
  36              		.cfi_offset 14, -4
ARM GAS  C:\Users\asha\AppData\Local\Temp\ccDsxdaM.s 			page 3


  37              	.L2:
  38 0002 FEE7     		b	.L2
  39              		.cfi_endproc
  40              	.LFE0:
  41              		.size	IntDefaultHandler, .-IntDefaultHandler
  42              		.section	.text.Reset,"ax",%progbits
  43              		.align	2
  44              		.global	Reset
  45              		.code	16
  46              		.thumb_func
  47              		.type	Reset, %function
  48              	Reset:
  49              	.LFB1:
  75:.\Generated_Source\PSoC4/Cm0Start.c ****     /***************************************************************************
  76:.\Generated_Source\PSoC4/Cm0Start.c ****     * We should never get here. If we do, a serious problem occured, so go into
  77:.\Generated_Source\PSoC4/Cm0Start.c ****     * an infinite loop.
  78:.\Generated_Source\PSoC4/Cm0Start.c ****     ***************************************************************************/
  79:.\Generated_Source\PSoC4/Cm0Start.c ****     while(1)
  80:.\Generated_Source\PSoC4/Cm0Start.c ****     {
  81:.\Generated_Source\PSoC4/Cm0Start.c **** 
  82:.\Generated_Source\PSoC4/Cm0Start.c ****     }
  83:.\Generated_Source\PSoC4/Cm0Start.c **** }
  84:.\Generated_Source\PSoC4/Cm0Start.c **** 
  85:.\Generated_Source\PSoC4/Cm0Start.c **** #if defined(__ARMCC_VERSION)
  86:.\Generated_Source\PSoC4/Cm0Start.c **** 
  87:.\Generated_Source\PSoC4/Cm0Start.c **** /* Local function for the device reset. */
  88:.\Generated_Source\PSoC4/Cm0Start.c **** extern void Reset(void);
  89:.\Generated_Source\PSoC4/Cm0Start.c **** 
  90:.\Generated_Source\PSoC4/Cm0Start.c **** /* Application entry point. */
  91:.\Generated_Source\PSoC4/Cm0Start.c **** extern void $Super$$main(void);
  92:.\Generated_Source\PSoC4/Cm0Start.c **** 
  93:.\Generated_Source\PSoC4/Cm0Start.c **** /* Linker-generated Stack Base addresses, Two Region and One Region */
  94:.\Generated_Source\PSoC4/Cm0Start.c **** extern unsigned long Image$$ARM_LIB_STACK$$ZI$$Limit;
  95:.\Generated_Source\PSoC4/Cm0Start.c **** 
  96:.\Generated_Source\PSoC4/Cm0Start.c **** /* RealView C Library initialization. */
  97:.\Generated_Source\PSoC4/Cm0Start.c **** extern int __main(void);
  98:.\Generated_Source\PSoC4/Cm0Start.c **** 
  99:.\Generated_Source\PSoC4/Cm0Start.c **** 
 100:.\Generated_Source\PSoC4/Cm0Start.c **** /*******************************************************************************
 101:.\Generated_Source\PSoC4/Cm0Start.c **** * Function Name: Reset
 102:.\Generated_Source\PSoC4/Cm0Start.c **** ********************************************************************************
 103:.\Generated_Source\PSoC4/Cm0Start.c **** *
 104:.\Generated_Source\PSoC4/Cm0Start.c **** * Summary:
 105:.\Generated_Source\PSoC4/Cm0Start.c **** *  This function handles the reset interrupt for the RVDS/MDK toolchains.
 106:.\Generated_Source\PSoC4/Cm0Start.c **** *  This is the first bit of code that is executed at startup.
 107:.\Generated_Source\PSoC4/Cm0Start.c **** *
 108:.\Generated_Source\PSoC4/Cm0Start.c **** * Parameters:
 109:.\Generated_Source\PSoC4/Cm0Start.c **** *  None
 110:.\Generated_Source\PSoC4/Cm0Start.c **** *
 111:.\Generated_Source\PSoC4/Cm0Start.c **** * Return:
 112:.\Generated_Source\PSoC4/Cm0Start.c **** *  None
 113:.\Generated_Source\PSoC4/Cm0Start.c **** *
 114:.\Generated_Source\PSoC4/Cm0Start.c **** *******************************************************************************/
 115:.\Generated_Source\PSoC4/Cm0Start.c **** __asm void Reset(void)
 116:.\Generated_Source\PSoC4/Cm0Start.c **** {
 117:.\Generated_Source\PSoC4/Cm0Start.c ****     PRESERVE8
 118:.\Generated_Source\PSoC4/Cm0Start.c ****     EXTERN |Image$$ARM_LIB_STACK$$ZI$$Limit|
ARM GAS  C:\Users\asha\AppData\Local\Temp\ccDsxdaM.s 			page 4


 119:.\Generated_Source\PSoC4/Cm0Start.c ****     EXTERN __main
 120:.\Generated_Source\PSoC4/Cm0Start.c ****     EXTERN CyBtldr_CheckLaunch
 121:.\Generated_Source\PSoC4/Cm0Start.c ****     LDR R3, =|Image$$ARM_LIB_STACK$$ZI$$Limit|
 122:.\Generated_Source\PSoC4/Cm0Start.c ****     MOV SP, R3
 123:.\Generated_Source\PSoC4/Cm0Start.c **** #if (CYDEV_BOOTLOADER_ENABLE)
 124:.\Generated_Source\PSoC4/Cm0Start.c ****     BL  CyBtldr_CheckLaunch
 125:.\Generated_Source\PSoC4/Cm0Start.c **** #endif /* CYDEV_BOOTLOADER_ENABLE */
 126:.\Generated_Source\PSoC4/Cm0Start.c ****     LDR R0, =__main
 127:.\Generated_Source\PSoC4/Cm0Start.c ****     BX R0
 128:.\Generated_Source\PSoC4/Cm0Start.c **** 
 129:.\Generated_Source\PSoC4/Cm0Start.c ****     ALIGN
 130:.\Generated_Source\PSoC4/Cm0Start.c **** }
 131:.\Generated_Source\PSoC4/Cm0Start.c **** 
 132:.\Generated_Source\PSoC4/Cm0Start.c **** 
 133:.\Generated_Source\PSoC4/Cm0Start.c **** /*******************************************************************************
 134:.\Generated_Source\PSoC4/Cm0Start.c **** * Function Name: $Sub$$main
 135:.\Generated_Source\PSoC4/Cm0Start.c **** ********************************************************************************
 136:.\Generated_Source\PSoC4/Cm0Start.c **** *
 137:.\Generated_Source\PSoC4/Cm0Start.c **** * Summary:
 138:.\Generated_Source\PSoC4/Cm0Start.c **** *  This function is called imediatly before the users main
 139:.\Generated_Source\PSoC4/Cm0Start.c **** *
 140:.\Generated_Source\PSoC4/Cm0Start.c **** * Parameters:
 141:.\Generated_Source\PSoC4/Cm0Start.c **** *  None
 142:.\Generated_Source\PSoC4/Cm0Start.c **** *
 143:.\Generated_Source\PSoC4/Cm0Start.c **** * Return:
 144:.\Generated_Source\PSoC4/Cm0Start.c **** *  None
 145:.\Generated_Source\PSoC4/Cm0Start.c **** *
 146:.\Generated_Source\PSoC4/Cm0Start.c **** *******************************************************************************/
 147:.\Generated_Source\PSoC4/Cm0Start.c **** __attribute__ ((noreturn))
 148:.\Generated_Source\PSoC4/Cm0Start.c **** void $Sub$$main(void)
 149:.\Generated_Source\PSoC4/Cm0Start.c **** {
 150:.\Generated_Source\PSoC4/Cm0Start.c ****     initialize_psoc();
 151:.\Generated_Source\PSoC4/Cm0Start.c **** 
 152:.\Generated_Source\PSoC4/Cm0Start.c ****     /* Call original main */
 153:.\Generated_Source\PSoC4/Cm0Start.c ****     $Super$$main();
 154:.\Generated_Source\PSoC4/Cm0Start.c **** 
 155:.\Generated_Source\PSoC4/Cm0Start.c ****     /* If main returns it is undefined what we should do. */
 156:.\Generated_Source\PSoC4/Cm0Start.c ****     while (1);
 157:.\Generated_Source\PSoC4/Cm0Start.c **** }
 158:.\Generated_Source\PSoC4/Cm0Start.c **** 
 159:.\Generated_Source\PSoC4/Cm0Start.c **** #elif defined(__GNUC__)
 160:.\Generated_Source\PSoC4/Cm0Start.c **** 
 161:.\Generated_Source\PSoC4/Cm0Start.c **** extern void __cs3_stack(void);
 162:.\Generated_Source\PSoC4/Cm0Start.c **** extern void __cs3_start_c(void);
 163:.\Generated_Source\PSoC4/Cm0Start.c **** 
 164:.\Generated_Source\PSoC4/Cm0Start.c **** 
 165:.\Generated_Source\PSoC4/Cm0Start.c **** /*******************************************************************************
 166:.\Generated_Source\PSoC4/Cm0Start.c **** * Function Name: Reset
 167:.\Generated_Source\PSoC4/Cm0Start.c **** ********************************************************************************
 168:.\Generated_Source\PSoC4/Cm0Start.c **** *
 169:.\Generated_Source\PSoC4/Cm0Start.c **** * Summary:
 170:.\Generated_Source\PSoC4/Cm0Start.c **** *  This function handles the reset interrupt for the GCC toolchain.  This is
 171:.\Generated_Source\PSoC4/Cm0Start.c **** *  the first bit of code that is executed at startup.
 172:.\Generated_Source\PSoC4/Cm0Start.c **** *
 173:.\Generated_Source\PSoC4/Cm0Start.c **** * Parameters:
 174:.\Generated_Source\PSoC4/Cm0Start.c **** *  None
 175:.\Generated_Source\PSoC4/Cm0Start.c **** *
ARM GAS  C:\Users\asha\AppData\Local\Temp\ccDsxdaM.s 			page 5


 176:.\Generated_Source\PSoC4/Cm0Start.c **** * Return:
 177:.\Generated_Source\PSoC4/Cm0Start.c **** *  None
 178:.\Generated_Source\PSoC4/Cm0Start.c **** *
 179:.\Generated_Source\PSoC4/Cm0Start.c **** *******************************************************************************/
 180:.\Generated_Source\PSoC4/Cm0Start.c **** __attribute__ ((naked))
 181:.\Generated_Source\PSoC4/Cm0Start.c **** void Reset(void)
 182:.\Generated_Source\PSoC4/Cm0Start.c **** {
  50              		.loc 1 182 0
  51              		.cfi_startproc
 183:.\Generated_Source\PSoC4/Cm0Start.c ****     __asm volatile(
  52              		.loc 1 183 0
  53 0000 0148     		ldr	r0, .L6
  54              	@ 183 ".\Generated_Source\PSoC4\Cm0Start.c" 1
  55 0002 8546     		    MOV sp, r0
  56              	
  57              	@ 0 "" 2
 184:.\Generated_Source\PSoC4/Cm0Start.c ****           "    MOV sp, %0\n"
 185:.\Generated_Source\PSoC4/Cm0Start.c **** #if (CYDEV_BOOTLOADER_ENABLE)
 186:.\Generated_Source\PSoC4/Cm0Start.c ****           "    BL  CyBtldr_CheckLaunch\n"
 187:.\Generated_Source\PSoC4/Cm0Start.c **** #endif /* CYDEV_BOOTLOADER_ENABLE */
 188:.\Generated_Source\PSoC4/Cm0Start.c ****           : : "r" (__cs3_stack));
 189:.\Generated_Source\PSoC4/Cm0Start.c ****     __asm volatile(
  58              		.loc 1 189 0
  59              		.code	16
  60 0004 014B     		ldr	r3, .L6+4
  61              	@ 189 ".\Generated_Source\PSoC4\Cm0Start.c" 1
  62 0006 1847     		    BX   r3
  63              	
  64              	@ 0 "" 2
 190:.\Generated_Source\PSoC4/Cm0Start.c ****           "    BX   %0\n"
 191:.\Generated_Source\PSoC4/Cm0Start.c ****           : : "r" (__cs3_start_c));
 192:.\Generated_Source\PSoC4/Cm0Start.c **** }
  65              		.loc 1 192 0
  66              		.code	16
  67              	.L7:
  68              		.align	2
  69              	.L6:
  70 0008 00000000 		.word	__cs3_stack
  71 000c 00000000 		.word	__cs3_start_c
  72              		.cfi_endproc
  73              	.LFE1:
  74              		.size	Reset, .-Reset
  75              		.section	.text.initialize_psoc,"ax",%progbits
  76              		.align	2
  77              		.global	initialize_psoc
  78              		.code	16
  79              		.thumb_func
  80              		.type	initialize_psoc, %function
  81              	initialize_psoc:
  82              	.LFB2:
 193:.\Generated_Source\PSoC4/Cm0Start.c **** 
 194:.\Generated_Source\PSoC4/Cm0Start.c **** #endif /* __GNUC__ */
 195:.\Generated_Source\PSoC4/Cm0Start.c **** 
 196:.\Generated_Source\PSoC4/Cm0Start.c **** 
 197:.\Generated_Source\PSoC4/Cm0Start.c **** /*******************************************************************************
 198:.\Generated_Source\PSoC4/Cm0Start.c **** * Ram Interrupt Vector table storage area. Must be placed at 0x20000000.
 199:.\Generated_Source\PSoC4/Cm0Start.c **** *******************************************************************************/
ARM GAS  C:\Users\asha\AppData\Local\Temp\ccDsxdaM.s 			page 6


 200:.\Generated_Source\PSoC4/Cm0Start.c **** 
 201:.\Generated_Source\PSoC4/Cm0Start.c **** __attribute__ ((section(".ramvectors")))
 202:.\Generated_Source\PSoC4/Cm0Start.c **** cyisraddress CyRamVectors[NUM_VECTORS];
 203:.\Generated_Source\PSoC4/Cm0Start.c **** 
 204:.\Generated_Source\PSoC4/Cm0Start.c **** 
 205:.\Generated_Source\PSoC4/Cm0Start.c **** /*******************************************************************************
 206:.\Generated_Source\PSoC4/Cm0Start.c **** * Rom Interrupt Vector table storage area. Must be 256-byte aligned.
 207:.\Generated_Source\PSoC4/Cm0Start.c **** *******************************************************************************/
 208:.\Generated_Source\PSoC4/Cm0Start.c **** 
 209:.\Generated_Source\PSoC4/Cm0Start.c **** #if defined(__ARMCC_VERSION)
 210:.\Generated_Source\PSoC4/Cm0Start.c ****     #pragma diag_suppress 1296
 211:.\Generated_Source\PSoC4/Cm0Start.c **** #endif  /* defined(__ARMCC_VERSION) */
 212:.\Generated_Source\PSoC4/Cm0Start.c **** __attribute__ ((section(".romvectors")))
 213:.\Generated_Source\PSoC4/Cm0Start.c **** const cyisraddress RomVectors[NUM_ROM_VECTORS] =
 214:.\Generated_Source\PSoC4/Cm0Start.c **** {
 215:.\Generated_Source\PSoC4/Cm0Start.c ****     #if defined(__ARMCC_VERSION)
 216:.\Generated_Source\PSoC4/Cm0Start.c ****         INITIAL_STACK_POINTER,           /* The initial stack pointer  0 */
 217:.\Generated_Source\PSoC4/Cm0Start.c ****     #elif defined (__GNUC__)
 218:.\Generated_Source\PSoC4/Cm0Start.c ****         &INITIAL_STACK_POINTER,          /* The initial stack pointer  0 */
 219:.\Generated_Source\PSoC4/Cm0Start.c ****     #endif  /* (__ARMCC_VERSION) */
 220:.\Generated_Source\PSoC4/Cm0Start.c ****     (cyisraddress)&Reset,            /* The reset handler          1 */
 221:.\Generated_Source\PSoC4/Cm0Start.c ****     &IntDefaultHandler,              /* The NMI handler            2 */
 222:.\Generated_Source\PSoC4/Cm0Start.c ****     &IntDefaultHandler,              /* The hard fault handler     3 */
 223:.\Generated_Source\PSoC4/Cm0Start.c **** };
 224:.\Generated_Source\PSoC4/Cm0Start.c **** 
 225:.\Generated_Source\PSoC4/Cm0Start.c **** 
 226:.\Generated_Source\PSoC4/Cm0Start.c **** /*******************************************************************************
 227:.\Generated_Source\PSoC4/Cm0Start.c **** * Function Name: initialize_psoc
 228:.\Generated_Source\PSoC4/Cm0Start.c **** ********************************************************************************
 229:.\Generated_Source\PSoC4/Cm0Start.c **** *
 230:.\Generated_Source\PSoC4/Cm0Start.c **** * Summary:
 231:.\Generated_Source\PSoC4/Cm0Start.c **** *  This function used to initialize the PSoC chip before calling main.
 232:.\Generated_Source\PSoC4/Cm0Start.c **** *
 233:.\Generated_Source\PSoC4/Cm0Start.c **** * Parameters:
 234:.\Generated_Source\PSoC4/Cm0Start.c **** *  None
 235:.\Generated_Source\PSoC4/Cm0Start.c **** *
 236:.\Generated_Source\PSoC4/Cm0Start.c **** * Return:
 237:.\Generated_Source\PSoC4/Cm0Start.c **** *  None
 238:.\Generated_Source\PSoC4/Cm0Start.c **** *
 239:.\Generated_Source\PSoC4/Cm0Start.c **** *******************************************************************************/
 240:.\Generated_Source\PSoC4/Cm0Start.c **** #if(defined(__GNUC__) && !defined(__ARMCC_VERSION))
 241:.\Generated_Source\PSoC4/Cm0Start.c **** __attribute__ ((constructor(101)))
 242:.\Generated_Source\PSoC4/Cm0Start.c **** #endif  /* (defined(__GNUC__) && !defined(__ARMCC_VERSION)) */
 243:.\Generated_Source\PSoC4/Cm0Start.c **** void initialize_psoc(void)
 244:.\Generated_Source\PSoC4/Cm0Start.c **** {
  83              		.loc 1 244 0
  84              		.cfi_startproc
  85 0000 38B5     		push	{r3, r4, r5, lr}
  86              	.LCFI1:
  87              		.cfi_def_cfa_offset 16
  88              		.cfi_offset 3, -16
  89              		.cfi_offset 4, -12
  90              		.cfi_offset 5, -8
  91              		.cfi_offset 14, -4
  92              		.loc 1 244 0
  93 0002 0022     		mov	r2, #0
  94 0004 0023     		mov	r3, #0
ARM GAS  C:\Users\asha\AppData\Local\Temp\ccDsxdaM.s 			page 7


  95              	.LVL0:
  96 0006 1449     		ldr	r1, .L23
 245:.\Generated_Source\PSoC4/Cm0Start.c ****     uint32 indexInit;
 246:.\Generated_Source\PSoC4/Cm0Start.c **** 
 247:.\Generated_Source\PSoC4/Cm0Start.c ****     /* Set Ram interrupt vectors to default functions. */
 248:.\Generated_Source\PSoC4/Cm0Start.c ****     for(indexInit = 0u; indexInit < NUM_VECTORS; indexInit++)
 249:.\Generated_Source\PSoC4/Cm0Start.c ****     {
 250:.\Generated_Source\PSoC4/Cm0Start.c ****         CyRamVectors[indexInit] = (indexInit < NUM_ROM_VECTORS) ? RomVectors[indexInit] : &IntDefau
  97              		.loc 1 250 0
  98 0008 144D     		ldr	r5, .L23+4
  99 000a 154C     		ldr	r4, .L23+8
 100 000c 0BE0     		b	.L11
 101              	.L22:
 102 000e 201C     		mov	r0, r4
 103              		.loc 1 248 0
 104 0010 0133     		add	r3, r3, #1
 105              	.LVL1:
 106              		.loc 1 250 0
 107 0012 8850     		str	r0, [r1, r2]
 108              		.loc 1 248 0
 109 0014 0432     		add	r2, r2, #4
 110              		.loc 1 250 0
 111 0016 032B     		cmp	r3, #3
 112 0018 0DD8     		bhi	.L20
 113              	.L14:
 114 001a A858     		ldr	r0, [r5, r2]
 115              		.loc 1 248 0
 116 001c 0133     		add	r3, r3, #1
 117              	.LVL2:
 118              		.loc 1 250 0
 119 001e 8850     		str	r0, [r1, r2]
 120              		.loc 1 248 0
 121 0020 0432     		add	r2, r2, #4
 122 0022 302B     		cmp	r3, #48
 123 0024 0DD0     		beq	.L21
 124              	.L11:
 125              		.loc 1 250 0
 126 0026 032B     		cmp	r3, #3
 127 0028 F1D8     		bhi	.L22
 128 002a A858     		ldr	r0, [r5, r2]
 129              		.loc 1 248 0
 130 002c 0133     		add	r3, r3, #1
 131              	.LVL3:
 132              		.loc 1 250 0
 133 002e 8850     		str	r0, [r1, r2]
 134              		.loc 1 248 0
 135 0030 0432     		add	r2, r2, #4
 136              		.loc 1 250 0
 137 0032 032B     		cmp	r3, #3
 138 0034 F1D9     		bls	.L14
 139              	.L20:
 140 0036 201C     		mov	r0, r4
 141              		.loc 1 248 0
 142 0038 0133     		add	r3, r3, #1
 143              	.LVL4:
 144              		.loc 1 250 0
 145 003a 8850     		str	r0, [r1, r2]
ARM GAS  C:\Users\asha\AppData\Local\Temp\ccDsxdaM.s 			page 8


 146              		.loc 1 248 0
 147 003c 0432     		add	r2, r2, #4
 148 003e 302B     		cmp	r3, #48
 149 0040 F1D1     		bne	.L11
 150              	.L21:
 251:.\Generated_Source\PSoC4/Cm0Start.c ****     }
 252:.\Generated_Source\PSoC4/Cm0Start.c **** 
 253:.\Generated_Source\PSoC4/Cm0Start.c ****     /* Initialize the configuration registers. */
 254:.\Generated_Source\PSoC4/Cm0Start.c ****     cyfitter_cfg();
 151              		.loc 1 254 0
 152 0042 FFF7FEFF 		bl	cyfitter_cfg
 153              	.LVL5:
 255:.\Generated_Source\PSoC4/Cm0Start.c **** 
 256:.\Generated_Source\PSoC4/Cm0Start.c ****     /* Actually, no need to clean this variable, just to make compiler happy. */
 257:.\Generated_Source\PSoC4/Cm0Start.c ****     cySysNoInitDataValid = 0u;
 154              		.loc 1 257 0
 155 0046 074C     		ldr	r4, .L23+12
 258:.\Generated_Source\PSoC4/Cm0Start.c **** 
 259:.\Generated_Source\PSoC4/Cm0Start.c ****     #if (CYDEV_PROJ_TYPE != CYDEV_PROJ_TYPE_STANDARD)
 260:.\Generated_Source\PSoC4/Cm0Start.c **** 
 261:.\Generated_Source\PSoC4/Cm0Start.c ****         /* Need to make sure that this variable will not be optimized out */
 262:.\Generated_Source\PSoC4/Cm0Start.c ****         if (0u == cyBtldrRunType)
 263:.\Generated_Source\PSoC4/Cm0Start.c ****         {
 264:.\Generated_Source\PSoC4/Cm0Start.c ****             cyBtldrRunType = 0u;
 265:.\Generated_Source\PSoC4/Cm0Start.c ****         }
 266:.\Generated_Source\PSoC4/Cm0Start.c **** 
 267:.\Generated_Source\PSoC4/Cm0Start.c ****     #endif  /* (CYDEV_PROJ_TYPE != CYDEV_PROJ_TYPE_STANDARD) */
 268:.\Generated_Source\PSoC4/Cm0Start.c **** 
 269:.\Generated_Source\PSoC4/Cm0Start.c ****     /* Point Vector Table at the RAM vector table. */
 270:.\Generated_Source\PSoC4/Cm0Start.c ****     #if(CYDEV_CONFIG_READ_ACCELERATOR)
 271:.\Generated_Source\PSoC4/Cm0Start.c ****         *CPUSS_CONFIG = 1u;
 156              		.loc 1 271 0
 157 0048 8020     		mov	r0, #128
 158              		.loc 1 257 0
 159 004a 0021     		mov	r1, #0
 160              		.loc 1 271 0
 161 004c C305     		lsl	r3, r0, #23
 162 004e 0122     		mov	r2, #1
 163              		.loc 1 257 0
 164 0050 2160     		str	r1, [r4]
 272:.\Generated_Source\PSoC4/Cm0Start.c ****     #else
 273:.\Generated_Source\PSoC4/Cm0Start.c ****         *CPUSS_CONFIG = 3u;
 274:.\Generated_Source\PSoC4/Cm0Start.c ****     #endif  /* (CYDEV_CONFIG_READ_ACCELERATOR) */
 275:.\Generated_Source\PSoC4/Cm0Start.c **** }
 165              		.loc 1 275 0
 166              		@ sp needed for prologue
 167              		.loc 1 271 0
 168 0052 1A60     		str	r2, [r3]
 169              		.loc 1 275 0
 170 0054 38BD     		pop	{r3, r4, r5, pc}
 171              	.L24:
 172 0056 C046     		.align	2
 173              	.L23:
 174 0058 00000000 		.word	.LANCHOR1
 175 005c 00000000 		.word	.LANCHOR0
 176 0060 00000000 		.word	IntDefaultHandler
 177 0064 00000000 		.word	.LANCHOR2
ARM GAS  C:\Users\asha\AppData\Local\Temp\ccDsxdaM.s 			page 9


 178              		.cfi_endproc
 179              	.LFE2:
 180              		.size	initialize_psoc, .-initialize_psoc
 181              		.section	.init_array,"aw",%init_array
 182              		.align	2
 183 0000 00000000 		.word	initialize_psoc(target1)
 184              		.global	RomVectors
 185              		.global	CyRamVectors
 186              		.section	.romvectors,"a",%progbits
 187              		.align	2
 188              		.set	.LANCHOR0,. + 0
 189              		.type	RomVectors, %object
 190              		.size	RomVectors, 16
 191              	RomVectors:
 192 0000 00000000 		.word	__cs3_stack
 193 0004 00000000 		.word	Reset
 194 0008 00000000 		.word	IntDefaultHandler
 195 000c 00000000 		.word	IntDefaultHandler
 196              		.section	.noinit,"aw",%progbits
 197              		.align	2
 198              		.set	.LANCHOR2,. + 0
 199              		.type	cySysNoInitDataValid, %object
 200              		.size	cySysNoInitDataValid, 4
 201              	cySysNoInitDataValid:
 202 0000 00000000 		.space	4
 203              		.section	.ramvectors,"aw",%progbits
 204              		.align	2
 205              		.set	.LANCHOR1,. + 0
 206              		.type	CyRamVectors, %object
 207              		.size	CyRamVectors, 192
 208              	CyRamVectors:
 209 0000 00000000 		.space	192
 209      00000000 
 209      00000000 
 209      00000000 
 209      00000000 
 210              		.text
 211              	.Letext0: