ARM GAS  C:\Users\asha\AppData\Local\Temp\ccEMnC6g.s 			page 1


   1              		.cpu cortex-m0
   2              		.fpu softvfp
   3              		.eabi_attribute 20, 1
   4              		.eabi_attribute 21, 1
   5              		.eabi_attribute 23, 3
   6              		.eabi_attribute 24, 1
   7              		.eabi_attribute 25, 1
   8              		.eabi_attribute 26, 1
   9              		.eabi_attribute 30, 2
  10              		.eabi_attribute 18, 4
  11              		.code	16
  12              		.file	"CyFlash.c"
  19 0000 C5000000 		.text
  19      02006000 
  19      00000201 
  19      FB0E0D00 
  19      01010101 
  20              	.Ltext0:
  21              		.cfi_sections	.debug_frame
  22              		.section	.text.CySysFlashSetWaitCycles,"ax",%progbits
  23              		.align	2
  24              		.global	CySysFlashSetWaitCycles
  25              		.code	16
  26              		.thumb_func
  27              		.type	CySysFlashSetWaitCycles, %function
  28              	CySysFlashSetWaitCycles:
  29              	.LFB1:
  30              		.file 1 ".\\Generated_Source\\PSoC4\\CyFlash.c"
   1:.\Generated_Source\PSoC4/CyFlash.c **** /*******************************************************************************
   2:.\Generated_Source\PSoC4/CyFlash.c **** * File Name: CyFlash.c
   3:.\Generated_Source\PSoC4/CyFlash.c **** * Version 3.40
   4:.\Generated_Source\PSoC4/CyFlash.c **** *
   5:.\Generated_Source\PSoC4/CyFlash.c **** *  Description:
   6:.\Generated_Source\PSoC4/CyFlash.c **** *   Provides an API for the FLASH.
   7:.\Generated_Source\PSoC4/CyFlash.c **** *
   8:.\Generated_Source\PSoC4/CyFlash.c **** *  Note:
   9:.\Generated_Source\PSoC4/CyFlash.c **** *   This code is endian agnostic.
  10:.\Generated_Source\PSoC4/CyFlash.c **** *
  11:.\Generated_Source\PSoC4/CyFlash.c **** *  Note:
  12:.\Generated_Source\PSoC4/CyFlash.c **** *   Documentation of the API's in this file is located in the
  13:.\Generated_Source\PSoC4/CyFlash.c **** *   System Reference Guide provided with PSoC Creator.
  14:.\Generated_Source\PSoC4/CyFlash.c **** *
  15:.\Generated_Source\PSoC4/CyFlash.c **** ********************************************************************************
  16:.\Generated_Source\PSoC4/CyFlash.c **** * Copyright 2010-2013, Cypress Semiconductor Corporation.  All rights reserved.
  17:.\Generated_Source\PSoC4/CyFlash.c **** * You may use this file only in accordance with the license, terms, conditions,
  18:.\Generated_Source\PSoC4/CyFlash.c **** * disclaimers, and limitations in the end user license agreement accompanying
  19:.\Generated_Source\PSoC4/CyFlash.c **** * the software package with which this file was provided.
  20:.\Generated_Source\PSoC4/CyFlash.c **** *******************************************************************************/
  21:.\Generated_Source\PSoC4/CyFlash.c **** 
  22:.\Generated_Source\PSoC4/CyFlash.c **** #include "CyFlash.h"
  23:.\Generated_Source\PSoC4/CyFlash.c **** 
ARM GAS  C:\Users\asha\AppData\Local\Temp\ccEMnC6g.s 			page 2


  24:.\Generated_Source\PSoC4/CyFlash.c **** 
  25:.\Generated_Source\PSoC4/CyFlash.c **** /*******************************************************************************
  26:.\Generated_Source\PSoC4/CyFlash.c **** * Function Name: CySysFlashWriteRow
  27:.\Generated_Source\PSoC4/CyFlash.c **** ********************************************************************************
  28:.\Generated_Source\PSoC4/CyFlash.c **** *
  29:.\Generated_Source\PSoC4/CyFlash.c **** * Summary:
  30:.\Generated_Source\PSoC4/CyFlash.c **** *  Writes a row of Flash.
  31:.\Generated_Source\PSoC4/CyFlash.c **** *
  32:.\Generated_Source\PSoC4/CyFlash.c **** * Parameters:
  33:.\Generated_Source\PSoC4/CyFlash.c **** *  uint16 rowNum:
  34:.\Generated_Source\PSoC4/CyFlash.c **** *   Row number. Each row is 128 bytes so a 32KB flash memory will have a valid
  35:.\Generated_Source\PSoC4/CyFlash.c **** *   range of [0-255].
  36:.\Generated_Source\PSoC4/CyFlash.c **** *
  37:.\Generated_Source\PSoC4/CyFlash.c **** *  uint8* rowData:
  38:.\Generated_Source\PSoC4/CyFlash.c **** *   Array of bytes to write.
  39:.\Generated_Source\PSoC4/CyFlash.c **** *
  40:.\Generated_Source\PSoC4/CyFlash.c **** * Return:
  41:.\Generated_Source\PSoC4/CyFlash.c **** *  Status
  42:.\Generated_Source\PSoC4/CyFlash.c **** *     Value             Description
  43:.\Generated_Source\PSoC4/CyFlash.c **** *    CYRET_SUCCESS     Successful
  44:.\Generated_Source\PSoC4/CyFlash.c **** *    CYRET_LOCKED      Flash writing already in use
  45:.\Generated_Source\PSoC4/CyFlash.c **** *    CYRET_CANCELED    Command not accepted
  46:.\Generated_Source\PSoC4/CyFlash.c **** *    CYRET_BAD_PARAM   One or more invalid parameters
  47:.\Generated_Source\PSoC4/CyFlash.c **** *    Other non-zero    Failure
  48:.\Generated_Source\PSoC4/CyFlash.c **** *
  49:.\Generated_Source\PSoC4/CyFlash.c **** *******************************************************************************/
  50:.\Generated_Source\PSoC4/CyFlash.c **** cystatus CySysFlashWriteRow(uint32 rowNum, const uint8 rowData[])
  51:.\Generated_Source\PSoC4/CyFlash.c **** {
  52:.\Generated_Source\PSoC4/CyFlash.c ****     volatile cystatus retValue = CYRET_SUCCESS;
  53:.\Generated_Source\PSoC4/CyFlash.c ****     volatile uint32   *ptr;
  54:.\Generated_Source\PSoC4/CyFlash.c ****     volatile uint32   cpuValue;
  55:.\Generated_Source\PSoC4/CyFlash.c ****     volatile uint32   localData[(CY_FLASH_SIZEOF_ROW + CY_FLASH_SRAM_ROM_DATA)/4u];
  56:.\Generated_Source\PSoC4/CyFlash.c ****     volatile uint32   imoConfigReg;
  57:.\Generated_Source\PSoC4/CyFlash.c ****     uint8  interruptState;
  58:.\Generated_Source\PSoC4/CyFlash.c **** 
  59:.\Generated_Source\PSoC4/CyFlash.c ****     if ((rowNum < CY_FLASH_NUMBER_ROWS) && (rowData != 0u))
  60:.\Generated_Source\PSoC4/CyFlash.c ****     {
  61:.\Generated_Source\PSoC4/CyFlash.c ****         /* First load the data. Then invoke Write row command. */
  62:.\Generated_Source\PSoC4/CyFlash.c ****         ptr = &localData[CY_FLASH_SRAM_ROM_KEY1];
  63:.\Generated_Source\PSoC4/CyFlash.c **** 
  64:.\Generated_Source\PSoC4/CyFlash.c ****         CY_FLASH_CPUSS_SYSARG_REG = (uint32)ptr;
  65:.\Generated_Source\PSoC4/CyFlash.c **** 
  66:.\Generated_Source\PSoC4/CyFlash.c ****         #if(CY_FLASH_NUMBER_ROWS > 255u)
  67:.\Generated_Source\PSoC4/CyFlash.c ****             localData[CY_FLASH_SRAM_ROM_KEY1] = CY_FLASH_SROM_LOAD_CMD | (uint32)((rowNum & 0x100u)
  68:.\Generated_Source\PSoC4/CyFlash.c ****         #else
  69:.\Generated_Source\PSoC4/CyFlash.c ****             localData[CY_FLASH_SRAM_ROM_KEY1] = CY_FLASH_SROM_LOAD_CMD;
  70:.\Generated_Source\PSoC4/CyFlash.c ****         #endif /* (CY_FLASH_SIZEOF_ROW > 255) */
  71:.\Generated_Source\PSoC4/CyFlash.c **** 
  72:.\Generated_Source\PSoC4/CyFlash.c ****         localData[CY_FLASH_SRAM_ROM_PARAM2/4u] = ((uint32)(CYDEV_FLS_ROW_SIZE - 1u));
  73:.\Generated_Source\PSoC4/CyFlash.c **** 
  74:.\Generated_Source\PSoC4/CyFlash.c ****         /* Copy row data from 8bit to 32bit array with shift for CPUSS commands */
  75:.\Generated_Source\PSoC4/CyFlash.c ****         (void)memcpy((void *)&localData[CY_FLASH_SRAM_ROM_DATA/4u], rowData, CYDEV_FLS_ROW_SIZE);
  76:.\Generated_Source\PSoC4/CyFlash.c **** 
  77:.\Generated_Source\PSoC4/CyFlash.c ****         /* Perform sysreq load data, opcode 0x80000004h */
  78:.\Generated_Source\PSoC4/CyFlash.c ****         CY_FLASH_CPUSS_SYSREQ_REG = CY_FLASH_LOAD_BYTE_OPCODE | CY_FLASH_CPUSS_REQ_START;
  79:.\Generated_Source\PSoC4/CyFlash.c **** 
  80:.\Generated_Source\PSoC4/CyFlash.c ****         while((CY_FLASH_CPUSS_SYSREQ_REG & CY_FLASH_CPUSS_REQ_START) == CY_FLASH_CPUSS_REQ_START)
ARM GAS  C:\Users\asha\AppData\Local\Temp\ccEMnC6g.s 			page 3


  81:.\Generated_Source\PSoC4/CyFlash.c ****         {
  82:.\Generated_Source\PSoC4/CyFlash.c ****             /* Wait till the CY_FLASH_CPUSS_REQ_START bit goes low */
  83:.\Generated_Source\PSoC4/CyFlash.c ****         }
  84:.\Generated_Source\PSoC4/CyFlash.c **** 
  85:.\Generated_Source\PSoC4/CyFlash.c ****         /* Check if the value is written to the SRAM_BASE */
  86:.\Generated_Source\PSoC4/CyFlash.c ****         cpuValue = CY_FLASH_CPUSS_SYSARG_REG;
  87:.\Generated_Source\PSoC4/CyFlash.c ****         if (cpuValue == CY_FLASH_SROM_CMD_RETURN_SUCC)
  88:.\Generated_Source\PSoC4/CyFlash.c ****         {
  89:.\Generated_Source\PSoC4/CyFlash.c ****             retValue = CYRET_SUCCESS;
  90:.\Generated_Source\PSoC4/CyFlash.c ****         }
  91:.\Generated_Source\PSoC4/CyFlash.c ****         else if((cpuValue & CY_FLASH_SROM_CMD_RETURN_MASK) == CY_FLASH_SROM_CMD_RETURN_MASK)
  92:.\Generated_Source\PSoC4/CyFlash.c ****         {
  93:.\Generated_Source\PSoC4/CyFlash.c ****             /* Error value, cant proceed */
  94:.\Generated_Source\PSoC4/CyFlash.c ****             retValue = CYRET_CANCELED;
  95:.\Generated_Source\PSoC4/CyFlash.c ****         }
  96:.\Generated_Source\PSoC4/CyFlash.c ****         else
  97:.\Generated_Source\PSoC4/CyFlash.c ****         {
  98:.\Generated_Source\PSoC4/CyFlash.c ****             while((CY_FLASH_CPUSS_SYSARG_REG & CY_FLASH_SROM_CMD_RETURN_MASK) != CY_FLASH_SROM_CMD_
  99:.\Generated_Source\PSoC4/CyFlash.c ****             {
 100:.\Generated_Source\PSoC4/CyFlash.c ****                 /* Wait till the request is completed */
 101:.\Generated_Source\PSoC4/CyFlash.c ****             }
 102:.\Generated_Source\PSoC4/CyFlash.c ****         }
 103:.\Generated_Source\PSoC4/CyFlash.c **** 
 104:.\Generated_Source\PSoC4/CyFlash.c ****         if(retValue == CYRET_SUCCESS)
 105:.\Generated_Source\PSoC4/CyFlash.c ****         {
 106:.\Generated_Source\PSoC4/CyFlash.c ****             ptr = &localData[CY_FLASH_SRAM_ROM_KEY1/4u];
 107:.\Generated_Source\PSoC4/CyFlash.c ****             CY_FLASH_CPUSS_SYSARG_REG = (uint32)ptr;
 108:.\Generated_Source\PSoC4/CyFlash.c **** 
 109:.\Generated_Source\PSoC4/CyFlash.c ****             /* Write row command to SROM */
 110:.\Generated_Source\PSoC4/CyFlash.c ****             localData[CY_FLASH_SRAM_ROM_KEY1/4u] =  (uint32)(rowNum << 16u) | 
 111:.\Generated_Source\PSoC4/CyFlash.c ****                                                     (uint32)(CY_FLASH_SROM_KEY2_WRITE << 8u) | 
 112:.\Generated_Source\PSoC4/CyFlash.c ****                                                     CY_FLASH_SROM_KEY1;
 113:.\Generated_Source\PSoC4/CyFlash.c **** 
 114:.\Generated_Source\PSoC4/CyFlash.c ****             /* Mask all exceptions to guarantee that IMO configuration will be changed 
 115:.\Generated_Source\PSoC4/CyFlash.c ****             * in the atomic way. It will not affect syscall execution (flash row write) 
 116:.\Generated_Source\PSoC4/CyFlash.c ****             * since it is executed in the NMI context.
 117:.\Generated_Source\PSoC4/CyFlash.c ****             */
 118:.\Generated_Source\PSoC4/CyFlash.c ****             interruptState = CyEnterCriticalSection();
 119:.\Generated_Source\PSoC4/CyFlash.c **** 
 120:.\Generated_Source\PSoC4/CyFlash.c ****             /* Preserve IMO configuration that could be changed 
 121:.\Generated_Source\PSoC4/CyFlash.c ****             * during syscall execution (Cypress ID #150448).
 122:.\Generated_Source\PSoC4/CyFlash.c ****             */
 123:.\Generated_Source\PSoC4/CyFlash.c ****             imoConfigReg = CY_SYS_CLK_IMO_CONFIG_REG;
 124:.\Generated_Source\PSoC4/CyFlash.c **** 
 125:.\Generated_Source\PSoC4/CyFlash.c ****             /* Perform sysreq for Write row, opcode 0x80000005 */
 126:.\Generated_Source\PSoC4/CyFlash.c ****             CY_FLASH_CPUSS_SYSREQ_REG = CY_FLASH_WRITE_ROW_OPCODE | CY_FLASH_CPUSS_REQ_START;
 127:.\Generated_Source\PSoC4/CyFlash.c **** 
 128:.\Generated_Source\PSoC4/CyFlash.c ****             while((CY_FLASH_CPUSS_SYSREQ_REG & CY_FLASH_CPUSS_REQ_START) == CY_FLASH_CPUSS_REQ_STAR
 129:.\Generated_Source\PSoC4/CyFlash.c ****             {
 130:.\Generated_Source\PSoC4/CyFlash.c ****                 /* Wait till the CY_FLASH_CPUSS_REQ_START bit goes low */
 131:.\Generated_Source\PSoC4/CyFlash.c ****             }
 132:.\Generated_Source\PSoC4/CyFlash.c **** 
 133:.\Generated_Source\PSoC4/CyFlash.c ****             /* Restore IMO configuration */
 134:.\Generated_Source\PSoC4/CyFlash.c ****             CY_SYS_CLK_IMO_CONFIG_REG = imoConfigReg;
 135:.\Generated_Source\PSoC4/CyFlash.c **** 
 136:.\Generated_Source\PSoC4/CyFlash.c ****             CyExitCriticalSection(interruptState);
 137:.\Generated_Source\PSoC4/CyFlash.c **** 
ARM GAS  C:\Users\asha\AppData\Local\Temp\ccEMnC6g.s 			page 4


 138:.\Generated_Source\PSoC4/CyFlash.c ****             cpuValue = CY_FLASH_CPUSS_SYSARG_REG;
 139:.\Generated_Source\PSoC4/CyFlash.c ****             if (cpuValue != CY_FLASH_SROM_CMD_RETURN_SUCC)
 140:.\Generated_Source\PSoC4/CyFlash.c ****             {
 141:.\Generated_Source\PSoC4/CyFlash.c ****                 retValue = cpuValue;
 142:.\Generated_Source\PSoC4/CyFlash.c ****             }
 143:.\Generated_Source\PSoC4/CyFlash.c ****         }
 144:.\Generated_Source\PSoC4/CyFlash.c ****     }
 145:.\Generated_Source\PSoC4/CyFlash.c ****     else
 146:.\Generated_Source\PSoC4/CyFlash.c ****     {
 147:.\Generated_Source\PSoC4/CyFlash.c ****         retValue = CYRET_BAD_PARAM;
 148:.\Generated_Source\PSoC4/CyFlash.c ****     }
 149:.\Generated_Source\PSoC4/CyFlash.c **** 
 150:.\Generated_Source\PSoC4/CyFlash.c ****     return (retValue);
 151:.\Generated_Source\PSoC4/CyFlash.c **** }
 152:.\Generated_Source\PSoC4/CyFlash.c **** 
 153:.\Generated_Source\PSoC4/CyFlash.c **** 
 154:.\Generated_Source\PSoC4/CyFlash.c **** /*******************************************************************************
 155:.\Generated_Source\PSoC4/CyFlash.c **** * Function Name: CySysFlashSetWaitCycles
 156:.\Generated_Source\PSoC4/CyFlash.c **** ********************************************************************************
 157:.\Generated_Source\PSoC4/CyFlash.c **** *
 158:.\Generated_Source\PSoC4/CyFlash.c **** * Summary:
 159:.\Generated_Source\PSoC4/CyFlash.c **** *  Sets the number of clock cycles the cache will wait before it samples data
 160:.\Generated_Source\PSoC4/CyFlash.c **** *  coming back from Flash. This function must be called before increasing SYSCLK
 161:.\Generated_Source\PSoC4/CyFlash.c **** *  clock frequency. It can optionally be called after lowering SYSCLK clock
 162:.\Generated_Source\PSoC4/CyFlash.c **** *  frequency in order to improve CPU performance.
 163:.\Generated_Source\PSoC4/CyFlash.c **** *
 164:.\Generated_Source\PSoC4/CyFlash.c **** * Parameters:
 165:.\Generated_Source\PSoC4/CyFlash.c **** *  freq: Valid range [3-48].  Frequency for operation of the IMO.
 166:.\Generated_Source\PSoC4/CyFlash.c **** *  Note: Invalid frequency will be ignored.
 167:.\Generated_Source\PSoC4/CyFlash.c **** *
 168:.\Generated_Source\PSoC4/CyFlash.c **** * Return:
 169:.\Generated_Source\PSoC4/CyFlash.c **** *  None
 170:.\Generated_Source\PSoC4/CyFlash.c **** *
 171:.\Generated_Source\PSoC4/CyFlash.c **** *******************************************************************************/
 172:.\Generated_Source\PSoC4/CyFlash.c **** void CySysFlashSetWaitCycles(uint32 freq)
 173:.\Generated_Source\PSoC4/CyFlash.c **** {
  31              		.loc 1 173 0
  32              		.cfi_startproc
  33 0000 08B5     		push	{r3, lr}
  34              	.LCFI0:
  35              		.cfi_def_cfa_offset 8
  36              		.cfi_offset 3, -8
  37              		.cfi_offset 14, -4
  38              	.LVL0:
 174:.\Generated_Source\PSoC4/CyFlash.c ****     if ((freq >= CY_SYS_CLK_IMO_MIN_FREQ_MHZ) && (freq <= CY_SYS_CLK_IMO_MAX_FREQ_MHZ))
  39              		.loc 1 174 0
  40 0002 C31E     		sub	r3, r0, #3
  41 0004 2D2B     		cmp	r3, #45
  42 0006 0ED8     		bhi	.L2
 175:.\Generated_Source\PSoC4/CyFlash.c ****     {
 176:.\Generated_Source\PSoC4/CyFlash.c ****         if ( freq <= CY_FLASH_SYSCLK_BOUNDARY_MHZ )
  43              		.loc 1 176 0
  44 0008 1828     		cmp	r0, #24
  45 000a 06D9     		bls	.L7
 177:.\Generated_Source\PSoC4/CyFlash.c ****         {
 178:.\Generated_Source\PSoC4/CyFlash.c ****             CY_SYS_CLK_SELECT_REG &= (uint32)(~CY_FLASH_WAIT_STATE_EN);
 179:.\Generated_Source\PSoC4/CyFlash.c ****         }
ARM GAS  C:\Users\asha\AppData\Local\Temp\ccEMnC6g.s 			page 5


 180:.\Generated_Source\PSoC4/CyFlash.c ****         else
 181:.\Generated_Source\PSoC4/CyFlash.c ****         {
 182:.\Generated_Source\PSoC4/CyFlash.c ****             CY_SYS_CLK_SELECT_REG |= CY_FLASH_WAIT_STATE_EN;
  46              		.loc 1 182 0
  47 000c 084A     		ldr	r2, .L8
  48 000e 8021     		mov	r1, #128
  49 0010 1068     		ldr	r0, [r2]
  50              	.LVL1:
  51 0012 CB02     		lsl	r3, r1, #11
  52 0014 0343     		orr	r3, r3, r0
  53 0016 1360     		str	r3, [r2]
  54              	.L5:
 183:.\Generated_Source\PSoC4/CyFlash.c ****         }
 184:.\Generated_Source\PSoC4/CyFlash.c ****     }
 185:.\Generated_Source\PSoC4/CyFlash.c ****     else
 186:.\Generated_Source\PSoC4/CyFlash.c ****     {
 187:.\Generated_Source\PSoC4/CyFlash.c ****         /* Halt CPU in debug mode if frequency is invalid */
 188:.\Generated_Source\PSoC4/CyFlash.c ****         CYASSERT(0u != 0u);
 189:.\Generated_Source\PSoC4/CyFlash.c ****     }
 190:.\Generated_Source\PSoC4/CyFlash.c **** }
  55              		.loc 1 190 0
  56              		@ sp needed for prologue
  57 0018 08BD     		pop	{r3, pc}
  58              	.LVL2:
  59              	.L7:
  60              		.loc 1 178 0
  61 001a 0548     		ldr	r0, .L8
  62              	.LVL3:
  63 001c 054A     		ldr	r2, .L8+4
  64 001e 0168     		ldr	r1, [r0]
  65 0020 0A40     		and	r2, r2, r1
  66 0022 0260     		str	r2, [r0]
  67 0024 F8E7     		b	.L5
  68              	.LVL4:
  69              	.L2:
  70              		.loc 1 188 0
  71 0026 0020     		mov	r0, #0
  72              	.LVL5:
  73 0028 FFF7FEFF 		bl	CyHalt
  74 002c F4E7     		b	.L5
  75              	.L9:
  76 002e C046     		.align	2
  77              	.L8:
  78 0030 00010B40 		.word	1074462976
  79 0034 FFFFFBFF 		.word	-262145
  80              		.cfi_endproc
  81              	.LFE1:
  82              		.size	CySysFlashSetWaitCycles, .-CySysFlashSetWaitCycles
  83              		.section	.text.CySysFlashWriteRow,"ax",%progbits
  84              		.align	2
  85              		.global	CySysFlashWriteRow
  86              		.code	16
  87              		.thumb_func
  88              		.type	CySysFlashWriteRow, %function
  89              	CySysFlashWriteRow:
  90              	.LFB0:
  91              		.loc 1 51 0
ARM GAS  C:\Users\asha\AppData\Local\Temp\ccEMnC6g.s 			page 6


  92              		.cfi_startproc
  93 0000 30B5     		push	{r4, r5, lr}
  94              	.LCFI1:
  95              		.cfi_def_cfa_offset 12
  96              		.cfi_offset 4, -12
  97              		.cfi_offset 5, -8
  98              		.cfi_offset 14, -4
  99              	.LVL6:
 100 0002 A7B0     		sub	sp, sp, #156
 101              	.LCFI2:
 102              		.cfi_def_cfa_offset 168
 103              		.loc 1 52 0
 104 0004 0023     		mov	r3, #0
 105              		.loc 1 51 0
 106 0006 041C     		mov	r4, r0
 107              		.loc 1 52 0
 108 0008 2593     		str	r3, [sp, #148]
 109              	.LVL7:
 110              		.loc 1 59 0
 111 000a 0029     		cmp	r1, #0
 112 000c 4ED0     		beq	.L11
 113              	.LVL8:
 114 000e FF28     		cmp	r0, #255
 115 0010 4CD8     		bhi	.L11
 116              	.LVL9:
 117              		.loc 1 64 0
 118 0012 2C48     		ldr	r0, .L25
 119              	.LVL10:
 120              		.loc 1 67 0
 121 0014 8023     		mov	r3, #128
 122              		.loc 1 64 0
 123 0016 01AD     		add	r5, sp, #4
 124              		.loc 1 67 0
 125 0018 5A00     		lsl	r2, r3, #1
 126              		.loc 1 64 0
 127 001a 0560     		str	r5, [r0]
 128              		.loc 1 67 0
 129 001c 2240     		and	r2, r2, r4
 130 001e 2A48     		ldr	r0, .L25+4
 131 0020 1304     		lsl	r3, r2, #16
 132 0022 0343     		orr	r3, r3, r0
 133              		.loc 1 72 0
 134 0024 7F22     		mov	r2, #127
 135              		.loc 1 67 0
 136 0026 0193     		str	r3, [sp, #4]
 137              		.loc 1 75 0
 138 0028 03A8     		add	r0, sp, #12
 139              		.loc 1 72 0
 140 002a 6A60     		str	r2, [r5, #4]
 141              		.loc 1 75 0
 142 002c 8022     		mov	r2, #128
 143 002e FFF7FEFF 		bl	memcpy
 144              	.LVL11:
 145              		.loc 1 78 0
 146 0032 264A     		ldr	r2, .L25+8
 147 0034 2648     		ldr	r0, .L25+12
 148 0036 1060     		str	r0, [r2]
ARM GAS  C:\Users\asha\AppData\Local\Temp\ccEMnC6g.s 			page 7


 149              	.L12:
 150              		.loc 1 80 0
 151 0038 1168     		ldr	r1, [r2]
 152 003a 0029     		cmp	r1, #0
 153 003c FCDB     		blt	.L12
 154              		.loc 1 86 0
 155 003e 2148     		ldr	r0, .L25
 156              		.loc 1 87 0
 157 0040 A023     		mov	r3, #160
 158              		.loc 1 86 0
 159 0042 0168     		ldr	r1, [r0]
 160              	.LVL12:
 161              		.loc 1 87 0
 162 0044 1B06     		lsl	r3, r3, #24
 163              		.loc 1 86 0
 164 0046 2491     		str	r1, [sp, #144]
 165              		.loc 1 87 0
 166 0048 249A     		ldr	r2, [sp, #144]
 167 004a 9A42     		cmp	r2, r3
 168 004c 36D0     		beq	.L23
 169              	.LVL13:
 170              		.loc 1 91 0
 171 004e 249A     		ldr	r2, [sp, #144]
 172 0050 F021     		mov	r1, #240
 173 0052 0906     		lsl	r1, r1, #24
 174 0054 0A40     		and	r2, r2, r1
 175 0056 8A42     		cmp	r2, r1
 176 0058 2DD0     		beq	.L24
 177              		.loc 1 98 0
 178 005a 1A1C     		mov	r2, r3
 179              	.L19:
 180 005c 0368     		ldr	r3, [r0]
 181 005e 0B40     		and	r3, r3, r1
 182 0060 9342     		cmp	r3, r2
 183 0062 FBD1     		bne	.L19
 184              	.LVL14:
 185              	.L14:
 186              		.loc 1 104 0
 187 0064 2598     		ldr	r0, [sp, #148]
 188 0066 0028     		cmp	r0, #0
 189 0068 22D1     		bne	.L16
 190              	.LVL15:
 191              		.loc 1 107 0
 192 006a 1648     		ldr	r0, .L25
 193              		.loc 1 110 0
 194 006c 194B     		ldr	r3, .L25+16
 195 006e 2104     		lsl	r1, r4, #16
 196              		.loc 1 107 0
 197 0070 0560     		str	r5, [r0]
 198              		.loc 1 110 0
 199 0072 1943     		orr	r1, r1, r3
 200 0074 0191     		str	r1, [sp, #4]
 201              		.loc 1 118 0
 202 0076 FFF7FEFF 		bl	CyEnterCriticalSection
 203              		.loc 1 123 0
 204 007a 174A     		ldr	r2, .L25+20
 205              		.loc 1 126 0
ARM GAS  C:\Users\asha\AppData\Local\Temp\ccEMnC6g.s 			page 8


 206 007c 174C     		ldr	r4, .L25+24
 207              	.LVL16:
 208              		.loc 1 123 0
 209 007e 1568     		ldr	r5, [r2]
 210              	.LVL17:
 211              		.loc 1 126 0
 212 0080 124A     		ldr	r2, .L25+8
 213              		.loc 1 123 0
 214 0082 2395     		str	r5, [sp, #140]
 215              		.loc 1 126 0
 216 0084 1460     		str	r4, [r2]
 217              	.LVL18:
 218              	.L17:
 219              		.loc 1 128 0
 220 0086 1468     		ldr	r4, [r2]
 221 0088 002C     		cmp	r4, #0
 222 008a FCDB     		blt	.L17
 223              		.loc 1 134 0
 224 008c 239C     		ldr	r4, [sp, #140]
 225 008e 124D     		ldr	r5, .L25+20
 226 0090 2C60     		str	r4, [r5]
 227              		.loc 1 136 0
 228 0092 FFF7FEFF 		bl	CyExitCriticalSection
 229              		.loc 1 138 0
 230 0096 0B48     		ldr	r0, .L25
 231              		.loc 1 139 0
 232 0098 A022     		mov	r2, #160
 233              		.loc 1 138 0
 234 009a 0168     		ldr	r1, [r0]
 235              	.LVL19:
 236              		.loc 1 139 0
 237 009c 1306     		lsl	r3, r2, #24
 238              		.loc 1 138 0
 239 009e 2491     		str	r1, [sp, #144]
 240              		.loc 1 139 0
 241 00a0 249D     		ldr	r5, [sp, #144]
 242 00a2 9D42     		cmp	r5, r3
 243 00a4 04D0     		beq	.L16
 244              	.LVL20:
 245              		.loc 1 141 0
 246 00a6 249B     		ldr	r3, [sp, #144]
 247              	.LVL21:
 248 00a8 2593     		str	r3, [sp, #148]
 249 00aa 01E0     		b	.L16
 250              	.LVL22:
 251              	.L11:
 252              		.loc 1 147 0
 253 00ac 0122     		mov	r2, #1
 254 00ae 2592     		str	r2, [sp, #148]
 255              	.LVL23:
 256              	.L16:
 257              		.loc 1 150 0
 258 00b0 2598     		ldr	r0, [sp, #148]
 259              		.loc 1 151 0
 260 00b2 27B0     		add	sp, sp, #156
 261              		@ sp needed for prologue
 262              	.LVL24:
ARM GAS  C:\Users\asha\AppData\Local\Temp\ccEMnC6g.s 			page 9


 263 00b4 30BD     		pop	{r4, r5, pc}
 264              	.LVL25:
 265              	.L24:
 266              		.loc 1 94 0
 267 00b6 0923     		mov	r3, #9
 268 00b8 2593     		str	r3, [sp, #148]
 269              	.LVL26:
 270 00ba D3E7     		b	.L14
 271              	.LVL27:
 272              	.L23:
 273              		.loc 1 89 0
 274 00bc 0020     		mov	r0, #0
 275 00be 2590     		str	r0, [sp, #148]
 276              	.LVL28:
 277 00c0 D0E7     		b	.L14
 278              	.L26:
 279 00c2 C046     		.align	2
 280              	.L25:
 281 00c4 08000040 		.word	1073741832
 282 00c8 B6D70000 		.word	55222
 283 00cc 04000040 		.word	1073741828
 284 00d0 04000080 		.word	-2147483644
 285 00d4 B6D80000 		.word	55478
 286 00d8 08010B40 		.word	1074462984
 287 00dc 05000080 		.word	-2147483643
 288              		.cfi_endproc
 289              	.LFE0:
 290              		.size	CySysFlashWriteRow, .-CySysFlashWriteRow
 291              		.text
 292              	.Letext0: