ARM GAS  C:\Users\asha\AppData\Local\Temp\ccSrRbz4.s 			page 1


   1              		.cpu cortex-m0
   2              		.fpu softvfp
   3              		.eabi_attribute 20, 1
   4              		.eabi_attribute 21, 1
   5              		.eabi_attribute 23, 3
   6              		.eabi_attribute 24, 1
   7              		.eabi_attribute 25, 1
   8              		.eabi_attribute 26, 1
   9              		.eabi_attribute 30, 2
  10              		.eabi_attribute 18, 4
  11              		.code	16
  12              		.file	"CyLib.c"
  13              		.section	.debug_abbrev,"",%progbits
  14              	.Ldebug_abbrev0:
  15              		.section	.debug_info,"",%progbits
  16              	.Ldebug_info0:
  17              		.section	.debug_line,"",%progbits
  18              	.Ldebug_line0:
  19 0000 A5050000 		.text
  19      02005E00 
  19      00000201 
  19      FB0E0D00 
  19      01010101 
  20              	.Ltext0:
  21              		.cfi_sections	.debug_frame
  22              		.section	.text.CySysClkImoStart,"ax",%progbits
  23              		.align	2
  24              		.global	CySysClkImoStart
  25              		.code	16
  26              		.thumb_func
  27              		.type	CySysClkImoStart, %function
  28              	CySysClkImoStart:
  29              	.LFB0:
  30              		.file 1 ".\\Generated_Source\\PSoC4\\CyLib.c"
   1:.\Generated_Source\PSoC4/CyLib.c **** /*******************************************************************************
   2:.\Generated_Source\PSoC4/CyLib.c **** * File Name: CyLib.c
   3:.\Generated_Source\PSoC4/CyLib.c **** * Version 3.40
   4:.\Generated_Source\PSoC4/CyLib.c **** *
   5:.\Generated_Source\PSoC4/CyLib.c **** *  Description:
   6:.\Generated_Source\PSoC4/CyLib.c **** *   Provides system API for the clocking, interrupts and watchdog timer.
   7:.\Generated_Source\PSoC4/CyLib.c **** *
   8:.\Generated_Source\PSoC4/CyLib.c **** *  Note:
   9:.\Generated_Source\PSoC4/CyLib.c **** *   Documentation of the API's in this file is located in the
  10:.\Generated_Source\PSoC4/CyLib.c **** *   System Reference Guide provided with PSoC Creator.
  11:.\Generated_Source\PSoC4/CyLib.c **** *
  12:.\Generated_Source\PSoC4/CyLib.c **** ********************************************************************************
  13:.\Generated_Source\PSoC4/CyLib.c **** * Copyright 2010-2013, Cypress Semiconductor Corporation.  All rights reserved.
  14:.\Generated_Source\PSoC4/CyLib.c **** * You may use this file only in accordance with the license, terms, conditions,
  15:.\Generated_Source\PSoC4/CyLib.c **** * disclaimers, and limitations in the end user license agreement accompanying
  16:.\Generated_Source\PSoC4/CyLib.c **** * the software package with which this file was provided.
  17:.\Generated_Source\PSoC4/CyLib.c **** *******************************************************************************/
  18:.\Generated_Source\PSoC4/CyLib.c **** 
  19:.\Generated_Source\PSoC4/CyLib.c **** #include "CyLib.h"
  20:.\Generated_Source\PSoC4/CyLib.c **** 
  21:.\Generated_Source\PSoC4/CyLib.c **** 
  22:.\Generated_Source\PSoC4/CyLib.c **** /* Do not use these definitions directly in your application */
  23:.\Generated_Source\PSoC4/CyLib.c **** uint32 cydelayFreqHz  = CYDEV_BCLK__SYSCLK__HZ;
ARM GAS  C:\Users\asha\AppData\Local\Temp\ccSrRbz4.s 			page 2


  24:.\Generated_Source\PSoC4/CyLib.c **** uint32 cydelayFreqKhz = (CYDEV_BCLK__SYSCLK__HZ + CY_DELAY_1K_MINUS_1_THRESHOLD) / CY_DELAY_1K_THRE
  25:.\Generated_Source\PSoC4/CyLib.c **** uint8  cydelayFreqMhz = (uint8)((CYDEV_BCLK__SYSCLK__HZ + CY_DELAY_1M_MINUS_1_THRESHOLD) / CY_DELAY
  26:.\Generated_Source\PSoC4/CyLib.c **** uint32 cydelay32kMs   = CY_DELAY_MS_OVERFLOW * ((CYDEV_BCLK__SYSCLK__HZ + CY_DELAY_1K_MINUS_1_THRES
  27:.\Generated_Source\PSoC4/CyLib.c ****                         CY_DELAY_1K_THRESHOLD);
  28:.\Generated_Source\PSoC4/CyLib.c **** 
  29:.\Generated_Source\PSoC4/CyLib.c **** 
  30:.\Generated_Source\PSoC4/CyLib.c **** /*******************************************************************************
  31:.\Generated_Source\PSoC4/CyLib.c **** * Function Name: CySysClkImoStart
  32:.\Generated_Source\PSoC4/CyLib.c **** ********************************************************************************
  33:.\Generated_Source\PSoC4/CyLib.c **** *
  34:.\Generated_Source\PSoC4/CyLib.c **** * Summary:
  35:.\Generated_Source\PSoC4/CyLib.c **** *  Enables the IMO.
  36:.\Generated_Source\PSoC4/CyLib.c **** *
  37:.\Generated_Source\PSoC4/CyLib.c **** * Parameters:
  38:.\Generated_Source\PSoC4/CyLib.c **** *  None
  39:.\Generated_Source\PSoC4/CyLib.c **** *
  40:.\Generated_Source\PSoC4/CyLib.c **** * Return:
  41:.\Generated_Source\PSoC4/CyLib.c **** *  None
  42:.\Generated_Source\PSoC4/CyLib.c **** *
  43:.\Generated_Source\PSoC4/CyLib.c **** *******************************************************************************/
  44:.\Generated_Source\PSoC4/CyLib.c **** void CySysClkImoStart(void)
  45:.\Generated_Source\PSoC4/CyLib.c **** {
  31              		.loc 1 45 0
  32              		.cfi_startproc
  46:.\Generated_Source\PSoC4/CyLib.c ****     CY_SYS_CLK_IMO_CONFIG_REG |= CY_SYS_CLK_IMO_CONFIG_ENABLE;
  33              		.loc 1 46 0
  34 0000 034A     		ldr	r2, .L3
  35 0002 8020     		mov	r0, #128
  36 0004 1168     		ldr	r1, [r2]
  37 0006 0306     		lsl	r3, r0, #24
  38 0008 0B43     		orr	r3, r3, r1
  39 000a 1360     		str	r3, [r2]
  47:.\Generated_Source\PSoC4/CyLib.c **** }
  40              		.loc 1 47 0
  41              		@ sp needed for prologue
  42 000c 7047     		bx	lr
  43              	.L4:
  44 000e C046     		.align	2
  45              	.L3:
  46 0010 08010B40 		.word	1074462984
  47              		.cfi_endproc
  48              	.LFE0:
  49              		.size	CySysClkImoStart, .-CySysClkImoStart
  50              		.section	.text.CySysClkImoStop,"ax",%progbits
  51              		.align	2
  52              		.global	CySysClkImoStop
  53              		.code	16
  54              		.thumb_func
  55              		.type	CySysClkImoStop, %function
  56              	CySysClkImoStop:
  57              	.LFB1:
  48:.\Generated_Source\PSoC4/CyLib.c **** 
  49:.\Generated_Source\PSoC4/CyLib.c **** 
  50:.\Generated_Source\PSoC4/CyLib.c **** /*******************************************************************************
  51:.\Generated_Source\PSoC4/CyLib.c **** * Function Name: CySysClkImoStop
  52:.\Generated_Source\PSoC4/CyLib.c **** ********************************************************************************
  53:.\Generated_Source\PSoC4/CyLib.c **** *
ARM GAS  C:\Users\asha\AppData\Local\Temp\ccSrRbz4.s 			page 3


  54:.\Generated_Source\PSoC4/CyLib.c **** * Summary:
  55:.\Generated_Source\PSoC4/CyLib.c **** *  Disables the IMO.
  56:.\Generated_Source\PSoC4/CyLib.c **** *
  57:.\Generated_Source\PSoC4/CyLib.c **** * Parameters:
  58:.\Generated_Source\PSoC4/CyLib.c **** *  None
  59:.\Generated_Source\PSoC4/CyLib.c **** *
  60:.\Generated_Source\PSoC4/CyLib.c **** * Return:
  61:.\Generated_Source\PSoC4/CyLib.c **** *  None
  62:.\Generated_Source\PSoC4/CyLib.c **** *
  63:.\Generated_Source\PSoC4/CyLib.c **** *******************************************************************************/
  64:.\Generated_Source\PSoC4/CyLib.c **** void CySysClkImoStop(void)
  65:.\Generated_Source\PSoC4/CyLib.c **** {
  58              		.loc 1 65 0
  59              		.cfi_startproc
  66:.\Generated_Source\PSoC4/CyLib.c ****     CY_SYS_CLK_IMO_CONFIG_REG &= ( uint32 ) ( ~( uint32 )CY_SYS_CLK_IMO_CONFIG_ENABLE);
  60              		.loc 1 66 0
  61 0000 024B     		ldr	r3, .L7
  62 0002 034A     		ldr	r2, .L7+4
  63 0004 1968     		ldr	r1, [r3]
  67:.\Generated_Source\PSoC4/CyLib.c **** }
  64              		.loc 1 67 0
  65              		@ sp needed for prologue
  66              		.loc 1 66 0
  67 0006 0A40     		and	r2, r2, r1
  68 0008 1A60     		str	r2, [r3]
  69              		.loc 1 67 0
  70 000a 7047     		bx	lr
  71              	.L8:
  72              		.align	2
  73              	.L7:
  74 000c 08010B40 		.word	1074462984
  75 0010 FFFFFF7F 		.word	2147483647
  76              		.cfi_endproc
  77              	.LFE1:
  78              		.size	CySysClkImoStop, .-CySysClkImoStop
  79              		.section	.text.CySysClkIloStart,"ax",%progbits
  80              		.align	2
  81              		.global	CySysClkIloStart
  82              		.code	16
  83              		.thumb_func
  84              		.type	CySysClkIloStart, %function
  85              	CySysClkIloStart:
  86              	.LFB2:
  68:.\Generated_Source\PSoC4/CyLib.c **** 
  69:.\Generated_Source\PSoC4/CyLib.c **** 
  70:.\Generated_Source\PSoC4/CyLib.c **** /*******************************************************************************
  71:.\Generated_Source\PSoC4/CyLib.c **** * Function Name: CySysClkIloStart
  72:.\Generated_Source\PSoC4/CyLib.c **** ********************************************************************************
  73:.\Generated_Source\PSoC4/CyLib.c **** *
  74:.\Generated_Source\PSoC4/CyLib.c **** * Summary:
  75:.\Generated_Source\PSoC4/CyLib.c **** *  Enables the ILO.
  76:.\Generated_Source\PSoC4/CyLib.c **** *
  77:.\Generated_Source\PSoC4/CyLib.c **** * Parameters:
  78:.\Generated_Source\PSoC4/CyLib.c **** *  None
  79:.\Generated_Source\PSoC4/CyLib.c **** *
  80:.\Generated_Source\PSoC4/CyLib.c **** * Return:
  81:.\Generated_Source\PSoC4/CyLib.c **** *  None
ARM GAS  C:\Users\asha\AppData\Local\Temp\ccSrRbz4.s 			page 4


  82:.\Generated_Source\PSoC4/CyLib.c **** *
  83:.\Generated_Source\PSoC4/CyLib.c **** *******************************************************************************/
  84:.\Generated_Source\PSoC4/CyLib.c **** void CySysClkIloStart(void)
  85:.\Generated_Source\PSoC4/CyLib.c **** {
  87              		.loc 1 85 0
  88              		.cfi_startproc
  86:.\Generated_Source\PSoC4/CyLib.c ****     CY_SYS_CLK_ILO_CONFIG_REG |= CY_SYS_CLK_ILO_CONFIG_ENABLE;
  89              		.loc 1 86 0
  90 0000 034A     		ldr	r2, .L11
  91 0002 8020     		mov	r0, #128
  92 0004 1168     		ldr	r1, [r2]
  93 0006 0306     		lsl	r3, r0, #24
  94 0008 0B43     		orr	r3, r3, r1
  95 000a 1360     		str	r3, [r2]
  87:.\Generated_Source\PSoC4/CyLib.c **** }
  96              		.loc 1 87 0
  97              		@ sp needed for prologue
  98 000c 7047     		bx	lr
  99              	.L12:
 100 000e C046     		.align	2
 101              	.L11:
 102 0010 04010B40 		.word	1074462980
 103              		.cfi_endproc
 104              	.LFE2:
 105              		.size	CySysClkIloStart, .-CySysClkIloStart
 106              		.section	.text.CySysClkIloStop,"ax",%progbits
 107              		.align	2
 108              		.global	CySysClkIloStop
 109              		.code	16
 110              		.thumb_func
 111              		.type	CySysClkIloStop, %function
 112              	CySysClkIloStop:
 113              	.LFB3:
  88:.\Generated_Source\PSoC4/CyLib.c **** 
  89:.\Generated_Source\PSoC4/CyLib.c **** 
  90:.\Generated_Source\PSoC4/CyLib.c **** /*******************************************************************************
  91:.\Generated_Source\PSoC4/CyLib.c **** * Function Name: CySysClkIloStop
  92:.\Generated_Source\PSoC4/CyLib.c **** ********************************************************************************
  93:.\Generated_Source\PSoC4/CyLib.c **** *
  94:.\Generated_Source\PSoC4/CyLib.c **** * Summary:
  95:.\Generated_Source\PSoC4/CyLib.c **** *  Disables the ILO.
  96:.\Generated_Source\PSoC4/CyLib.c **** *
  97:.\Generated_Source\PSoC4/CyLib.c **** * Parameters:
  98:.\Generated_Source\PSoC4/CyLib.c **** *  None
  99:.\Generated_Source\PSoC4/CyLib.c **** *
 100:.\Generated_Source\PSoC4/CyLib.c **** * Return:
 101:.\Generated_Source\PSoC4/CyLib.c **** *  None
 102:.\Generated_Source\PSoC4/CyLib.c **** *
 103:.\Generated_Source\PSoC4/CyLib.c **** * Side Effects:
 104:.\Generated_Source\PSoC4/CyLib.c **** *  This function will have no effect if WDT is locked (CySysWdtLock() is
 105:.\Generated_Source\PSoC4/CyLib.c **** *  called). Call CySysWdtUnlock() to unlock WDT and be able to stop ILO.
 106:.\Generated_Source\PSoC4/CyLib.c **** *  Note that ILO is required for WDT's operation.
 107:.\Generated_Source\PSoC4/CyLib.c **** *
 108:.\Generated_Source\PSoC4/CyLib.c **** *******************************************************************************/
 109:.\Generated_Source\PSoC4/CyLib.c **** void CySysClkIloStop(void)
 110:.\Generated_Source\PSoC4/CyLib.c **** {
 114              		.loc 1 110 0
ARM GAS  C:\Users\asha\AppData\Local\Temp\ccSrRbz4.s 			page 5


 115              		.cfi_startproc
 111:.\Generated_Source\PSoC4/CyLib.c ****     CY_SYS_CLK_ILO_CONFIG_REG &= ( uint32 ) ( ~( uint32 )CY_SYS_CLK_ILO_CONFIG_ENABLE);
 116              		.loc 1 111 0
 117 0000 024B     		ldr	r3, .L15
 118 0002 034A     		ldr	r2, .L15+4
 119 0004 1968     		ldr	r1, [r3]
 112:.\Generated_Source\PSoC4/CyLib.c **** }
 120              		.loc 1 112 0
 121              		@ sp needed for prologue
 122              		.loc 1 111 0
 123 0006 0A40     		and	r2, r2, r1
 124 0008 1A60     		str	r2, [r3]
 125              		.loc 1 112 0
 126 000a 7047     		bx	lr
 127              	.L16:
 128              		.align	2
 129              	.L15:
 130 000c 04010B40 		.word	1074462980
 131 0010 FFFFFF7F 		.word	2147483647
 132              		.cfi_endproc
 133              	.LFE3:
 134              		.size	CySysClkIloStop, .-CySysClkIloStop
 135              		.section	.text.CySysClkWriteHfclkDirect,"ax",%progbits
 136              		.align	2
 137              		.global	CySysClkWriteHfclkDirect
 138              		.code	16
 139              		.thumb_func
 140              		.type	CySysClkWriteHfclkDirect, %function
 141              	CySysClkWriteHfclkDirect:
 142              	.LFB4:
 113:.\Generated_Source\PSoC4/CyLib.c **** 
 114:.\Generated_Source\PSoC4/CyLib.c **** 
 115:.\Generated_Source\PSoC4/CyLib.c **** /*******************************************************************************
 116:.\Generated_Source\PSoC4/CyLib.c **** * Function Name: CySysClkWriteHfclkDirect
 117:.\Generated_Source\PSoC4/CyLib.c **** ********************************************************************************
 118:.\Generated_Source\PSoC4/CyLib.c **** *
 119:.\Generated_Source\PSoC4/CyLib.c **** * Summary:
 120:.\Generated_Source\PSoC4/CyLib.c **** *  Selects the direct source for the HFCLK.
 121:.\Generated_Source\PSoC4/CyLib.c **** *
 122:.\Generated_Source\PSoC4/CyLib.c **** * Parameters:
 123:.\Generated_Source\PSoC4/CyLib.c **** *  clkSelect: One of the available HFCLK direct sources:
 124:.\Generated_Source\PSoC4/CyLib.c **** *   Value        Define                    Source
 125:.\Generated_Source\PSoC4/CyLib.c **** *    0            CY_SYS_CLK_HFCLK_IMO      IMO
 126:.\Generated_Source\PSoC4/CyLib.c **** *    1            CY_SYS_CLK_HFCLK_EXTCLK   External clock pin
 127:.\Generated_Source\PSoC4/CyLib.c **** *
 128:.\Generated_Source\PSoC4/CyLib.c **** * Return:
 129:.\Generated_Source\PSoC4/CyLib.c **** *  None
 130:.\Generated_Source\PSoC4/CyLib.c **** *
 131:.\Generated_Source\PSoC4/CyLib.c **** * Side Effects:
 132:.\Generated_Source\PSoC4/CyLib.c **** *  The new source must be running and stable before calling this function.
 133:.\Generated_Source\PSoC4/CyLib.c **** *  Direct source is default option for HFCLK.
 134:.\Generated_Source\PSoC4/CyLib.c **** *
 135:.\Generated_Source\PSoC4/CyLib.c **** *  If the SYSCLK clock frequency increases during device operation, call
 136:.\Generated_Source\PSoC4/CyLib.c **** *  CySysFlashSetWaitCycles() with the appropriate parameter to adjust the number
 137:.\Generated_Source\PSoC4/CyLib.c **** *  of clock cycles cache will wait before sampling data coming back from Flash.
 138:.\Generated_Source\PSoC4/CyLib.c **** *  If the SYSCLK clock frequency decreases, you can call CyFlash_SetWaitCycles()
 139:.\Generated_Source\PSoC4/CyLib.c **** *  to improve CPU performance. See CySysFlashSetWaitCycles() for more
ARM GAS  C:\Users\asha\AppData\Local\Temp\ccSrRbz4.s 			page 6


 140:.\Generated_Source\PSoC4/CyLib.c **** *  information.
 141:.\Generated_Source\PSoC4/CyLib.c **** *
 142:.\Generated_Source\PSoC4/CyLib.c **** *******************************************************************************/
 143:.\Generated_Source\PSoC4/CyLib.c **** void CySysClkWriteHfclkDirect(uint32 clkSelect)
 144:.\Generated_Source\PSoC4/CyLib.c **** {
 143              		.loc 1 144 0
 144              		.cfi_startproc
 145              	.LVL0:
 145:.\Generated_Source\PSoC4/CyLib.c ****     CY_SYS_CLK_SELECT_REG = ((CY_SYS_CLK_SELECT_REG & (( uint32 ) ~(( uint32 )CY_SYS_CLK_SELECT_DIR
 146              		.loc 1 145 0
 147 0000 044B     		ldr	r3, .L19
 148 0002 0121     		mov	r1, #1
 149 0004 1A68     		ldr	r2, [r3]
 150 0006 0840     		and	r0, r0, r1
 151              	.LVL1:
 152 0008 0721     		mov	r1, #7
 153 000a 8A43     		bic	r2, r2, r1
 154 000c 1043     		orr	r0, r0, r2
 155 000e 1860     		str	r0, [r3]
 146:.\Generated_Source\PSoC4/CyLib.c ****                         (( uint32 ) ( ( uint32 )clkSelect & ( uint32 )CY_SYS_CLK_SELECT_DIRECT_SEL_
 147:.\Generated_Source\PSoC4/CyLib.c **** }
 156              		.loc 1 147 0
 157              		@ sp needed for prologue
 158 0010 7047     		bx	lr
 159              	.L20:
 160 0012 C046     		.align	2
 161              	.L19:
 162 0014 00010B40 		.word	1074462976
 163              		.cfi_endproc
 164              	.LFE4:
 165              		.size	CySysClkWriteHfclkDirect, .-CySysClkWriteHfclkDirect
 166              		.section	.text.CySysClkWriteSysclkDiv,"ax",%progbits
 167              		.align	2
 168              		.global	CySysClkWriteSysclkDiv
 169              		.code	16
 170              		.thumb_func
 171              		.type	CySysClkWriteSysclkDiv, %function
 172              	CySysClkWriteSysclkDiv:
 173              	.LFB5:
 148:.\Generated_Source\PSoC4/CyLib.c **** 
 149:.\Generated_Source\PSoC4/CyLib.c **** 
 150:.\Generated_Source\PSoC4/CyLib.c **** /*******************************************************************************
 151:.\Generated_Source\PSoC4/CyLib.c **** * Function Name: CySysClkWriteSysclkDiv
 152:.\Generated_Source\PSoC4/CyLib.c **** ********************************************************************************
 153:.\Generated_Source\PSoC4/CyLib.c **** *
 154:.\Generated_Source\PSoC4/CyLib.c **** * Summary:
 155:.\Generated_Source\PSoC4/CyLib.c **** *  Selects SYSCLK from HFCLK pre-scaler value.
 156:.\Generated_Source\PSoC4/CyLib.c **** *
 157:.\Generated_Source\PSoC4/CyLib.c **** * Parameters:
 158:.\Generated_Source\PSoC4/CyLib.c **** *  divider: Power of 2 prescaler selection
 159:.\Generated_Source\PSoC4/CyLib.c **** *
 160:.\Generated_Source\PSoC4/CyLib.c **** *   Value    Define                        Description
 161:.\Generated_Source\PSoC4/CyLib.c **** *   0        CY_SYS_CLK_SYSCLK_DIV1        SYSCLK = HFCLK / 1
 162:.\Generated_Source\PSoC4/CyLib.c **** *   1        CY_SYS_CLK_SYSCLK_DIV2        SYSCLK = HFCLK / 2
 163:.\Generated_Source\PSoC4/CyLib.c **** *   2        CY_SYS_CLK_SYSCLK_DIV4        SYSCLK = HFCLK / 4
 164:.\Generated_Source\PSoC4/CyLib.c **** *   3        CY_SYS_CLK_SYSCLK_DIV8        SYSCLK = HFCLK / 8
 165:.\Generated_Source\PSoC4/CyLib.c **** *   4        CY_SYS_CLK_SYSCLK_DIV16       SYSCLK = HFCLK / 16
ARM GAS  C:\Users\asha\AppData\Local\Temp\ccSrRbz4.s 			page 7


 166:.\Generated_Source\PSoC4/CyLib.c **** *   5        CY_SYS_CLK_SYSCLK_DIV32       SYSCLK = HFCLK / 32
 167:.\Generated_Source\PSoC4/CyLib.c **** *   6        CY_SYS_CLK_SYSCLK_DIV64       SYSCLK = HFCLK / 64
 168:.\Generated_Source\PSoC4/CyLib.c **** *   7        CY_SYS_CLK_SYSCLK_DIV128      SYSCLK = HFCLK / 128
 169:.\Generated_Source\PSoC4/CyLib.c **** *
 170:.\Generated_Source\PSoC4/CyLib.c **** * Return:
 171:.\Generated_Source\PSoC4/CyLib.c **** *  None
 172:.\Generated_Source\PSoC4/CyLib.c **** *
 173:.\Generated_Source\PSoC4/CyLib.c **** * Side Effects:
 174:.\Generated_Source\PSoC4/CyLib.c **** *  If the SYSCLK clock frequency increases during device operation, call
 175:.\Generated_Source\PSoC4/CyLib.c **** *  CySysFlashSetWaitCycles() with the appropriate parameter to adjust the number
 176:.\Generated_Source\PSoC4/CyLib.c **** *  of clock cycles cache will wait before sampling data coming back from Flash.
 177:.\Generated_Source\PSoC4/CyLib.c **** *  If the SYSCLK clock frequency decreases, you can call CyFlash_SetWaitCycles()
 178:.\Generated_Source\PSoC4/CyLib.c **** *  to improve CPU performance. See CySysFlashSetWaitCycles() for more
 179:.\Generated_Source\PSoC4/CyLib.c **** *  information.
 180:.\Generated_Source\PSoC4/CyLib.c **** *
 181:.\Generated_Source\PSoC4/CyLib.c **** *******************************************************************************/
 182:.\Generated_Source\PSoC4/CyLib.c **** void CySysClkWriteSysclkDiv(uint32 divider)
 183:.\Generated_Source\PSoC4/CyLib.c **** {
 174              		.loc 1 183 0
 175              		.cfi_startproc
 176 0000 10B5     		push	{r4, lr}
 177              	.LCFI0:
 178              		.cfi_def_cfa_offset 8
 179              		.cfi_offset 4, -8
 180              		.cfi_offset 14, -4
 181              	.LVL2:
 184:.\Generated_Source\PSoC4/CyLib.c ****     CY_SYS_CLK_SELECT_REG = ((uint32)(((uint32)divider & CY_SYS_CLK_SELECT_SYSCLK_DIV_MASK) <<
 185:.\Generated_Source\PSoC4/CyLib.c ****                                     CY_SYS_CLK_SELECT_SYSCLK_DIV_SHIFT)) |
 186:.\Generated_Source\PSoC4/CyLib.c ****                             (CY_SYS_CLK_SELECT_REG & ((uint32)(~(uint32)(CY_SYS_CLK_SELECT_SYSCLK_D
 182              		.loc 1 186 0
 183 0002 054B     		ldr	r3, .L23
 184              		.loc 1 184 0
 185 0004 0722     		mov	r2, #7
 186              		.loc 1 186 0
 187 0006 1C68     		ldr	r4, [r3]
 188              		.loc 1 184 0
 189 0008 1040     		and	r0, r0, r2
 190              	.LVL3:
 191 000a 0449     		ldr	r1, .L23+4
 192 000c C204     		lsl	r2, r0, #19
 193 000e 201C     		mov	r0, r4
 194 0010 0840     		and	r0, r0, r1
 195 0012 1043     		orr	r0, r0, r2
 196 0014 1860     		str	r0, [r3]
 187:.\Generated_Source\PSoC4/CyLib.c ****                                     CY_SYS_CLK_SELECT_SYSCLK_DIV_SHIFT))));
 188:.\Generated_Source\PSoC4/CyLib.c **** }
 197              		.loc 1 188 0
 198              		@ sp needed for prologue
 199 0016 10BD     		pop	{r4, pc}
 200              	.L24:
 201              		.align	2
 202              	.L23:
 203 0018 00010B40 		.word	1074462976
 204 001c FFFFC7FF 		.word	-3670017
 205              		.cfi_endproc
 206              	.LFE5:
 207              		.size	CySysClkWriteSysclkDiv, .-CySysClkWriteSysclkDiv
ARM GAS  C:\Users\asha\AppData\Local\Temp\ccSrRbz4.s 			page 8


 208              		.section	.text.CySysWdtReadEnabledStatus,"ax",%progbits
 209              		.align	2
 210              		.global	CySysWdtReadEnabledStatus
 211              		.code	16
 212              		.thumb_func
 213              		.type	CySysWdtReadEnabledStatus, %function
 214              	CySysWdtReadEnabledStatus:
 215              	.LFB9:
 189:.\Generated_Source\PSoC4/CyLib.c **** 
 190:.\Generated_Source\PSoC4/CyLib.c **** 
 191:.\Generated_Source\PSoC4/CyLib.c **** /*******************************************************************************
 192:.\Generated_Source\PSoC4/CyLib.c **** * Function Name: CySysClkWriteImoFreq
 193:.\Generated_Source\PSoC4/CyLib.c **** ********************************************************************************
 194:.\Generated_Source\PSoC4/CyLib.c **** *
 195:.\Generated_Source\PSoC4/CyLib.c **** * Summary:
 196:.\Generated_Source\PSoC4/CyLib.c **** *  Sets the frequency of the IMO.
 197:.\Generated_Source\PSoC4/CyLib.c **** *
 198:.\Generated_Source\PSoC4/CyLib.c **** * Parameters:
 199:.\Generated_Source\PSoC4/CyLib.c **** *  freq: Valid range [3-48].  Frequency for operation of the IMO.
 200:.\Generated_Source\PSoC4/CyLib.c **** *  Note: Invalid frequency will be ignored.
 201:.\Generated_Source\PSoC4/CyLib.c **** *
 202:.\Generated_Source\PSoC4/CyLib.c **** * Return:
 203:.\Generated_Source\PSoC4/CyLib.c **** *  None
 204:.\Generated_Source\PSoC4/CyLib.c **** *
 205:.\Generated_Source\PSoC4/CyLib.c **** * Side Effects:
 206:.\Generated_Source\PSoC4/CyLib.c **** *  If the SYSCLK clock frequency increases during device operation, call
 207:.\Generated_Source\PSoC4/CyLib.c **** *  CySysFlashSetWaitCycles() with the appropriate parameter to adjust the number
 208:.\Generated_Source\PSoC4/CyLib.c **** *  of clock cycles cache will wait before sampling data coming back from Flash.
 209:.\Generated_Source\PSoC4/CyLib.c **** *  If the SYSCLK clock frequency decreases, you can call CyFlash_SetWaitCycles()
 210:.\Generated_Source\PSoC4/CyLib.c **** *  to improve CPU performance. See CySysFlashSetWaitCycles() for more
 211:.\Generated_Source\PSoC4/CyLib.c **** *  information.
 212:.\Generated_Source\PSoC4/CyLib.c **** *
 213:.\Generated_Source\PSoC4/CyLib.c **** *******************************************************************************/
 214:.\Generated_Source\PSoC4/CyLib.c **** void CySysClkWriteImoFreq(uint32 freq)
 215:.\Generated_Source\PSoC4/CyLib.c **** {
 216:.\Generated_Source\PSoC4/CyLib.c ****     uint8  bgTrim4;
 217:.\Generated_Source\PSoC4/CyLib.c ****     uint8  bgTrim5;
 218:.\Generated_Source\PSoC4/CyLib.c ****     uint32 currentFreq = CY_SYS_CLK_IMO_MAX_FREQ_MHZ;
 219:.\Generated_Source\PSoC4/CyLib.c ****     uint8  interruptState;
 220:.\Generated_Source\PSoC4/CyLib.c ****     uint32 i;
 221:.\Generated_Source\PSoC4/CyLib.c **** 
 222:.\Generated_Source\PSoC4/CyLib.c ****     /* Convertion between CySysClkWriteImoFreq() parameter and register's value */
 223:.\Generated_Source\PSoC4/CyLib.c ****     static const uint8 cyImoFreqMhz2Reg[CY_SYS_CLK_IMO_FREQ_TABLE_SIZE] = {
 224:.\Generated_Source\PSoC4/CyLib.c ****         /*  3 MHz */ 0x03u,  /*  4 MHz */ 0x04u,  /*  5 MHz */ 0x05u,  /*  6 MHz */ 0x06u,
 225:.\Generated_Source\PSoC4/CyLib.c ****         /*  7 MHz */ 0x07u,  /*  8 MHz */ 0x08u,  /*  9 MHz */ 0x09u,  /* 10 MHz */ 0x0Au,
 226:.\Generated_Source\PSoC4/CyLib.c ****         /* 11 MHz */ 0x0Bu,  /* 12 MHz */ 0x0Cu,  /* 13 MHz */ 0x0Eu,  /* 14 MHz */ 0x0Fu,
 227:.\Generated_Source\PSoC4/CyLib.c ****         /* 15 MHz */ 0x10u,  /* 16 MHz */ 0x11u,  /* 17 MHz */ 0x12u,  /* 18 MHz */ 0x13u,
 228:.\Generated_Source\PSoC4/CyLib.c ****         /* 19 MHz */ 0x14u,  /* 20 MHz */ 0x15u,  /* 21 MHz */ 0x16u,  /* 22 MHz */ 0x17u,
 229:.\Generated_Source\PSoC4/CyLib.c ****         /* 23 MHz */ 0x18u,  /* 24 MHz */ 0x19u,  /* 25 MHz */ 0x1Bu,  /* 26 MHz */ 0x1Cu,
 230:.\Generated_Source\PSoC4/CyLib.c ****         /* 27 MHz */ 0x1Du,  /* 28 MHz */ 0x1Eu,  /* 29 MHz */ 0x1Fu,  /* 30 MHz */ 0x20u,
 231:.\Generated_Source\PSoC4/CyLib.c ****         /* 31 MHz */ 0x21u,  /* 32 MHz */ 0x22u,  /* 33 MHz */ 0x23u,  /* 34 MHz */ 0x25u,
 232:.\Generated_Source\PSoC4/CyLib.c ****         /* 35 MHz */ 0x26u,  /* 36 MHz */ 0x27u,  /* 37 MHz */ 0x28u,  /* 38 MHz */ 0x29u,
 233:.\Generated_Source\PSoC4/CyLib.c ****         /* 39 MHz */ 0x2Au,  /* 40 MHz */ 0x2Bu,  /* 41 MHz */ 0x2Eu,  /* 42 MHz */ 0x2Fu,
 234:.\Generated_Source\PSoC4/CyLib.c ****         /* 43 MHz */ 0x30u,  /* 44 MHz */ 0x31u,  /* 45 MHz */ 0x32u,  /* 46 MHz */ 0x33u,
 235:.\Generated_Source\PSoC4/CyLib.c ****         /* 47 MHz */ 0x34u,  /* 48 MHz */ 0x35u };
 236:.\Generated_Source\PSoC4/CyLib.c **** 
 237:.\Generated_Source\PSoC4/CyLib.c **** 
ARM GAS  C:\Users\asha\AppData\Local\Temp\ccSrRbz4.s 			page 9


 238:.\Generated_Source\PSoC4/CyLib.c ****     if ((freq >= CY_SYS_CLK_IMO_MIN_FREQ_MHZ) && (freq <= CY_SYS_CLK_IMO_MAX_FREQ_MHZ))
 239:.\Generated_Source\PSoC4/CyLib.c ****     {
 240:.\Generated_Source\PSoC4/CyLib.c ****         interruptState = CyEnterCriticalSection();
 241:.\Generated_Source\PSoC4/CyLib.c **** 
 242:.\Generated_Source\PSoC4/CyLib.c ****         /* Get current IMO frequency */
 243:.\Generated_Source\PSoC4/CyLib.c ****         for (i = 0u; i < CY_SYS_CLK_IMO_FREQ_TABLE_SIZE; i++)
 244:.\Generated_Source\PSoC4/CyLib.c ****         {
 245:.\Generated_Source\PSoC4/CyLib.c ****             if (cyImoFreqMhz2Reg[i] == (CY_SYS_CLK_IMO_TRIM2_REG & CY_SYS_CLK_IMO_FREQ_BITS_MASK))
 246:.\Generated_Source\PSoC4/CyLib.c ****             {
 247:.\Generated_Source\PSoC4/CyLib.c ****                 currentFreq = i + CY_SYS_CLK_IMO_FREQ_TABLE_OFFSET;
 248:.\Generated_Source\PSoC4/CyLib.c ****                 break;
 249:.\Generated_Source\PSoC4/CyLib.c ****             }
 250:.\Generated_Source\PSoC4/CyLib.c ****         }
 251:.\Generated_Source\PSoC4/CyLib.c **** 
 252:.\Generated_Source\PSoC4/CyLib.c ****         if(freq <= CY_SFLASH_IMO_MAXF0_REG)
 253:.\Generated_Source\PSoC4/CyLib.c ****         {
 254:.\Generated_Source\PSoC4/CyLib.c ****             bgTrim4 = CY_SFLASH_IMO_ABS0_REG;
 255:.\Generated_Source\PSoC4/CyLib.c ****             bgTrim5 = CY_SFLASH_IMO_TMPCO0_REG;
 256:.\Generated_Source\PSoC4/CyLib.c ****         }
 257:.\Generated_Source\PSoC4/CyLib.c ****         else if(freq <= CY_SFLASH_IMO_MAXF1_REG)
 258:.\Generated_Source\PSoC4/CyLib.c ****         {
 259:.\Generated_Source\PSoC4/CyLib.c ****             bgTrim4 = CY_SFLASH_IMO_ABS1_REG;
 260:.\Generated_Source\PSoC4/CyLib.c ****             bgTrim5 = CY_SFLASH_IMO_TMPCO1_REG;
 261:.\Generated_Source\PSoC4/CyLib.c ****         }
 262:.\Generated_Source\PSoC4/CyLib.c ****         else if(freq <= CY_SFLASH_IMO_MAXF2_REG)
 263:.\Generated_Source\PSoC4/CyLib.c ****         {
 264:.\Generated_Source\PSoC4/CyLib.c ****             bgTrim4 = CY_SFLASH_IMO_ABS2_REG;
 265:.\Generated_Source\PSoC4/CyLib.c ****             bgTrim5 = CY_SFLASH_IMO_TMPCO2_REG;
 266:.\Generated_Source\PSoC4/CyLib.c ****         }
 267:.\Generated_Source\PSoC4/CyLib.c ****         else if(freq <= CY_SFLASH_IMO_MAXF3_REG)
 268:.\Generated_Source\PSoC4/CyLib.c ****         {
 269:.\Generated_Source\PSoC4/CyLib.c ****             bgTrim4 = CY_SFLASH_IMO_ABS3_REG;
 270:.\Generated_Source\PSoC4/CyLib.c ****             bgTrim5 = CY_SFLASH_IMO_TMPCO3_REG;
 271:.\Generated_Source\PSoC4/CyLib.c ****         }
 272:.\Generated_Source\PSoC4/CyLib.c ****         else
 273:.\Generated_Source\PSoC4/CyLib.c ****         {
 274:.\Generated_Source\PSoC4/CyLib.c ****             bgTrim4 = CY_SFLASH_IMO_ABS4_REG;
 275:.\Generated_Source\PSoC4/CyLib.c ****             bgTrim5 = CY_SFLASH_IMO_TMPCO4_REG;
 276:.\Generated_Source\PSoC4/CyLib.c ****         }
 277:.\Generated_Source\PSoC4/CyLib.c **** 
 278:.\Generated_Source\PSoC4/CyLib.c **** 
 279:.\Generated_Source\PSoC4/CyLib.c ****         /***************************************************************************
 280:.\Generated_Source\PSoC4/CyLib.c ****         * The IMO can have a different trim per frequency. To avoid possible corner
 281:.\Generated_Source\PSoC4/CyLib.c ****         * cases where a trim change can exceed the maximum frequency, the trim must
 282:.\Generated_Source\PSoC4/CyLib.c ****         * be applied at a frequency that is low enough.
 283:.\Generated_Source\PSoC4/CyLib.c ****         ***************************************************************************/
 284:.\Generated_Source\PSoC4/CyLib.c ****         if ((currentFreq >= CY_SYS_CLK_IMO_BOUNDARY_FREQ_MHZ) && (freq >= CY_SYS_CLK_IMO_BOUNDARY_F
 285:.\Generated_Source\PSoC4/CyLib.c ****         {
 286:.\Generated_Source\PSoC4/CyLib.c ****             /* Set boundary IMO frequency: safe for IMO above 48 MHZ trimming */
 287:.\Generated_Source\PSoC4/CyLib.c ****             CY_SYS_CLK_IMO_TRIM2_REG = (uint32) cyImoFreqMhz2Reg[CY_SYS_CLK_IMO_TEMP_FREQ_MHZ -
 288:.\Generated_Source\PSoC4/CyLib.c ****                                                                  CY_SYS_CLK_IMO_FREQ_TABLE_OFFSET];
 289:.\Generated_Source\PSoC4/CyLib.c **** 
 290:.\Generated_Source\PSoC4/CyLib.c ****             CyDelayCycles(CY_SYS_CLK_IMO_FREQ_TIMEOUT_CYCLES);
 291:.\Generated_Source\PSoC4/CyLib.c **** 
 292:.\Generated_Source\PSoC4/CyLib.c ****             currentFreq = CY_SYS_CLK_IMO_TEMP_FREQ_MHZ;
 293:.\Generated_Source\PSoC4/CyLib.c ****         }
 294:.\Generated_Source\PSoC4/CyLib.c **** 
ARM GAS  C:\Users\asha\AppData\Local\Temp\ccSrRbz4.s 			page 10


 295:.\Generated_Source\PSoC4/CyLib.c **** 
 296:.\Generated_Source\PSoC4/CyLib.c ****         /***************************************************************************
 297:.\Generated_Source\PSoC4/CyLib.c ****         * Trim change need to allowed to settle (within 5us) before the Freq can be
 298:.\Generated_Source\PSoC4/CyLib.c ****         * changed to the new frequency.
 299:.\Generated_Source\PSoC4/CyLib.c ****         ***************************************************************************/
 300:.\Generated_Source\PSoC4/CyLib.c ****         if (freq > currentFreq)
 301:.\Generated_Source\PSoC4/CyLib.c ****         {
 302:.\Generated_Source\PSoC4/CyLib.c ****             /* Set trims for the new IMO frequency */
 303:.\Generated_Source\PSoC4/CyLib.c ****             CY_SYS_CLK_IMO_TRIM1_REG = (uint32) CY_SFLASH_IMO_TRIM_REG(freq - CY_SYS_CLK_IMO_FREQ_T
 304:.\Generated_Source\PSoC4/CyLib.c ****             CY_PWR_BG_TRIM4_REG  = bgTrim4;
 305:.\Generated_Source\PSoC4/CyLib.c ****             CY_PWR_BG_TRIM5_REG  = bgTrim5;
 306:.\Generated_Source\PSoC4/CyLib.c ****             CyDelayUs(CY_SYS_CLK_IMO_TRIM_TIMEOUT_US);
 307:.\Generated_Source\PSoC4/CyLib.c **** 
 308:.\Generated_Source\PSoC4/CyLib.c ****             /* Set new IMO frequency */
 309:.\Generated_Source\PSoC4/CyLib.c ****             CY_SYS_CLK_IMO_TRIM2_REG = cyImoFreqMhz2Reg[freq - CY_SYS_CLK_IMO_FREQ_TABLE_OFFSET];
 310:.\Generated_Source\PSoC4/CyLib.c ****             CyDelayCycles(CY_SYS_CLK_IMO_FREQ_TIMEOUT_CYCLES);
 311:.\Generated_Source\PSoC4/CyLib.c ****         }
 312:.\Generated_Source\PSoC4/CyLib.c ****         else
 313:.\Generated_Source\PSoC4/CyLib.c ****         {
 314:.\Generated_Source\PSoC4/CyLib.c ****             /* Set new IMO frequency */
 315:.\Generated_Source\PSoC4/CyLib.c ****             CY_SYS_CLK_IMO_TRIM2_REG = cyImoFreqMhz2Reg[freq - CY_SYS_CLK_IMO_FREQ_TABLE_OFFSET];
 316:.\Generated_Source\PSoC4/CyLib.c ****             CyDelayCycles(CY_SYS_CLK_IMO_FREQ_TIMEOUT_CYCLES);
 317:.\Generated_Source\PSoC4/CyLib.c **** 
 318:.\Generated_Source\PSoC4/CyLib.c ****             /* Set trims for the new IMO frequency */
 319:.\Generated_Source\PSoC4/CyLib.c ****             CY_SYS_CLK_IMO_TRIM1_REG = CY_SFLASH_IMO_TRIM_REG(freq - CY_SYS_CLK_IMO_FREQ_TABLE_OFFS
 320:.\Generated_Source\PSoC4/CyLib.c ****             CY_PWR_BG_TRIM4_REG  = bgTrim4;
 321:.\Generated_Source\PSoC4/CyLib.c ****             CY_PWR_BG_TRIM5_REG  = bgTrim5;
 322:.\Generated_Source\PSoC4/CyLib.c ****             CyDelayUs(CY_SYS_CLK_IMO_TRIM_TIMEOUT_US);
 323:.\Generated_Source\PSoC4/CyLib.c ****         }
 324:.\Generated_Source\PSoC4/CyLib.c **** 
 325:.\Generated_Source\PSoC4/CyLib.c ****         CyExitCriticalSection(interruptState);
 326:.\Generated_Source\PSoC4/CyLib.c ****     }
 327:.\Generated_Source\PSoC4/CyLib.c ****     else
 328:.\Generated_Source\PSoC4/CyLib.c ****     {
 329:.\Generated_Source\PSoC4/CyLib.c ****         /* Halt CPU in debug mode if new frequency is invalid */
 330:.\Generated_Source\PSoC4/CyLib.c ****         CYASSERT(0u != 0u);
 331:.\Generated_Source\PSoC4/CyLib.c ****     }
 332:.\Generated_Source\PSoC4/CyLib.c **** }
 333:.\Generated_Source\PSoC4/CyLib.c **** 
 334:.\Generated_Source\PSoC4/CyLib.c **** 
 335:.\Generated_Source\PSoC4/CyLib.c **** /*******************************************************************************
 336:.\Generated_Source\PSoC4/CyLib.c **** * Function Name: CySysWdtLock
 337:.\Generated_Source\PSoC4/CyLib.c **** ********************************************************************************
 338:.\Generated_Source\PSoC4/CyLib.c **** *
 339:.\Generated_Source\PSoC4/CyLib.c **** * Summary:
 340:.\Generated_Source\PSoC4/CyLib.c **** *  Locks out configuration changes to the Watchdog timer registers and ILO
 341:.\Generated_Source\PSoC4/CyLib.c **** *  config register.
 342:.\Generated_Source\PSoC4/CyLib.c **** *
 343:.\Generated_Source\PSoC4/CyLib.c **** * Parameters:
 344:.\Generated_Source\PSoC4/CyLib.c **** *  None
 345:.\Generated_Source\PSoC4/CyLib.c **** *
 346:.\Generated_Source\PSoC4/CyLib.c **** * Return:
 347:.\Generated_Source\PSoC4/CyLib.c **** *  None
 348:.\Generated_Source\PSoC4/CyLib.c **** *
 349:.\Generated_Source\PSoC4/CyLib.c **** * Side effects:
 350:.\Generated_Source\PSoC4/CyLib.c **** *  This API enables ILO, if it was disabled.
 351:.\Generated_Source\PSoC4/CyLib.c **** *  After this API was called, ILO clock can't be disabled untill calling of
ARM GAS  C:\Users\asha\AppData\Local\Temp\ccSrRbz4.s 			page 11


 352:.\Generated_Source\PSoC4/CyLib.c **** *  CySysWdtUnlock().
 353:.\Generated_Source\PSoC4/CyLib.c **** *
 354:.\Generated_Source\PSoC4/CyLib.c **** *******************************************************************************/
 355:.\Generated_Source\PSoC4/CyLib.c **** void CySysWdtLock(void)
 356:.\Generated_Source\PSoC4/CyLib.c **** {
 357:.\Generated_Source\PSoC4/CyLib.c ****     uint8 interruptState;
 358:.\Generated_Source\PSoC4/CyLib.c ****     interruptState = CyEnterCriticalSection();
 359:.\Generated_Source\PSoC4/CyLib.c **** 
 360:.\Generated_Source\PSoC4/CyLib.c ****     /* Configuring the WDT involves passing control signals between clock domains,
 361:.\Generated_Source\PSoC4/CyLib.c ****     * which requires the ILO to be enabled.
 362:.\Generated_Source\PSoC4/CyLib.c ****     */
 363:.\Generated_Source\PSoC4/CyLib.c ****     if (0u == (CY_SYS_CLK_ILO_CONFIG_REG & CY_SYS_CLK_ILO_CONFIG_ENABLE))
 364:.\Generated_Source\PSoC4/CyLib.c ****     {
 365:.\Generated_Source\PSoC4/CyLib.c ****         CySysClkIloStart();
 366:.\Generated_Source\PSoC4/CyLib.c ****     }
 367:.\Generated_Source\PSoC4/CyLib.c **** 
 368:.\Generated_Source\PSoC4/CyLib.c ****     /* CLK_SELECT register's bits 15:14 are WDT_LOCK */
 369:.\Generated_Source\PSoC4/CyLib.c ****     CY_SYS_CLK_SELECT_REG = (CY_SYS_CLK_SELECT_REG & (uint32)(~CY_SYS_WDT_CLK_LOCK_BITS_MASK)) |
 370:.\Generated_Source\PSoC4/CyLib.c ****              CY_SYS_WDT_CLK_LOCK_BITS_MASK;
 371:.\Generated_Source\PSoC4/CyLib.c **** 
 372:.\Generated_Source\PSoC4/CyLib.c ****     CyExitCriticalSection(interruptState);
 373:.\Generated_Source\PSoC4/CyLib.c **** }
 374:.\Generated_Source\PSoC4/CyLib.c **** 
 375:.\Generated_Source\PSoC4/CyLib.c **** 
 376:.\Generated_Source\PSoC4/CyLib.c **** /*******************************************************************************
 377:.\Generated_Source\PSoC4/CyLib.c **** * Function Name: CySysWdtUnlock
 378:.\Generated_Source\PSoC4/CyLib.c **** ********************************************************************************
 379:.\Generated_Source\PSoC4/CyLib.c **** *
 380:.\Generated_Source\PSoC4/CyLib.c **** * Summary:
 381:.\Generated_Source\PSoC4/CyLib.c **** *  Unlocks the Watchdog Timer configuration register.
 382:.\Generated_Source\PSoC4/CyLib.c **** *
 383:.\Generated_Source\PSoC4/CyLib.c **** * Parameters:
 384:.\Generated_Source\PSoC4/CyLib.c **** *  None
 385:.\Generated_Source\PSoC4/CyLib.c **** *
 386:.\Generated_Source\PSoC4/CyLib.c **** * Return:
 387:.\Generated_Source\PSoC4/CyLib.c **** *  None
 388:.\Generated_Source\PSoC4/CyLib.c **** *
 389:.\Generated_Source\PSoC4/CyLib.c **** * Side effects:
 390:.\Generated_Source\PSoC4/CyLib.c **** *  This API enables ILO, if it was disabled.
 391:.\Generated_Source\PSoC4/CyLib.c **** *
 392:.\Generated_Source\PSoC4/CyLib.c **** *******************************************************************************/
 393:.\Generated_Source\PSoC4/CyLib.c **** void CySysWdtUnlock(void)
 394:.\Generated_Source\PSoC4/CyLib.c **** {
 395:.\Generated_Source\PSoC4/CyLib.c ****     uint8 interruptState;
 396:.\Generated_Source\PSoC4/CyLib.c ****     interruptState = CyEnterCriticalSection();
 397:.\Generated_Source\PSoC4/CyLib.c **** 
 398:.\Generated_Source\PSoC4/CyLib.c ****     /* Configuring the WDT involves passing control signals between clock domains,
 399:.\Generated_Source\PSoC4/CyLib.c ****     * which requires the ILO to be enabled.
 400:.\Generated_Source\PSoC4/CyLib.c ****     */
 401:.\Generated_Source\PSoC4/CyLib.c ****     if (0u == (CY_SYS_CLK_ILO_CONFIG_REG & CY_SYS_CLK_ILO_CONFIG_ENABLE))
 402:.\Generated_Source\PSoC4/CyLib.c ****     {
 403:.\Generated_Source\PSoC4/CyLib.c ****         CySysClkIloStart();
 404:.\Generated_Source\PSoC4/CyLib.c ****     }
 405:.\Generated_Source\PSoC4/CyLib.c **** 
 406:.\Generated_Source\PSoC4/CyLib.c ****     /* Removing WDT lock requires two writes */
 407:.\Generated_Source\PSoC4/CyLib.c ****     CY_SYS_CLK_SELECT_REG = ((CY_SYS_CLK_SELECT_REG & (uint32)(~CY_SYS_WDT_CLK_LOCK_BITS_MASK)) |
 408:.\Generated_Source\PSoC4/CyLib.c ****             CY_SYS_WDT_CLK_LOCK_BIT0);
ARM GAS  C:\Users\asha\AppData\Local\Temp\ccSrRbz4.s 			page 12


 409:.\Generated_Source\PSoC4/CyLib.c **** 
 410:.\Generated_Source\PSoC4/CyLib.c ****     CY_SYS_CLK_SELECT_REG = ((CY_SYS_CLK_SELECT_REG & (uint32)(~CY_SYS_WDT_CLK_LOCK_BITS_MASK)) |
 411:.\Generated_Source\PSoC4/CyLib.c ****             CY_SYS_WDT_CLK_LOCK_BIT1);
 412:.\Generated_Source\PSoC4/CyLib.c **** 
 413:.\Generated_Source\PSoC4/CyLib.c ****     CyExitCriticalSection(interruptState);
 414:.\Generated_Source\PSoC4/CyLib.c **** }
 415:.\Generated_Source\PSoC4/CyLib.c **** 
 416:.\Generated_Source\PSoC4/CyLib.c **** 
 417:.\Generated_Source\PSoC4/CyLib.c **** /*******************************************************************************
 418:.\Generated_Source\PSoC4/CyLib.c **** * Function Name: CySysWdtReadEnabledStatus
 419:.\Generated_Source\PSoC4/CyLib.c **** ********************************************************************************
 420:.\Generated_Source\PSoC4/CyLib.c **** *
 421:.\Generated_Source\PSoC4/CyLib.c **** * Summary:
 422:.\Generated_Source\PSoC4/CyLib.c **** *  Reads the enabled staus of one of the three WDT counters.
 423:.\Generated_Source\PSoC4/CyLib.c **** *
 424:.\Generated_Source\PSoC4/CyLib.c **** * Parameters:
 425:.\Generated_Source\PSoC4/CyLib.c **** *  counterNum: Valid range [0-2].  Number of the WDT counter.
 426:.\Generated_Source\PSoC4/CyLib.c **** *
 427:.\Generated_Source\PSoC4/CyLib.c **** * Return:
 428:.\Generated_Source\PSoC4/CyLib.c **** *  Status of WDT counter:
 429:.\Generated_Source\PSoC4/CyLib.c **** *   0 - counter is disabled
 430:.\Generated_Source\PSoC4/CyLib.c **** *   1 - counter is enabled
 431:.\Generated_Source\PSoC4/CyLib.c **** *
 432:.\Generated_Source\PSoC4/CyLib.c **** * Side Effects:
 433:.\Generated_Source\PSoC4/CyLib.c **** *  This API returns actual WDT counter status from status register.
 434:.\Generated_Source\PSoC4/CyLib.c **** *  It may take up to 3 LFCLK cycles since WDT counter was enabled for WDT status
 435:.\Generated_Source\PSoC4/CyLib.c **** *  register to contain actual data.
 436:.\Generated_Source\PSoC4/CyLib.c **** *
 437:.\Generated_Source\PSoC4/CyLib.c **** *******************************************************************************/
 438:.\Generated_Source\PSoC4/CyLib.c **** uint32 CySysWdtReadEnabledStatus(uint32 counterNum)
 439:.\Generated_Source\PSoC4/CyLib.c **** {
 216              		.loc 1 439 0
 217              		.cfi_startproc
 218 0000 00B5     		push	{lr}
 219              	.LCFI1:
 220              		.cfi_def_cfa_offset 4
 221              		.cfi_offset 14, -4
 222              	.LVL4:
 440:.\Generated_Source\PSoC4/CyLib.c ****     CYASSERT(counterNum < CY_SYS_WDT_COUNTERS_MAX);
 223              		.loc 1 440 0
 224 0002 0228     		cmp	r0, #2
 225 0004 00D9     		bls	.L26
 226              	.LBB78:
 227              	.LBB79:
 441:.\Generated_Source\PSoC4/CyLib.c **** 
 442:.\Generated_Source\PSoC4/CyLib.c ****     return ((CY_SYS_WDT_CONTROL_REG >> ((CY_SYS_WDT_CNT_SHIFT * counterNum) + CY_SYS_WDT_CNT_STTS_S
 443:.\Generated_Source\PSoC4/CyLib.c **** }
 444:.\Generated_Source\PSoC4/CyLib.c **** 
 445:.\Generated_Source\PSoC4/CyLib.c **** 
 446:.\Generated_Source\PSoC4/CyLib.c **** /*******************************************************************************
 447:.\Generated_Source\PSoC4/CyLib.c **** * Function Name: CySysWdtWriteMode
 448:.\Generated_Source\PSoC4/CyLib.c **** ********************************************************************************
 449:.\Generated_Source\PSoC4/CyLib.c **** *
 450:.\Generated_Source\PSoC4/CyLib.c **** * Summary:
 451:.\Generated_Source\PSoC4/CyLib.c **** *   Writes the mode of one of the three WDT counters.
 452:.\Generated_Source\PSoC4/CyLib.c **** *
 453:.\Generated_Source\PSoC4/CyLib.c **** * Parameters:
ARM GAS  C:\Users\asha\AppData\Local\Temp\ccSrRbz4.s 			page 13


 454:.\Generated_Source\PSoC4/CyLib.c **** *   counterNum: Valid range [0-2].  Number of the WDT counter.
 455:.\Generated_Source\PSoC4/CyLib.c **** *   mode:       Mode of operation for the counter
 456:.\Generated_Source\PSoC4/CyLib.c **** *   Value    Define                   Mode
 457:.\Generated_Source\PSoC4/CyLib.c **** *   0     CY_SYS_WDT_MODE_NONE       Free running
 458:.\Generated_Source\PSoC4/CyLib.c **** *   1     CY_SYS_WDT_MODE_INT        Interrupt generated on match for counter 0
 459:.\Generated_Source\PSoC4/CyLib.c **** *                                    and 1, and on bit toggle for counter 2.
 460:.\Generated_Source\PSoC4/CyLib.c **** *   2     CY_SYS_WDT_MODE_RESET      Reset on match (valid for counter 0 and 1
 461:.\Generated_Source\PSoC4/CyLib.c **** *                                    only)
 462:.\Generated_Source\PSoC4/CyLib.c **** *   3     CY_SYS_WDT_MODE_INT_RESET  Generate an interrupt.  Generate a reset on
 463:.\Generated_Source\PSoC4/CyLib.c **** *                                    the 3rd unhandled interrupt.
 464:.\Generated_Source\PSoC4/CyLib.c **** *                                    (valid for counter 0 and 1 only)
 465:.\Generated_Source\PSoC4/CyLib.c **** * Return:
 466:.\Generated_Source\PSoC4/CyLib.c **** *   None
 467:.\Generated_Source\PSoC4/CyLib.c **** *
 468:.\Generated_Source\PSoC4/CyLib.c **** * Side Effects:
 469:.\Generated_Source\PSoC4/CyLib.c **** *   WDT counter counterNum should be disabled to set mode. Othetwise function
 470:.\Generated_Source\PSoC4/CyLib.c **** *   call will have no effect.
 471:.\Generated_Source\PSoC4/CyLib.c **** *   This API enables ILO, if it was disabled.
 472:.\Generated_Source\PSoC4/CyLib.c **** *
 473:.\Generated_Source\PSoC4/CyLib.c **** *******************************************************************************/
 474:.\Generated_Source\PSoC4/CyLib.c **** void CySysWdtWriteMode(uint32 counterNum, uint32 mode)
 475:.\Generated_Source\PSoC4/CyLib.c **** {
 476:.\Generated_Source\PSoC4/CyLib.c ****     uint32 configRegValue;
 477:.\Generated_Source\PSoC4/CyLib.c **** 
 478:.\Generated_Source\PSoC4/CyLib.c ****     CYASSERT(counterNum < CY_SYS_WDT_COUNTERS_MAX);
 479:.\Generated_Source\PSoC4/CyLib.c **** 
 480:.\Generated_Source\PSoC4/CyLib.c ****     /* Configuring the WDT involves passing control signals between clock domains,
 481:.\Generated_Source\PSoC4/CyLib.c ****     * which requires the ILO to be enabled.
 482:.\Generated_Source\PSoC4/CyLib.c ****     */
 483:.\Generated_Source\PSoC4/CyLib.c ****     if (0u == (CY_SYS_CLK_ILO_CONFIG_REG & CY_SYS_CLK_ILO_CONFIG_ENABLE))
 484:.\Generated_Source\PSoC4/CyLib.c ****     {
 485:.\Generated_Source\PSoC4/CyLib.c ****         CySysClkIloStart();
 486:.\Generated_Source\PSoC4/CyLib.c ****     }
 487:.\Generated_Source\PSoC4/CyLib.c **** 
 488:.\Generated_Source\PSoC4/CyLib.c ****     if(0u == CySysWdtReadEnabledStatus(counterNum))
 489:.\Generated_Source\PSoC4/CyLib.c ****     {
 490:.\Generated_Source\PSoC4/CyLib.c ****         configRegValue = CY_SYS_WDT_CONFIG_REG &
 491:.\Generated_Source\PSoC4/CyLib.c ****                             (uint32)~((uint32)(CY_SYS_WDT_MODE_MASK << (counterNum * CY_SYS_WDT_CNT
 492:.\Generated_Source\PSoC4/CyLib.c ****         configRegValue |= (uint32)((mode & CY_SYS_WDT_MODE_MASK) << (counterNum * CY_SYS_WDT_CNT_SH
 493:.\Generated_Source\PSoC4/CyLib.c ****         CY_SYS_WDT_CONFIG_REG = configRegValue;
 494:.\Generated_Source\PSoC4/CyLib.c ****     }
 495:.\Generated_Source\PSoC4/CyLib.c **** }
 496:.\Generated_Source\PSoC4/CyLib.c **** 
 497:.\Generated_Source\PSoC4/CyLib.c **** 
 498:.\Generated_Source\PSoC4/CyLib.c **** /*******************************************************************************
 499:.\Generated_Source\PSoC4/CyLib.c **** * Function Name: CySysWdtReadMode
 500:.\Generated_Source\PSoC4/CyLib.c **** ********************************************************************************
 501:.\Generated_Source\PSoC4/CyLib.c **** *
 502:.\Generated_Source\PSoC4/CyLib.c **** * Summary:
 503:.\Generated_Source\PSoC4/CyLib.c **** *  Reads the mode of one of the three WDT counters.
 504:.\Generated_Source\PSoC4/CyLib.c **** *
 505:.\Generated_Source\PSoC4/CyLib.c **** * Parameters:
 506:.\Generated_Source\PSoC4/CyLib.c **** *  counterNum: Valid range [0-2].  Number of the WDT counter.
 507:.\Generated_Source\PSoC4/CyLib.c **** *
 508:.\Generated_Source\PSoC4/CyLib.c **** * Return:
 509:.\Generated_Source\PSoC4/CyLib.c **** *  Mode of the counter.  Same enumerated values as mode parameter used in
 510:.\Generated_Source\PSoC4/CyLib.c **** *  CySysWdtWriteMode().
ARM GAS  C:\Users\asha\AppData\Local\Temp\ccSrRbz4.s 			page 14


 511:.\Generated_Source\PSoC4/CyLib.c **** *
 512:.\Generated_Source\PSoC4/CyLib.c **** *******************************************************************************/
 513:.\Generated_Source\PSoC4/CyLib.c **** uint32 CySysWdtReadMode(uint32 counterNum)
 514:.\Generated_Source\PSoC4/CyLib.c **** {
 515:.\Generated_Source\PSoC4/CyLib.c ****     return ((CY_SYS_WDT_CONFIG_REG >> (counterNum * CY_SYS_WDT_CNT_SHIFT)) & CY_SYS_WDT_MODE_MASK);
 516:.\Generated_Source\PSoC4/CyLib.c **** }
 517:.\Generated_Source\PSoC4/CyLib.c **** 
 518:.\Generated_Source\PSoC4/CyLib.c **** 
 519:.\Generated_Source\PSoC4/CyLib.c **** /*******************************************************************************
 520:.\Generated_Source\PSoC4/CyLib.c **** * Function Name: CySysWdtWriteClearOnMatch
 521:.\Generated_Source\PSoC4/CyLib.c **** ********************************************************************************
 522:.\Generated_Source\PSoC4/CyLib.c **** *
 523:.\Generated_Source\PSoC4/CyLib.c **** * Summary:
 524:.\Generated_Source\PSoC4/CyLib.c **** *  Configures the WDT counter clear on a match setting.  If configured to clear
 525:.\Generated_Source\PSoC4/CyLib.c **** *  on match the counter will count from 0 to the MatchValue giving it a
 526:.\Generated_Source\PSoC4/CyLib.c **** *  period of (MatchValue + 1).
 527:.\Generated_Source\PSoC4/CyLib.c **** *
 528:.\Generated_Source\PSoC4/CyLib.c **** * Parameters:
 529:.\Generated_Source\PSoC4/CyLib.c **** *  counterNum:
 530:.\Generated_Source\PSoC4/CyLib.c **** *   Valid range [0-1].  Number of the WDT counter.  Match values are not
 531:.\Generated_Source\PSoC4/CyLib.c **** *   supported by counter 2.
 532:.\Generated_Source\PSoC4/CyLib.c **** *
 533:.\Generated_Source\PSoC4/CyLib.c **** * enable:
 534:.\Generated_Source\PSoC4/CyLib.c **** *   0 to disable, 1 to enable
 535:.\Generated_Source\PSoC4/CyLib.c **** *
 536:.\Generated_Source\PSoC4/CyLib.c **** * Return:
 537:.\Generated_Source\PSoC4/CyLib.c **** *   None
 538:.\Generated_Source\PSoC4/CyLib.c **** *
 539:.\Generated_Source\PSoC4/CyLib.c **** * Side Effects:
 540:.\Generated_Source\PSoC4/CyLib.c **** *   WDT counter counterNum should be disabled. Othetwise function
 541:.\Generated_Source\PSoC4/CyLib.c **** *   call will have no effect.
 542:.\Generated_Source\PSoC4/CyLib.c **** *   This API enables ILO, if it was disabled.
 543:.\Generated_Source\PSoC4/CyLib.c **** *
 544:.\Generated_Source\PSoC4/CyLib.c **** *
 545:.\Generated_Source\PSoC4/CyLib.c **** *******************************************************************************/
 546:.\Generated_Source\PSoC4/CyLib.c **** void CySysWdtWriteClearOnMatch(uint32 counterNum, uint32 enable)
 547:.\Generated_Source\PSoC4/CyLib.c **** {
 548:.\Generated_Source\PSoC4/CyLib.c ****     CYASSERT((counterNum == CY_SYS_WDT_COUNTER0) ||
 549:.\Generated_Source\PSoC4/CyLib.c ****                                          (counterNum == CY_SYS_WDT_COUNTER1));
 550:.\Generated_Source\PSoC4/CyLib.c **** 
 551:.\Generated_Source\PSoC4/CyLib.c ****     /* Configuring the WDT involves passing control signals between clock domains,
 552:.\Generated_Source\PSoC4/CyLib.c ****     * which requires the ILO to be enabled.
 553:.\Generated_Source\PSoC4/CyLib.c ****     */
 554:.\Generated_Source\PSoC4/CyLib.c ****     if (0u == (CY_SYS_CLK_ILO_CONFIG_REG & CY_SYS_CLK_ILO_CONFIG_ENABLE))
 555:.\Generated_Source\PSoC4/CyLib.c ****     {
 556:.\Generated_Source\PSoC4/CyLib.c ****         CySysClkIloStart();
 557:.\Generated_Source\PSoC4/CyLib.c ****     }
 558:.\Generated_Source\PSoC4/CyLib.c **** 
 559:.\Generated_Source\PSoC4/CyLib.c ****     if(0u == CySysWdtReadEnabledStatus(counterNum))
 560:.\Generated_Source\PSoC4/CyLib.c ****     {
 561:.\Generated_Source\PSoC4/CyLib.c ****         CY_SYS_WDT_CONFIG_REG |= (uint32)(enable << ((counterNum * CY_SYS_WDT_CNT_SHIFT) +
 562:.\Generated_Source\PSoC4/CyLib.c ****                                                         CY_SYS_WDT_CNT_MATCH_CLR_SHIFT));
 563:.\Generated_Source\PSoC4/CyLib.c ****     }
 564:.\Generated_Source\PSoC4/CyLib.c **** }
 565:.\Generated_Source\PSoC4/CyLib.c **** 
 566:.\Generated_Source\PSoC4/CyLib.c **** 
 567:.\Generated_Source\PSoC4/CyLib.c **** /*******************************************************************************
ARM GAS  C:\Users\asha\AppData\Local\Temp\ccSrRbz4.s 			page 15


 568:.\Generated_Source\PSoC4/CyLib.c **** * Function Name: CySysWdtReadClearOnMatch
 569:.\Generated_Source\PSoC4/CyLib.c **** ********************************************************************************
 570:.\Generated_Source\PSoC4/CyLib.c **** *
 571:.\Generated_Source\PSoC4/CyLib.c **** * Summary:
 572:.\Generated_Source\PSoC4/CyLib.c **** *  Reads the clear on match setting for the specified counter.
 573:.\Generated_Source\PSoC4/CyLib.c **** *
 574:.\Generated_Source\PSoC4/CyLib.c **** * Parameters:
 575:.\Generated_Source\PSoC4/CyLib.c **** *   counterNum: Valid range [0-1].  Number of the WDT counter.  Match values are
 576:.\Generated_Source\PSoC4/CyLib.c **** *               not supported by counter 2.
 577:.\Generated_Source\PSoC4/CyLib.c **** *
 578:.\Generated_Source\PSoC4/CyLib.c **** * Return:
 579:.\Generated_Source\PSoC4/CyLib.c **** *   Clear on Match status: 1 if enabled, 0 if disabled
 580:.\Generated_Source\PSoC4/CyLib.c **** *
 581:.\Generated_Source\PSoC4/CyLib.c **** *******************************************************************************/
 582:.\Generated_Source\PSoC4/CyLib.c **** uint32 CySysWdtReadClearOnMatch(uint32 counterNum)
 583:.\Generated_Source\PSoC4/CyLib.c **** {
 584:.\Generated_Source\PSoC4/CyLib.c ****     CYASSERT((counterNum == CY_SYS_WDT_COUNTER0) ||
 585:.\Generated_Source\PSoC4/CyLib.c ****                                          (counterNum == CY_SYS_WDT_COUNTER1));
 586:.\Generated_Source\PSoC4/CyLib.c **** 
 587:.\Generated_Source\PSoC4/CyLib.c ****     return (uint32)((CY_SYS_WDT_CONFIG_REG >>
 588:.\Generated_Source\PSoC4/CyLib.c ****                         ((counterNum * CY_SYS_WDT_CNT_SHIFT) + CY_SYS_WDT_CNT_MATCH_CLR_SHIFT)) & 0
 589:.\Generated_Source\PSoC4/CyLib.c **** }
 590:.\Generated_Source\PSoC4/CyLib.c **** 
 591:.\Generated_Source\PSoC4/CyLib.c **** 
 592:.\Generated_Source\PSoC4/CyLib.c **** /*******************************************************************************
 593:.\Generated_Source\PSoC4/CyLib.c **** * Function Name: CySysWdtEnable
 594:.\Generated_Source\PSoC4/CyLib.c **** ********************************************************************************
 595:.\Generated_Source\PSoC4/CyLib.c **** *
 596:.\Generated_Source\PSoC4/CyLib.c **** * Summary:
 597:.\Generated_Source\PSoC4/CyLib.c **** *  Enables the specified WDT counters.  All counters specified in the mask are
 598:.\Generated_Source\PSoC4/CyLib.c **** *  enabled.
 599:.\Generated_Source\PSoC4/CyLib.c **** *
 600:.\Generated_Source\PSoC4/CyLib.c **** * Parameters:
 601:.\Generated_Source\PSoC4/CyLib.c **** *  counterMask: Mask of all counters to enable
 602:.\Generated_Source\PSoC4/CyLib.c **** *      Value    Define                       Counter
 603:.\Generated_Source\PSoC4/CyLib.c **** *      1<<0    CY_SYS_WDT_COUNTER0_MASK      0
 604:.\Generated_Source\PSoC4/CyLib.c **** *      1<<8    CY_SYS_WDT_COUNTER1_MASK      1
 605:.\Generated_Source\PSoC4/CyLib.c **** *      1<<16   CY_SYS_WDT_COUNTER2_MASK      2
 606:.\Generated_Source\PSoC4/CyLib.c **** *
 607:.\Generated_Source\PSoC4/CyLib.c **** * Return:
 608:.\Generated_Source\PSoC4/CyLib.c **** *  None
 609:.\Generated_Source\PSoC4/CyLib.c **** *
 610:.\Generated_Source\PSoC4/CyLib.c **** * Side Effects:
 611:.\Generated_Source\PSoC4/CyLib.c **** *  Enabling or disabling a WDT requires 3 LF Clock cycles to come into effect.
 612:.\Generated_Source\PSoC4/CyLib.c **** *  This API enables ILO, if it was disabled.
 613:.\Generated_Source\PSoC4/CyLib.c **** *
 614:.\Generated_Source\PSoC4/CyLib.c **** *******************************************************************************/
 615:.\Generated_Source\PSoC4/CyLib.c **** void CySysWdtEnable(uint32 counterMask)
 616:.\Generated_Source\PSoC4/CyLib.c **** {
 617:.\Generated_Source\PSoC4/CyLib.c ****     /* Configuring the WDT involves passing control signals between clock domains,
 618:.\Generated_Source\PSoC4/CyLib.c ****     * which requires the ILO to be enabled.
 619:.\Generated_Source\PSoC4/CyLib.c ****     */
 620:.\Generated_Source\PSoC4/CyLib.c ****     if (0u == (CY_SYS_CLK_ILO_CONFIG_REG & CY_SYS_CLK_ILO_CONFIG_ENABLE))
 621:.\Generated_Source\PSoC4/CyLib.c ****     {
 622:.\Generated_Source\PSoC4/CyLib.c ****         CySysClkIloStart();
 623:.\Generated_Source\PSoC4/CyLib.c ****     }
 624:.\Generated_Source\PSoC4/CyLib.c **** 
ARM GAS  C:\Users\asha\AppData\Local\Temp\ccSrRbz4.s 			page 16


 625:.\Generated_Source\PSoC4/CyLib.c ****     CY_SYS_WDT_CONTROL_REG |= counterMask;
 626:.\Generated_Source\PSoC4/CyLib.c **** }
 627:.\Generated_Source\PSoC4/CyLib.c **** 
 628:.\Generated_Source\PSoC4/CyLib.c **** 
 629:.\Generated_Source\PSoC4/CyLib.c **** /*******************************************************************************
 630:.\Generated_Source\PSoC4/CyLib.c **** * Function Name: CySysWdtDisable
 631:.\Generated_Source\PSoC4/CyLib.c **** ********************************************************************************
 632:.\Generated_Source\PSoC4/CyLib.c **** *
 633:.\Generated_Source\PSoC4/CyLib.c **** * Summary:
 634:.\Generated_Source\PSoC4/CyLib.c **** *  Disables the specified WDT counters.  All counters specified in the mask are
 635:.\Generated_Source\PSoC4/CyLib.c **** *  disabled.
 636:.\Generated_Source\PSoC4/CyLib.c **** *
 637:.\Generated_Source\PSoC4/CyLib.c **** * Parameters:
 638:.\Generated_Source\PSoC4/CyLib.c **** *  uint32 counterMask: Mask of all counters to disable
 639:.\Generated_Source\PSoC4/CyLib.c **** *      Value    Define                       Counter
 640:.\Generated_Source\PSoC4/CyLib.c **** *      1<<0    CY_SYS_WDT_COUNTER0_MASK      0
 641:.\Generated_Source\PSoC4/CyLib.c **** *      1<<8    CY_SYS_WDT_COUNTER1_MASK      1
 642:.\Generated_Source\PSoC4/CyLib.c **** *      1<<16   CY_SYS_WDT_COUNTER2_MASK      2
 643:.\Generated_Source\PSoC4/CyLib.c **** *
 644:.\Generated_Source\PSoC4/CyLib.c **** * Return:
 645:.\Generated_Source\PSoC4/CyLib.c **** *   None
 646:.\Generated_Source\PSoC4/CyLib.c **** *
 647:.\Generated_Source\PSoC4/CyLib.c **** * Side Effects:
 648:.\Generated_Source\PSoC4/CyLib.c **** *  Enabling or disabling a WDT requires 3 LF Clock cycles to come into effect.
 649:.\Generated_Source\PSoC4/CyLib.c **** *  This API enables ILO, if it was disabled.
 650:.\Generated_Source\PSoC4/CyLib.c **** *
 651:.\Generated_Source\PSoC4/CyLib.c **** *******************************************************************************/
 652:.\Generated_Source\PSoC4/CyLib.c **** void CySysWdtDisable(uint32 counterMask)
 653:.\Generated_Source\PSoC4/CyLib.c **** {
 654:.\Generated_Source\PSoC4/CyLib.c ****     /* Configuring the WDT involves passing control signals between clock domains,
 655:.\Generated_Source\PSoC4/CyLib.c ****     * which requires the ILO to be enabled.
 656:.\Generated_Source\PSoC4/CyLib.c ****     */
 657:.\Generated_Source\PSoC4/CyLib.c ****     if (0u == (CY_SYS_CLK_ILO_CONFIG_REG & CY_SYS_CLK_ILO_CONFIG_ENABLE))
 658:.\Generated_Source\PSoC4/CyLib.c ****     {
 659:.\Generated_Source\PSoC4/CyLib.c ****         CySysClkIloStart();
 660:.\Generated_Source\PSoC4/CyLib.c ****     }
 661:.\Generated_Source\PSoC4/CyLib.c **** 
 662:.\Generated_Source\PSoC4/CyLib.c ****     CY_SYS_WDT_CONTROL_REG &= ~counterMask;
 663:.\Generated_Source\PSoC4/CyLib.c **** }
 664:.\Generated_Source\PSoC4/CyLib.c **** 
 665:.\Generated_Source\PSoC4/CyLib.c **** 
 666:.\Generated_Source\PSoC4/CyLib.c **** /*******************************************************************************
 667:.\Generated_Source\PSoC4/CyLib.c **** * Function Name: CySysWdtWriteCascade
 668:.\Generated_Source\PSoC4/CyLib.c **** ********************************************************************************
 669:.\Generated_Source\PSoC4/CyLib.c **** *
 670:.\Generated_Source\PSoC4/CyLib.c **** * Summary:
 671:.\Generated_Source\PSoC4/CyLib.c **** *   Writes the two WDT cascade values based on the combination of mask values
 672:.\Generated_Source\PSoC4/CyLib.c **** *   specified.
 673:.\Generated_Source\PSoC4/CyLib.c **** *
 674:.\Generated_Source\PSoC4/CyLib.c **** * Parameters:
 675:.\Generated_Source\PSoC4/CyLib.c **** *   cascadeMask: Mask value used to set or clear the cascade values.
 676:.\Generated_Source\PSoC4/CyLib.c **** *   Value    Define                     Cascade
 677:.\Generated_Source\PSoC4/CyLib.c **** *   0        CY_SYS_WDT_CASCADE_NONE    Neither
 678:.\Generated_Source\PSoC4/CyLib.c **** *   1<<3     CY_SYS_WDT_CASCADE_01      Cascade 01
 679:.\Generated_Source\PSoC4/CyLib.c **** *   1<<11    CY_SYS_WDT_CASCADE_12      Cascade 12
 680:.\Generated_Source\PSoC4/CyLib.c **** *
 681:.\Generated_Source\PSoC4/CyLib.c **** * Return:
ARM GAS  C:\Users\asha\AppData\Local\Temp\ccSrRbz4.s 			page 17


 682:.\Generated_Source\PSoC4/CyLib.c **** *   None
 683:.\Generated_Source\PSoC4/CyLib.c **** *
 684:.\Generated_Source\PSoC4/CyLib.c **** * Side effects:
 685:.\Generated_Source\PSoC4/CyLib.c **** *   If only one cascasde mask is specified, the second cascade is disabled.
 686:.\Generated_Source\PSoC4/CyLib.c **** *   To set both cascade modes two defines should be ORed:
 687:.\Generated_Source\PSoC4/CyLib.c **** *    (CY_SYS_WDT_CASCADE_01 | CY_SYS_WDT_CASCADE_12)
 688:.\Generated_Source\PSoC4/CyLib.c **** *   This API enables ILO, if it was disabled.
 689:.\Generated_Source\PSoC4/CyLib.c **** *
 690:.\Generated_Source\PSoC4/CyLib.c **** *******************************************************************************/
 691:.\Generated_Source\PSoC4/CyLib.c **** void CySysWdtWriteCascade(uint32 cascadeMask)
 692:.\Generated_Source\PSoC4/CyLib.c **** {
 693:.\Generated_Source\PSoC4/CyLib.c ****     uint32 configRegValue;
 694:.\Generated_Source\PSoC4/CyLib.c ****     uint32 countersEnableStatus;
 695:.\Generated_Source\PSoC4/CyLib.c **** 
 696:.\Generated_Source\PSoC4/CyLib.c ****     countersEnableStatus = CySysWdtReadEnabledStatus(CY_SYS_WDT_COUNTER0) |
 697:.\Generated_Source\PSoC4/CyLib.c ****                         CySysWdtReadEnabledStatus(CY_SYS_WDT_COUNTER1) |
 698:.\Generated_Source\PSoC4/CyLib.c ****                         CySysWdtReadEnabledStatus(CY_SYS_WDT_COUNTER2);
 699:.\Generated_Source\PSoC4/CyLib.c **** 
 700:.\Generated_Source\PSoC4/CyLib.c ****     if (0u == countersEnableStatus)
 701:.\Generated_Source\PSoC4/CyLib.c ****     {
 702:.\Generated_Source\PSoC4/CyLib.c ****         /* Configuring the WDT involves passing control signals between clock domains,
 703:.\Generated_Source\PSoC4/CyLib.c ****         * which requires the ILO to be enabled.
 704:.\Generated_Source\PSoC4/CyLib.c ****         */
 705:.\Generated_Source\PSoC4/CyLib.c ****         if (0u == (CY_SYS_CLK_ILO_CONFIG_REG & CY_SYS_CLK_ILO_CONFIG_ENABLE))
 706:.\Generated_Source\PSoC4/CyLib.c ****         {
 707:.\Generated_Source\PSoC4/CyLib.c ****             CySysClkIloStart();
 708:.\Generated_Source\PSoC4/CyLib.c ****         }
 709:.\Generated_Source\PSoC4/CyLib.c **** 
 710:.\Generated_Source\PSoC4/CyLib.c ****         configRegValue = CY_SYS_WDT_CONFIG_REG;
 711:.\Generated_Source\PSoC4/CyLib.c ****         configRegValue &= ((uint32)(~(CY_SYS_WDT_CASCADE_01|CY_SYS_WDT_CASCADE_12)));
 712:.\Generated_Source\PSoC4/CyLib.c ****         configRegValue |= cascadeMask;
 713:.\Generated_Source\PSoC4/CyLib.c ****         CY_SYS_WDT_CONFIG_REG = configRegValue;
 714:.\Generated_Source\PSoC4/CyLib.c ****     }
 715:.\Generated_Source\PSoC4/CyLib.c **** }
 716:.\Generated_Source\PSoC4/CyLib.c **** 
 717:.\Generated_Source\PSoC4/CyLib.c **** 
 718:.\Generated_Source\PSoC4/CyLib.c **** /*******************************************************************************
 719:.\Generated_Source\PSoC4/CyLib.c **** * Function Name: CySysWdtReadCascade
 720:.\Generated_Source\PSoC4/CyLib.c **** ********************************************************************************
 721:.\Generated_Source\PSoC4/CyLib.c **** *
 722:.\Generated_Source\PSoC4/CyLib.c **** * Summary:
 723:.\Generated_Source\PSoC4/CyLib.c **** *   Reads the two WDT cascade values returning a mask of the bits set.
 724:.\Generated_Source\PSoC4/CyLib.c **** *
 725:.\Generated_Source\PSoC4/CyLib.c **** * Parameters:
 726:.\Generated_Source\PSoC4/CyLib.c **** *   None
 727:.\Generated_Source\PSoC4/CyLib.c **** *
 728:.\Generated_Source\PSoC4/CyLib.c **** * Return:
 729:.\Generated_Source\PSoC4/CyLib.c **** *   Mask of cascade values set.
 730:.\Generated_Source\PSoC4/CyLib.c **** *   Value    Define                     Cascade
 731:.\Generated_Source\PSoC4/CyLib.c **** *   0        CY_SYS_WDT_CASCADE_NONE    Neither
 732:.\Generated_Source\PSoC4/CyLib.c **** *   1<<3     CY_SYS_WDT_CASCADE_01      Cascade 01
 733:.\Generated_Source\PSoC4/CyLib.c **** *   1<<11    CY_SYS_WDT_CASCADE_12      Cascade 12
 734:.\Generated_Source\PSoC4/CyLib.c **** *
 735:.\Generated_Source\PSoC4/CyLib.c **** *******************************************************************************/
 736:.\Generated_Source\PSoC4/CyLib.c **** uint32 CySysWdtReadCascade(void)
 737:.\Generated_Source\PSoC4/CyLib.c **** {
 738:.\Generated_Source\PSoC4/CyLib.c ****     return (CY_SYS_WDT_CONFIG_REG & (CY_SYS_WDT_CASCADE_01 | CY_SYS_WDT_CASCADE_12));
ARM GAS  C:\Users\asha\AppData\Local\Temp\ccSrRbz4.s 			page 18


 739:.\Generated_Source\PSoC4/CyLib.c **** }
 740:.\Generated_Source\PSoC4/CyLib.c **** 
 741:.\Generated_Source\PSoC4/CyLib.c **** 
 742:.\Generated_Source\PSoC4/CyLib.c **** /*******************************************************************************
 743:.\Generated_Source\PSoC4/CyLib.c **** * Function Name: CySysWdtWriteMatch
 744:.\Generated_Source\PSoC4/CyLib.c **** ********************************************************************************
 745:.\Generated_Source\PSoC4/CyLib.c **** *
 746:.\Generated_Source\PSoC4/CyLib.c **** * Summary:
 747:.\Generated_Source\PSoC4/CyLib.c **** *  Configures the WDT counter match comparison value.
 748:.\Generated_Source\PSoC4/CyLib.c **** *
 749:.\Generated_Source\PSoC4/CyLib.c **** * Parameters:
 750:.\Generated_Source\PSoC4/CyLib.c **** *  counterNum:
 751:.\Generated_Source\PSoC4/CyLib.c **** *   Valid range [0-1]. Number of the WDT counter. Match values are not
 752:.\Generated_Source\PSoC4/CyLib.c **** *   supported by counter 2.
 753:.\Generated_Source\PSoC4/CyLib.c **** *
 754:.\Generated_Source\PSoC4/CyLib.c **** *  match:
 755:.\Generated_Source\PSoC4/CyLib.c **** *   Valid range [0-65535]. Value to be used to match against the counter.
 756:.\Generated_Source\PSoC4/CyLib.c **** *
 757:.\Generated_Source\PSoC4/CyLib.c **** * Return:
 758:.\Generated_Source\PSoC4/CyLib.c **** *   None
 759:.\Generated_Source\PSoC4/CyLib.c **** *
 760:.\Generated_Source\PSoC4/CyLib.c **** * Side effects:
 761:.\Generated_Source\PSoC4/CyLib.c **** *   This API enables ILO, if it was disabled.
 762:.\Generated_Source\PSoC4/CyLib.c **** *
 763:.\Generated_Source\PSoC4/CyLib.c **** *******************************************************************************/
 764:.\Generated_Source\PSoC4/CyLib.c **** void CySysWdtWriteMatch(uint32 counterNum, uint32 match)
 765:.\Generated_Source\PSoC4/CyLib.c **** {
 766:.\Generated_Source\PSoC4/CyLib.c ****     uint32 regValue;
 767:.\Generated_Source\PSoC4/CyLib.c **** 
 768:.\Generated_Source\PSoC4/CyLib.c ****     CYASSERT((counterNum == CY_SYS_WDT_COUNTER0) ||
 769:.\Generated_Source\PSoC4/CyLib.c ****                                          (counterNum == CY_SYS_WDT_COUNTER1));
 770:.\Generated_Source\PSoC4/CyLib.c **** 
 771:.\Generated_Source\PSoC4/CyLib.c ****     /* Configuring the WDT involves passing control signals between clock domains,
 772:.\Generated_Source\PSoC4/CyLib.c ****     * which requires the ILO to be enabled.
 773:.\Generated_Source\PSoC4/CyLib.c ****     */
 774:.\Generated_Source\PSoC4/CyLib.c ****     if (0u == (CY_SYS_CLK_ILO_CONFIG_REG & CY_SYS_CLK_ILO_CONFIG_ENABLE))
 775:.\Generated_Source\PSoC4/CyLib.c ****     {
 776:.\Generated_Source\PSoC4/CyLib.c ****         CySysClkIloStart();
 777:.\Generated_Source\PSoC4/CyLib.c ****     }
 778:.\Generated_Source\PSoC4/CyLib.c **** 
 779:.\Generated_Source\PSoC4/CyLib.c ****     /* Delay ~ 3LFCK in order to male sure previos changes are applied */
 780:.\Generated_Source\PSoC4/CyLib.c ****     CyDelayUs(CY_SYS_WDT_3LFCLK_DELAY_US);
 781:.\Generated_Source\PSoC4/CyLib.c **** 
 782:.\Generated_Source\PSoC4/CyLib.c ****     regValue = CY_SYS_WDT_MATCH_REG;
 783:.\Generated_Source\PSoC4/CyLib.c ****     regValue &= (uint32)~((uint32)(CY_SYS_WDT_LOWER_16BITS_MASK << (counterNum * CY_SYS_WDT_CNT_MAT
 784:.\Generated_Source\PSoC4/CyLib.c ****     CY_SYS_WDT_MATCH_REG = (regValue | (match << (counterNum * CY_SYS_WDT_CNT_MATCH_SHIFT)));
 785:.\Generated_Source\PSoC4/CyLib.c **** }
 786:.\Generated_Source\PSoC4/CyLib.c **** 
 787:.\Generated_Source\PSoC4/CyLib.c **** 
 788:.\Generated_Source\PSoC4/CyLib.c **** /*******************************************************************************
 789:.\Generated_Source\PSoC4/CyLib.c **** * Function Name: CySysWdtWriteToggleBit
 790:.\Generated_Source\PSoC4/CyLib.c **** ********************************************************************************
 791:.\Generated_Source\PSoC4/CyLib.c **** *
 792:.\Generated_Source\PSoC4/CyLib.c **** * Summary:
 793:.\Generated_Source\PSoC4/CyLib.c **** *  Configures which bit in the WDT counter 2 to monitor for a toggle.  When that
 794:.\Generated_Source\PSoC4/CyLib.c **** *  bit toggles an interrupt is generated if the mode for counter 2 has
 795:.\Generated_Source\PSoC4/CyLib.c **** *  interrupts enabled.
ARM GAS  C:\Users\asha\AppData\Local\Temp\ccSrRbz4.s 			page 19


 796:.\Generated_Source\PSoC4/CyLib.c **** *
 797:.\Generated_Source\PSoC4/CyLib.c **** * Parameters:
 798:.\Generated_Source\PSoC4/CyLib.c **** *  bit:
 799:.\Generated_Source\PSoC4/CyLib.c **** *   Valid range [0-31].  Counter 2 bit to monitor for a toggle.
 800:.\Generated_Source\PSoC4/CyLib.c **** *
 801:.\Generated_Source\PSoC4/CyLib.c **** * Return:
 802:.\Generated_Source\PSoC4/CyLib.c **** *   None
 803:.\Generated_Source\PSoC4/CyLib.c **** *
 804:.\Generated_Source\PSoC4/CyLib.c **** * Side effects:
 805:.\Generated_Source\PSoC4/CyLib.c **** *   WDT counter 2 should be disabled. Othetwise function
 806:.\Generated_Source\PSoC4/CyLib.c **** *   call will have no effect.
 807:.\Generated_Source\PSoC4/CyLib.c **** *   This API enables ILO, if it was disabled.
 808:.\Generated_Source\PSoC4/CyLib.c **** *
 809:.\Generated_Source\PSoC4/CyLib.c **** *******************************************************************************/
 810:.\Generated_Source\PSoC4/CyLib.c **** void CySysWdtWriteToggleBit(uint32 bits)
 811:.\Generated_Source\PSoC4/CyLib.c **** {
 812:.\Generated_Source\PSoC4/CyLib.c ****     uint32 configRegValue;
 813:.\Generated_Source\PSoC4/CyLib.c **** 
 814:.\Generated_Source\PSoC4/CyLib.c ****     if (0u == CySysWdtReadEnabledStatus(CY_SYS_WDT_COUNTER2))
 815:.\Generated_Source\PSoC4/CyLib.c ****     {
 816:.\Generated_Source\PSoC4/CyLib.c ****         /* Configuring the WDT involves passing control signals between clock domains,
 817:.\Generated_Source\PSoC4/CyLib.c ****         * which requires the ILO to be enabled.
 818:.\Generated_Source\PSoC4/CyLib.c ****         */
 819:.\Generated_Source\PSoC4/CyLib.c ****         if (0u == (CY_SYS_CLK_ILO_CONFIG_REG & CY_SYS_CLK_ILO_CONFIG_ENABLE))
 820:.\Generated_Source\PSoC4/CyLib.c ****         {
 821:.\Generated_Source\PSoC4/CyLib.c ****             CySysClkIloStart();
 822:.\Generated_Source\PSoC4/CyLib.c ****         }
 823:.\Generated_Source\PSoC4/CyLib.c **** 
 824:.\Generated_Source\PSoC4/CyLib.c ****         configRegValue = CY_SYS_WDT_CONFIG_REG;
 825:.\Generated_Source\PSoC4/CyLib.c ****         configRegValue &= (uint32)(~((uint32)(CY_SYS_WDT_CONFIG_BITS2_MASK << CY_SYS_WDT_CONFIG_BIT
 826:.\Generated_Source\PSoC4/CyLib.c ****         configRegValue |= ((bits & CY_SYS_WDT_CONFIG_BITS2_MASK) << CY_SYS_WDT_CONFIG_BITS2_POS);
 827:.\Generated_Source\PSoC4/CyLib.c ****         CY_SYS_WDT_CONFIG_REG = configRegValue;
 828:.\Generated_Source\PSoC4/CyLib.c ****     }
 829:.\Generated_Source\PSoC4/CyLib.c **** }
 830:.\Generated_Source\PSoC4/CyLib.c **** 
 831:.\Generated_Source\PSoC4/CyLib.c **** 
 832:.\Generated_Source\PSoC4/CyLib.c **** /*******************************************************************************
 833:.\Generated_Source\PSoC4/CyLib.c **** * Function Name: CySysWdtReadToggleBit
 834:.\Generated_Source\PSoC4/CyLib.c **** ********************************************************************************
 835:.\Generated_Source\PSoC4/CyLib.c **** *
 836:.\Generated_Source\PSoC4/CyLib.c **** * Summary:
 837:.\Generated_Source\PSoC4/CyLib.c **** *  Reads which bit in the WDT counter 2 is monitored for a toggle.
 838:.\Generated_Source\PSoC4/CyLib.c **** *
 839:.\Generated_Source\PSoC4/CyLib.c **** * Parameters:
 840:.\Generated_Source\PSoC4/CyLib.c **** *  None
 841:.\Generated_Source\PSoC4/CyLib.c **** *
 842:.\Generated_Source\PSoC4/CyLib.c **** * Return:
 843:.\Generated_Source\PSoC4/CyLib.c **** *  Bit that is monitored (range of 0 to 31)
 844:.\Generated_Source\PSoC4/CyLib.c **** *
 845:.\Generated_Source\PSoC4/CyLib.c **** *******************************************************************************/
 846:.\Generated_Source\PSoC4/CyLib.c **** uint32 CySysWdtReadToggleBit(void)
 847:.\Generated_Source\PSoC4/CyLib.c **** {
 848:.\Generated_Source\PSoC4/CyLib.c ****     return ((CY_SYS_WDT_CONFIG_REG >> CY_SYS_WDT_CONFIG_BITS2_POS) & CY_SYS_WDT_CONFIG_BITS2_MASK);
 849:.\Generated_Source\PSoC4/CyLib.c **** }
 850:.\Generated_Source\PSoC4/CyLib.c **** 
 851:.\Generated_Source\PSoC4/CyLib.c **** 
 852:.\Generated_Source\PSoC4/CyLib.c **** /*******************************************************************************
ARM GAS  C:\Users\asha\AppData\Local\Temp\ccSrRbz4.s 			page 20


 853:.\Generated_Source\PSoC4/CyLib.c **** * Function Name: CySysWdtReadMatch
 854:.\Generated_Source\PSoC4/CyLib.c **** ********************************************************************************
 855:.\Generated_Source\PSoC4/CyLib.c **** *
 856:.\Generated_Source\PSoC4/CyLib.c **** * Summary:
 857:.\Generated_Source\PSoC4/CyLib.c **** *  Reads the WDT counter match comparison value.
 858:.\Generated_Source\PSoC4/CyLib.c **** *
 859:.\Generated_Source\PSoC4/CyLib.c **** * Parameters:
 860:.\Generated_Source\PSoC4/CyLib.c **** *  counterNum: Valid range [0-1].  Number of the WDT counter.  Match values
 861:.\Generated_Source\PSoC4/CyLib.c **** *               are not supported by counter 2.
 862:.\Generated_Source\PSoC4/CyLib.c **** *
 863:.\Generated_Source\PSoC4/CyLib.c **** * Return:
 864:.\Generated_Source\PSoC4/CyLib.c **** *  Counter match value
 865:.\Generated_Source\PSoC4/CyLib.c **** *
 866:.\Generated_Source\PSoC4/CyLib.c **** *******************************************************************************/
 867:.\Generated_Source\PSoC4/CyLib.c **** uint32 CySysWdtReadMatch(uint32 counterNum)
 868:.\Generated_Source\PSoC4/CyLib.c **** {
 869:.\Generated_Source\PSoC4/CyLib.c ****     CYASSERT((counterNum == CY_SYS_WDT_COUNTER0) ||
 870:.\Generated_Source\PSoC4/CyLib.c ****                                          (counterNum == CY_SYS_WDT_COUNTER1));
 871:.\Generated_Source\PSoC4/CyLib.c **** 
 872:.\Generated_Source\PSoC4/CyLib.c ****     return ((uint32)(CY_SYS_WDT_MATCH_REG >> (counterNum * CY_SYS_WDT_CNT_MATCH_SHIFT)) & CY_SYS_WD
 873:.\Generated_Source\PSoC4/CyLib.c **** }
 874:.\Generated_Source\PSoC4/CyLib.c **** 
 875:.\Generated_Source\PSoC4/CyLib.c **** 
 876:.\Generated_Source\PSoC4/CyLib.c **** /*******************************************************************************
 877:.\Generated_Source\PSoC4/CyLib.c **** * Function Name: CySysWdtReadCount
 878:.\Generated_Source\PSoC4/CyLib.c **** ********************************************************************************
 879:.\Generated_Source\PSoC4/CyLib.c **** *
 880:.\Generated_Source\PSoC4/CyLib.c **** * Summary:
 881:.\Generated_Source\PSoC4/CyLib.c **** *  Reads the current WDT counter value.
 882:.\Generated_Source\PSoC4/CyLib.c **** *
 883:.\Generated_Source\PSoC4/CyLib.c **** * Parameters:
 884:.\Generated_Source\PSoC4/CyLib.c **** *  counterNum: Valid range [0-2].  Number of the WDT counter.
 885:.\Generated_Source\PSoC4/CyLib.c **** *
 886:.\Generated_Source\PSoC4/CyLib.c **** * Return:
 887:.\Generated_Source\PSoC4/CyLib.c **** *  Live counter value.  Counter 0 and 1 are 16 bit counters and counter
 888:.\Generated_Source\PSoC4/CyLib.c **** *  2 is a 32 bit counter.
 889:.\Generated_Source\PSoC4/CyLib.c **** *
 890:.\Generated_Source\PSoC4/CyLib.c **** *******************************************************************************/
 891:.\Generated_Source\PSoC4/CyLib.c **** uint32 CySysWdtReadCount(uint32 counterNum)
 892:.\Generated_Source\PSoC4/CyLib.c **** {
 893:.\Generated_Source\PSoC4/CyLib.c ****     uint32 regValue = 0u;
 894:.\Generated_Source\PSoC4/CyLib.c **** 
 895:.\Generated_Source\PSoC4/CyLib.c ****     switch(counterNum)
 896:.\Generated_Source\PSoC4/CyLib.c ****     {
 897:.\Generated_Source\PSoC4/CyLib.c ****         /* WDT Counter 0 */
 898:.\Generated_Source\PSoC4/CyLib.c ****         case 0u:
 899:.\Generated_Source\PSoC4/CyLib.c ****             regValue = CY_SYS_WDT_CTRLOW_REG & CY_SYS_WDT_LOWER_16BITS_MASK;
 900:.\Generated_Source\PSoC4/CyLib.c ****         break;
 901:.\Generated_Source\PSoC4/CyLib.c **** 
 902:.\Generated_Source\PSoC4/CyLib.c ****         /* WDT Counter 1 */
 903:.\Generated_Source\PSoC4/CyLib.c ****         case 1u:
 904:.\Generated_Source\PSoC4/CyLib.c ****             regValue = (CY_SYS_WDT_CTRLOW_REG >> CY_SYS_WDT_CNT_MATCH_SHIFT) & CY_SYS_WDT_LOWER_16B
 905:.\Generated_Source\PSoC4/CyLib.c ****         break;
 906:.\Generated_Source\PSoC4/CyLib.c **** 
 907:.\Generated_Source\PSoC4/CyLib.c ****         /* WDT Counter 2 */
 908:.\Generated_Source\PSoC4/CyLib.c ****         case 2u:
 909:.\Generated_Source\PSoC4/CyLib.c ****             regValue = CY_SYS_WDT_CTRHIGH_REG;
ARM GAS  C:\Users\asha\AppData\Local\Temp\ccSrRbz4.s 			page 21


 910:.\Generated_Source\PSoC4/CyLib.c ****         break;
 911:.\Generated_Source\PSoC4/CyLib.c **** 
 912:.\Generated_Source\PSoC4/CyLib.c ****         default:
 913:.\Generated_Source\PSoC4/CyLib.c ****             CYASSERT(0u != 0u);
 914:.\Generated_Source\PSoC4/CyLib.c ****         break;
 915:.\Generated_Source\PSoC4/CyLib.c ****     }
 916:.\Generated_Source\PSoC4/CyLib.c **** 
 917:.\Generated_Source\PSoC4/CyLib.c ****     return (regValue);
 918:.\Generated_Source\PSoC4/CyLib.c **** }
 919:.\Generated_Source\PSoC4/CyLib.c **** 
 920:.\Generated_Source\PSoC4/CyLib.c **** 
 921:.\Generated_Source\PSoC4/CyLib.c **** /*******************************************************************************
 922:.\Generated_Source\PSoC4/CyLib.c **** * Function Name: CySysWdtGetInterruptSource
 923:.\Generated_Source\PSoC4/CyLib.c **** ********************************************************************************
 924:.\Generated_Source\PSoC4/CyLib.c **** *
 925:.\Generated_Source\PSoC4/CyLib.c **** * Summary:
 926:.\Generated_Source\PSoC4/CyLib.c **** *   Reads a mask containing all the WDT counters interrupts that are currently
 927:.\Generated_Source\PSoC4/CyLib.c **** *   set by hardware, if corresponding mode is selected.
 928:.\Generated_Source\PSoC4/CyLib.c **** *
 929:.\Generated_Source\PSoC4/CyLib.c **** * Parameters:
 930:.\Generated_Source\PSoC4/CyLib.c **** *   None
 931:.\Generated_Source\PSoC4/CyLib.c **** *
 932:.\Generated_Source\PSoC4/CyLib.c **** * Return:
 933:.\Generated_Source\PSoC4/CyLib.c **** *   Mask of interrupts set.
 934:.\Generated_Source\PSoC4/CyLib.c **** *   Value    Define                    Counter
 935:.\Generated_Source\PSoC4/CyLib.c **** *   1<<2     CY_SYS_WDT_COUNTER0_INT    0
 936:.\Generated_Source\PSoC4/CyLib.c **** *   1<<10    CY_SYS_WDT_COUNTER1_INT    1
 937:.\Generated_Source\PSoC4/CyLib.c **** *   1<<18    CY_SYS_WDT_COUNTER2_INT    2
 938:.\Generated_Source\PSoC4/CyLib.c **** *
 939:.\Generated_Source\PSoC4/CyLib.c **** *******************************************************************************/
 940:.\Generated_Source\PSoC4/CyLib.c **** uint32 CySysWdtGetInterruptSource(void)
 941:.\Generated_Source\PSoC4/CyLib.c **** {
 942:.\Generated_Source\PSoC4/CyLib.c ****     return (CY_SYS_WDT_CONTROL_REG & (CY_SYS_WDT_COUNTER0_INT | CY_SYS_WDT_COUNTER1_INT | CY_SYS_WD
 943:.\Generated_Source\PSoC4/CyLib.c **** }
 944:.\Generated_Source\PSoC4/CyLib.c **** 
 945:.\Generated_Source\PSoC4/CyLib.c **** 
 946:.\Generated_Source\PSoC4/CyLib.c **** /*******************************************************************************
 947:.\Generated_Source\PSoC4/CyLib.c **** * Function Name: CySysWdtClearInterrupt
 948:.\Generated_Source\PSoC4/CyLib.c **** ********************************************************************************
 949:.\Generated_Source\PSoC4/CyLib.c **** *
 950:.\Generated_Source\PSoC4/CyLib.c **** * Summary:
 951:.\Generated_Source\PSoC4/CyLib.c **** *   Clears all WDT counter interrupts set in the mask. Calling this API also
 952:.\Generated_Source\PSoC4/CyLib.c **** *   prevents Reset from happening when counter mode is set to generate
 953:.\Generated_Source\PSoC4/CyLib.c **** *   3 interrupts and then reset device.
 954:.\Generated_Source\PSoC4/CyLib.c **** *   All WDT interrupts are to be cleared by firmware, otherwise interrupts will
 955:.\Generated_Source\PSoC4/CyLib.c **** *   be generated continuously.
 956:.\Generated_Source\PSoC4/CyLib.c **** *
 957:.\Generated_Source\PSoC4/CyLib.c **** * Parameters:
 958:.\Generated_Source\PSoC4/CyLib.c **** *   counterMask: Mask of all counters to enable
 959:.\Generated_Source\PSoC4/CyLib.c **** *   Value    Define                    Counter
 960:.\Generated_Source\PSoC4/CyLib.c **** *   1<<2     CY_SYS_WDT_COUNTER0_INT    0
 961:.\Generated_Source\PSoC4/CyLib.c **** *   1<<10    CY_SYS_WDT_COUNTER1_INT    1
 962:.\Generated_Source\PSoC4/CyLib.c **** *   1<<18    CY_SYS_WDT_COUNTER2_INT    2
 963:.\Generated_Source\PSoC4/CyLib.c **** *
 964:.\Generated_Source\PSoC4/CyLib.c **** * Return:
 965:.\Generated_Source\PSoC4/CyLib.c **** *   None
 966:.\Generated_Source\PSoC4/CyLib.c **** *
ARM GAS  C:\Users\asha\AppData\Local\Temp\ccSrRbz4.s 			page 22


 967:.\Generated_Source\PSoC4/CyLib.c **** * Side effects:
 968:.\Generated_Source\PSoC4/CyLib.c **** *   This API enables ILO, if it was disabled and temporary removes Watchdog
 969:.\Generated_Source\PSoC4/CyLib.c **** *   lock, if it was set, and restores lock state, after cleaning WDT interrupts,
 970:.\Generated_Source\PSoC4/CyLib.c **** *   that are set in mask.
 971:.\Generated_Source\PSoC4/CyLib.c **** *
 972:.\Generated_Source\PSoC4/CyLib.c **** *******************************************************************************/
 973:.\Generated_Source\PSoC4/CyLib.c **** void CySysWdtClearInterrupt(uint32 counterMask)
 974:.\Generated_Source\PSoC4/CyLib.c **** {
 975:.\Generated_Source\PSoC4/CyLib.c ****     uint8 interruptState;
 976:.\Generated_Source\PSoC4/CyLib.c ****     uint32 wdtLockState;
 977:.\Generated_Source\PSoC4/CyLib.c **** 
 978:.\Generated_Source\PSoC4/CyLib.c ****     interruptState = CyEnterCriticalSection();
 979:.\Generated_Source\PSoC4/CyLib.c **** 
 980:.\Generated_Source\PSoC4/CyLib.c ****     /* Configuring the WDT involves passing control signals between clock domains,
 981:.\Generated_Source\PSoC4/CyLib.c ****     * which requires the ILO to be enabled.
 982:.\Generated_Source\PSoC4/CyLib.c ****     */
 983:.\Generated_Source\PSoC4/CyLib.c ****     if (0u == (CY_SYS_CLK_ILO_CONFIG_REG & CY_SYS_CLK_ILO_CONFIG_ENABLE))
 984:.\Generated_Source\PSoC4/CyLib.c ****     {
 985:.\Generated_Source\PSoC4/CyLib.c ****         CySysClkIloStart();
 986:.\Generated_Source\PSoC4/CyLib.c ****     }
 987:.\Generated_Source\PSoC4/CyLib.c **** 
 988:.\Generated_Source\PSoC4/CyLib.c ****     if ((CY_SYS_CLK_SELECT_REG & (uint32)(CY_SYS_WDT_CLK_LOCK_BITS_MASK)) == CY_SYS_WDT_CLK_LOCK_BI
 989:.\Generated_Source\PSoC4/CyLib.c ****     {
 990:.\Generated_Source\PSoC4/CyLib.c ****         wdtLockState = 1u;
 991:.\Generated_Source\PSoC4/CyLib.c **** 
 992:.\Generated_Source\PSoC4/CyLib.c ****         /* Removing WDT lock requires two writes */
 993:.\Generated_Source\PSoC4/CyLib.c ****         CY_SYS_CLK_SELECT_REG = ((CY_SYS_CLK_SELECT_REG & (uint32)(~CY_SYS_WDT_CLK_LOCK_BITS_MASK))
 994:.\Generated_Source\PSoC4/CyLib.c ****                 CY_SYS_WDT_CLK_LOCK_BIT0);
 995:.\Generated_Source\PSoC4/CyLib.c **** 
 996:.\Generated_Source\PSoC4/CyLib.c ****         CY_SYS_CLK_SELECT_REG = ((CY_SYS_CLK_SELECT_REG & (uint32)(~CY_SYS_WDT_CLK_LOCK_BITS_MASK))
 997:.\Generated_Source\PSoC4/CyLib.c ****                 CY_SYS_WDT_CLK_LOCK_BIT1);
 998:.\Generated_Source\PSoC4/CyLib.c ****     }
 999:.\Generated_Source\PSoC4/CyLib.c ****     else
1000:.\Generated_Source\PSoC4/CyLib.c ****     {
1001:.\Generated_Source\PSoC4/CyLib.c ****         wdtLockState = 0u;
1002:.\Generated_Source\PSoC4/CyLib.c ****     }
1003:.\Generated_Source\PSoC4/CyLib.c **** 
1004:.\Generated_Source\PSoC4/CyLib.c ****     /* Set the new WDT control register value */
1005:.\Generated_Source\PSoC4/CyLib.c ****     CY_SYS_WDT_CONTROL_REG |= (counterMask & (CY_SYS_WDT_COUNTER0_INT |
1006:.\Generated_Source\PSoC4/CyLib.c ****         CY_SYS_WDT_COUNTER1_INT | CY_SYS_WDT_COUNTER2_INT));
1007:.\Generated_Source\PSoC4/CyLib.c **** 
1008:.\Generated_Source\PSoC4/CyLib.c ****     if (1u == wdtLockState)
1009:.\Generated_Source\PSoC4/CyLib.c ****     {
1010:.\Generated_Source\PSoC4/CyLib.c ****         /* CLK_SELECT register's bits 15:14 are WDT_LOCK */
1011:.\Generated_Source\PSoC4/CyLib.c ****         CY_SYS_CLK_SELECT_REG = (CY_SYS_CLK_SELECT_REG & (uint32)(~CY_SYS_WDT_CLK_LOCK_BITS_MASK)) 
1012:.\Generated_Source\PSoC4/CyLib.c ****                  CY_SYS_WDT_CLK_LOCK_BITS_MASK;
1013:.\Generated_Source\PSoC4/CyLib.c ****     }
1014:.\Generated_Source\PSoC4/CyLib.c **** 
1015:.\Generated_Source\PSoC4/CyLib.c ****     CyExitCriticalSection(interruptState);
1016:.\Generated_Source\PSoC4/CyLib.c **** }
1017:.\Generated_Source\PSoC4/CyLib.c **** 
1018:.\Generated_Source\PSoC4/CyLib.c **** 
1019:.\Generated_Source\PSoC4/CyLib.c **** /*******************************************************************************
1020:.\Generated_Source\PSoC4/CyLib.c **** * Function Name: CySysWdtResetCounters
1021:.\Generated_Source\PSoC4/CyLib.c **** ********************************************************************************
1022:.\Generated_Source\PSoC4/CyLib.c **** *
1023:.\Generated_Source\PSoC4/CyLib.c **** * Summary:
ARM GAS  C:\Users\asha\AppData\Local\Temp\ccSrRbz4.s 			page 23


1024:.\Generated_Source\PSoC4/CyLib.c **** *  Resets all WDT counters set in the mask.
1025:.\Generated_Source\PSoC4/CyLib.c **** *
1026:.\Generated_Source\PSoC4/CyLib.c **** * Parameters:
1027:.\Generated_Source\PSoC4/CyLib.c **** *  counterMask: Mask of all counters to reset.
1028:.\Generated_Source\PSoC4/CyLib.c **** *   Value    Define                       Counter
1029:.\Generated_Source\PSoC4/CyLib.c **** *   1<<3     CY_SYS_WDT_COUNTER0_RESET    0
1030:.\Generated_Source\PSoC4/CyLib.c **** *   1<<11    CY_SYS_WDT_COUNTER1_RESET    1
1031:.\Generated_Source\PSoC4/CyLib.c **** *   1<<19    CY_SYS_WDT_COUNTER2_RESET    2
1032:.\Generated_Source\PSoC4/CyLib.c **** *
1033:.\Generated_Source\PSoC4/CyLib.c **** * Return:
1034:.\Generated_Source\PSoC4/CyLib.c **** *   None
1035:.\Generated_Source\PSoC4/CyLib.c **** *
1036:.\Generated_Source\PSoC4/CyLib.c **** * Side effects:
1037:.\Generated_Source\PSoC4/CyLib.c **** *   This API enables ILO, if it was disabled, this API call will not reset
1038:.\Generated_Source\PSoC4/CyLib.c **** *   counter values, if Watchdog is locked.
1039:.\Generated_Source\PSoC4/CyLib.c **** *
1040:.\Generated_Source\PSoC4/CyLib.c **** *******************************************************************************/
1041:.\Generated_Source\PSoC4/CyLib.c **** void CySysWdtResetCounters(uint32 countersMask)
1042:.\Generated_Source\PSoC4/CyLib.c **** {
1043:.\Generated_Source\PSoC4/CyLib.c ****     /* Configuring the WDT involves passing control signals between clock domains,
1044:.\Generated_Source\PSoC4/CyLib.c ****     * which requires the ILO to be enabled.
1045:.\Generated_Source\PSoC4/CyLib.c ****     */
1046:.\Generated_Source\PSoC4/CyLib.c ****     if (0u == (CY_SYS_CLK_ILO_CONFIG_REG & CY_SYS_CLK_ILO_CONFIG_ENABLE))
1047:.\Generated_Source\PSoC4/CyLib.c ****     {
1048:.\Generated_Source\PSoC4/CyLib.c ****         CySysClkIloStart();
1049:.\Generated_Source\PSoC4/CyLib.c ****     }
1050:.\Generated_Source\PSoC4/CyLib.c **** 
1051:.\Generated_Source\PSoC4/CyLib.c ****     /* Set the new WDT reset value */
1052:.\Generated_Source\PSoC4/CyLib.c ****     CY_SYS_WDT_CONTROL_REG |= (countersMask & (CY_SYS_WDT_COUNTER0_RESET |
1053:.\Generated_Source\PSoC4/CyLib.c ****         CY_SYS_WDT_COUNTER1_RESET | CY_SYS_WDT_COUNTER2_RESET));
1054:.\Generated_Source\PSoC4/CyLib.c **** }
1055:.\Generated_Source\PSoC4/CyLib.c **** 
1056:.\Generated_Source\PSoC4/CyLib.c **** 
1057:.\Generated_Source\PSoC4/CyLib.c **** /*******************************************************************************
1058:.\Generated_Source\PSoC4/CyLib.c **** * Function Name: CySysLvdEnable
1059:.\Generated_Source\PSoC4/CyLib.c **** ********************************************************************************
1060:.\Generated_Source\PSoC4/CyLib.c **** *
1061:.\Generated_Source\PSoC4/CyLib.c **** * Summary:
1062:.\Generated_Source\PSoC4/CyLib.c **** *  Enables the output of the low-voltage monitor when Vddd is at or below the
1063:.\Generated_Source\PSoC4/CyLib.c **** *  trip point, configures device to generate an interrupt, and sets the voltage
1064:.\Generated_Source\PSoC4/CyLib.c **** *  trip level.
1065:.\Generated_Source\PSoC4/CyLib.c **** *
1066:.\Generated_Source\PSoC4/CyLib.c **** * Parameters:
1067:.\Generated_Source\PSoC4/CyLib.c **** *  threshold: Threshold selection for Low Voltage Detect circuit.
1068:.\Generated_Source\PSoC4/CyLib.c **** *  Threshold variation is +/- 2.5% from these typical voltage choices.
1069:.\Generated_Source\PSoC4/CyLib.c **** *         Define                     Voltage threshold
1070:.\Generated_Source\PSoC4/CyLib.c **** *    CY_LVD_THRESHOLD_1_75_V       1.7500 V
1071:.\Generated_Source\PSoC4/CyLib.c **** *    CY_LVD_THRESHOLD_1_80_V       1.8000 V
1072:.\Generated_Source\PSoC4/CyLib.c **** *    CY_LVD_THRESHOLD_1_90_V       1.9000 V
1073:.\Generated_Source\PSoC4/CyLib.c **** *    CY_LVD_THRESHOLD_2_00_V       2.0000 V
1074:.\Generated_Source\PSoC4/CyLib.c **** *    CY_LVD_THRESHOLD_2_10_V       2.1000 V
1075:.\Generated_Source\PSoC4/CyLib.c **** *    CY_LVD_THRESHOLD_2_20_V       2.2000 V
1076:.\Generated_Source\PSoC4/CyLib.c **** *    CY_LVD_THRESHOLD_2_30_V       2.3000 V
1077:.\Generated_Source\PSoC4/CyLib.c **** *    CY_LVD_THRESHOLD_2_40_V       2.4000 V
1078:.\Generated_Source\PSoC4/CyLib.c **** *    CY_LVD_THRESHOLD_2_50_V       2.5000 V
1079:.\Generated_Source\PSoC4/CyLib.c **** *    CY_LVD_THRESHOLD_2_60_V       2.6000 V
1080:.\Generated_Source\PSoC4/CyLib.c **** *    CY_LVD_THRESHOLD_2_70_V       2.7000 V
ARM GAS  C:\Users\asha\AppData\Local\Temp\ccSrRbz4.s 			page 24


1081:.\Generated_Source\PSoC4/CyLib.c **** *    CY_LVD_THRESHOLD_2_80_V       2.8000 V
1082:.\Generated_Source\PSoC4/CyLib.c **** *    CY_LVD_THRESHOLD_2_90_V       2.9000 V
1083:.\Generated_Source\PSoC4/CyLib.c **** *    CY_LVD_THRESHOLD_3_00_V       3.0000 V
1084:.\Generated_Source\PSoC4/CyLib.c **** *    CY_LVD_THRESHOLD_3_20_V       3.2000 V
1085:.\Generated_Source\PSoC4/CyLib.c **** *    CY_LVD_THRESHOLD_4_50_V       4.5000 V
1086:.\Generated_Source\PSoC4/CyLib.c **** *
1087:.\Generated_Source\PSoC4/CyLib.c **** * Return:
1088:.\Generated_Source\PSoC4/CyLib.c **** *  None
1089:.\Generated_Source\PSoC4/CyLib.c **** *
1090:.\Generated_Source\PSoC4/CyLib.c **** *******************************************************************************/
1091:.\Generated_Source\PSoC4/CyLib.c **** void CySysLvdEnable(uint32 threshold)
1092:.\Generated_Source\PSoC4/CyLib.c **** {
1093:.\Generated_Source\PSoC4/CyLib.c ****     /* Set threshold */
1094:.\Generated_Source\PSoC4/CyLib.c ****     CY_LVD_PWR_VMON_CONFIG_REG = (CY_LVD_PWR_VMON_CONFIG_REG & ~CY_LVD_PWR_VMON_CONFIG_LVD_SEL_MASK
1095:.\Generated_Source\PSoC4/CyLib.c ****             ((threshold << CY_LVD_PWR_VMON_CONFIG_LVD_SEL_SHIFT) & CY_LVD_PWR_VMON_CONFIG_LVD_SEL_M
1096:.\Generated_Source\PSoC4/CyLib.c **** 
1097:.\Generated_Source\PSoC4/CyLib.c ****     CY_LVD_PWR_VMON_CONFIG_REG |= CY_LVD_PWR_VMON_CONFIG_LVD_EN;
1098:.\Generated_Source\PSoC4/CyLib.c ****     CY_LVD_PWR_INTR_MASK_REG   |= CY_LVD_PROPAGATE_INT_TO_CPU;
1099:.\Generated_Source\PSoC4/CyLib.c **** }
1100:.\Generated_Source\PSoC4/CyLib.c **** 
1101:.\Generated_Source\PSoC4/CyLib.c **** 
1102:.\Generated_Source\PSoC4/CyLib.c **** /*******************************************************************************
1103:.\Generated_Source\PSoC4/CyLib.c **** * Function Name: CySysLvdDisable
1104:.\Generated_Source\PSoC4/CyLib.c **** ********************************************************************************
1105:.\Generated_Source\PSoC4/CyLib.c **** *
1106:.\Generated_Source\PSoC4/CyLib.c **** * Summary:
1107:.\Generated_Source\PSoC4/CyLib.c **** *  Disables the low voltage detection. Low voltage interrupt is disabled.
1108:.\Generated_Source\PSoC4/CyLib.c **** *
1109:.\Generated_Source\PSoC4/CyLib.c **** * Parameters:
1110:.\Generated_Source\PSoC4/CyLib.c **** *  None
1111:.\Generated_Source\PSoC4/CyLib.c **** *
1112:.\Generated_Source\PSoC4/CyLib.c **** * Return:
1113:.\Generated_Source\PSoC4/CyLib.c **** *  None
1114:.\Generated_Source\PSoC4/CyLib.c **** *
1115:.\Generated_Source\PSoC4/CyLib.c **** *******************************************************************************/
1116:.\Generated_Source\PSoC4/CyLib.c **** void CySysLvdDisable(void)
1117:.\Generated_Source\PSoC4/CyLib.c **** {
1118:.\Generated_Source\PSoC4/CyLib.c ****     CY_LVD_PWR_INTR_MASK_REG   &= ~CY_LVD_PROPAGATE_INT_TO_CPU;
1119:.\Generated_Source\PSoC4/CyLib.c ****     CY_LVD_PWR_VMON_CONFIG_REG &= ~CY_LVD_PWR_VMON_CONFIG_LVD_EN;
1120:.\Generated_Source\PSoC4/CyLib.c **** }
1121:.\Generated_Source\PSoC4/CyLib.c **** 
1122:.\Generated_Source\PSoC4/CyLib.c **** 
1123:.\Generated_Source\PSoC4/CyLib.c **** /*******************************************************************************
1124:.\Generated_Source\PSoC4/CyLib.c **** * Function Name: CySysLvdGetInterruptSource
1125:.\Generated_Source\PSoC4/CyLib.c **** ********************************************************************************
1126:.\Generated_Source\PSoC4/CyLib.c **** *
1127:.\Generated_Source\PSoC4/CyLib.c **** * Summary:
1128:.\Generated_Source\PSoC4/CyLib.c **** *  Gets the low voltage detection interrupt status (without clearing).
1129:.\Generated_Source\PSoC4/CyLib.c **** *
1130:.\Generated_Source\PSoC4/CyLib.c **** * Parameters:
1131:.\Generated_Source\PSoC4/CyLib.c **** *  None
1132:.\Generated_Source\PSoC4/CyLib.c **** *
1133:.\Generated_Source\PSoC4/CyLib.c **** * Return:
1134:.\Generated_Source\PSoC4/CyLib.c **** *  Interrupt request value:
1135:.\Generated_Source\PSoC4/CyLib.c **** *    CY_SYS_LVD_INT - Indicates an Low Voltage Detect interrupt
1136:.\Generated_Source\PSoC4/CyLib.c **** *
1137:.\Generated_Source\PSoC4/CyLib.c **** *******************************************************************************/
ARM GAS  C:\Users\asha\AppData\Local\Temp\ccSrRbz4.s 			page 25


1138:.\Generated_Source\PSoC4/CyLib.c **** uint32 CySysLvdGetInterruptSource(void)
1139:.\Generated_Source\PSoC4/CyLib.c **** {
1140:.\Generated_Source\PSoC4/CyLib.c ****     return (CY_LVD_PWR_INTR_REG & CY_SYS_LVD_INT);
1141:.\Generated_Source\PSoC4/CyLib.c **** }
1142:.\Generated_Source\PSoC4/CyLib.c **** 
1143:.\Generated_Source\PSoC4/CyLib.c **** 
1144:.\Generated_Source\PSoC4/CyLib.c **** /*******************************************************************************
1145:.\Generated_Source\PSoC4/CyLib.c **** * Function Name: CySysLvdClearInterrupt
1146:.\Generated_Source\PSoC4/CyLib.c **** ********************************************************************************
1147:.\Generated_Source\PSoC4/CyLib.c **** *
1148:.\Generated_Source\PSoC4/CyLib.c **** * Summary:
1149:.\Generated_Source\PSoC4/CyLib.c **** *  Clears the low voltage detection interrupt status.
1150:.\Generated_Source\PSoC4/CyLib.c **** *
1151:.\Generated_Source\PSoC4/CyLib.c **** * Parameters:
1152:.\Generated_Source\PSoC4/CyLib.c **** *  None
1153:.\Generated_Source\PSoC4/CyLib.c **** *
1154:.\Generated_Source\PSoC4/CyLib.c **** * Return:
1155:.\Generated_Source\PSoC4/CyLib.c **** *  None
1156:.\Generated_Source\PSoC4/CyLib.c **** *
1157:.\Generated_Source\PSoC4/CyLib.c **** *******************************************************************************/
1158:.\Generated_Source\PSoC4/CyLib.c **** void CySysLvdClearInterrupt(void)
1159:.\Generated_Source\PSoC4/CyLib.c **** {
1160:.\Generated_Source\PSoC4/CyLib.c ****     CY_LVD_PWR_INTR_REG = CY_SYS_LVD_INT;
1161:.\Generated_Source\PSoC4/CyLib.c **** }
1162:.\Generated_Source\PSoC4/CyLib.c **** 
1163:.\Generated_Source\PSoC4/CyLib.c **** 
1164:.\Generated_Source\PSoC4/CyLib.c **** /*******************************************************************************
1165:.\Generated_Source\PSoC4/CyLib.c **** * Function Name: CyDisableInts
1166:.\Generated_Source\PSoC4/CyLib.c **** ********************************************************************************
1167:.\Generated_Source\PSoC4/CyLib.c **** *
1168:.\Generated_Source\PSoC4/CyLib.c **** * Summary:
1169:.\Generated_Source\PSoC4/CyLib.c **** *  Disables all interrupts.
1170:.\Generated_Source\PSoC4/CyLib.c **** *
1171:.\Generated_Source\PSoC4/CyLib.c **** * Parameters:
1172:.\Generated_Source\PSoC4/CyLib.c **** *  None
1173:.\Generated_Source\PSoC4/CyLib.c **** *
1174:.\Generated_Source\PSoC4/CyLib.c **** * Return:
1175:.\Generated_Source\PSoC4/CyLib.c **** *  32 bit mask of previously enabled interrupts.
1176:.\Generated_Source\PSoC4/CyLib.c **** *
1177:.\Generated_Source\PSoC4/CyLib.c **** *******************************************************************************/
1178:.\Generated_Source\PSoC4/CyLib.c **** uint32 CyDisableInts(void)
1179:.\Generated_Source\PSoC4/CyLib.c **** {
1180:.\Generated_Source\PSoC4/CyLib.c ****     uint32 intState;
1181:.\Generated_Source\PSoC4/CyLib.c **** 
1182:.\Generated_Source\PSoC4/CyLib.c ****     /* Get the curreent interrupt state. */
1183:.\Generated_Source\PSoC4/CyLib.c ****     intState = CY_INT_CLEAR_REG;
1184:.\Generated_Source\PSoC4/CyLib.c **** 
1185:.\Generated_Source\PSoC4/CyLib.c ****     /* Disable all of the interrupts. */
1186:.\Generated_Source\PSoC4/CyLib.c ****     CY_INT_CLEAR_REG = CY_INT_CLEAR_DISABLE_ALL;
1187:.\Generated_Source\PSoC4/CyLib.c **** 
1188:.\Generated_Source\PSoC4/CyLib.c ****     return (intState);
1189:.\Generated_Source\PSoC4/CyLib.c **** }
1190:.\Generated_Source\PSoC4/CyLib.c **** 
1191:.\Generated_Source\PSoC4/CyLib.c **** 
1192:.\Generated_Source\PSoC4/CyLib.c **** /*******************************************************************************
1193:.\Generated_Source\PSoC4/CyLib.c **** * Function Name: CyEnableInts
1194:.\Generated_Source\PSoC4/CyLib.c **** ********************************************************************************
ARM GAS  C:\Users\asha\AppData\Local\Temp\ccSrRbz4.s 			page 26


1195:.\Generated_Source\PSoC4/CyLib.c **** *
1196:.\Generated_Source\PSoC4/CyLib.c **** * Summary:
1197:.\Generated_Source\PSoC4/CyLib.c **** *  Enables interrupts to a given state.
1198:.\Generated_Source\PSoC4/CyLib.c **** *
1199:.\Generated_Source\PSoC4/CyLib.c **** * Parameters:
1200:.\Generated_Source\PSoC4/CyLib.c **** *   mask, 32 bit mask of interrupts to enable.
1201:.\Generated_Source\PSoC4/CyLib.c **** *
1202:.\Generated_Source\PSoC4/CyLib.c **** * Return:
1203:.\Generated_Source\PSoC4/CyLib.c **** *  None
1204:.\Generated_Source\PSoC4/CyLib.c **** *
1205:.\Generated_Source\PSoC4/CyLib.c **** *******************************************************************************/
1206:.\Generated_Source\PSoC4/CyLib.c **** void CyEnableInts(uint32 mask)
1207:.\Generated_Source\PSoC4/CyLib.c **** {
1208:.\Generated_Source\PSoC4/CyLib.c ****     CY_INT_ENABLE_REG = mask;
1209:.\Generated_Source\PSoC4/CyLib.c **** }
1210:.\Generated_Source\PSoC4/CyLib.c **** 
1211:.\Generated_Source\PSoC4/CyLib.c **** 
1212:.\Generated_Source\PSoC4/CyLib.c **** /*******************************************************************************
1213:.\Generated_Source\PSoC4/CyLib.c **** * Function Name: CyIntSetSysVector
1214:.\Generated_Source\PSoC4/CyLib.c **** ********************************************************************************
1215:.\Generated_Source\PSoC4/CyLib.c **** *
1216:.\Generated_Source\PSoC4/CyLib.c **** * Summary:
1217:.\Generated_Source\PSoC4/CyLib.c **** *  Sets the interrupt vector of the specified system interrupt number. These
1218:.\Generated_Source\PSoC4/CyLib.c **** *  interrupts are for SysTick, PendSV and others.
1219:.\Generated_Source\PSoC4/CyLib.c **** *
1220:.\Generated_Source\PSoC4/CyLib.c **** * Parameters:
1221:.\Generated_Source\PSoC4/CyLib.c **** *  number: Interrupt number, valid range [0-15].
1222:.\Generated_Source\PSoC4/CyLib.c **** *  address: Pointer to an interrupt service routine.
1223:.\Generated_Source\PSoC4/CyLib.c **** *
1224:.\Generated_Source\PSoC4/CyLib.c **** * Return:
1225:.\Generated_Source\PSoC4/CyLib.c **** *  The old ISR vector at this location.
1226:.\Generated_Source\PSoC4/CyLib.c **** *
1227:.\Generated_Source\PSoC4/CyLib.c **** *******************************************************************************/
1228:.\Generated_Source\PSoC4/CyLib.c **** cyisraddress CyIntSetSysVector(uint8 number, cyisraddress address)
1229:.\Generated_Source\PSoC4/CyLib.c **** {
1230:.\Generated_Source\PSoC4/CyLib.c ****     cyisraddress oldIsr;
1231:.\Generated_Source\PSoC4/CyLib.c ****     cyisraddress *ramVectorTable = (cyisraddress *) CY_INT_VECT_TABLE;
1232:.\Generated_Source\PSoC4/CyLib.c **** 
1233:.\Generated_Source\PSoC4/CyLib.c ****     CYASSERT(number < CY_INT_IRQ_BASE);
1234:.\Generated_Source\PSoC4/CyLib.c **** 
1235:.\Generated_Source\PSoC4/CyLib.c ****     /* Save old Interrupt service routine. */
1236:.\Generated_Source\PSoC4/CyLib.c ****     oldIsr = ramVectorTable[number];
1237:.\Generated_Source\PSoC4/CyLib.c **** 
1238:.\Generated_Source\PSoC4/CyLib.c ****     /* Set new Interrupt service routine. */
1239:.\Generated_Source\PSoC4/CyLib.c ****     ramVectorTable[number] = address;
1240:.\Generated_Source\PSoC4/CyLib.c **** 
1241:.\Generated_Source\PSoC4/CyLib.c ****     return(oldIsr);
1242:.\Generated_Source\PSoC4/CyLib.c **** }
1243:.\Generated_Source\PSoC4/CyLib.c **** 
1244:.\Generated_Source\PSoC4/CyLib.c **** 
1245:.\Generated_Source\PSoC4/CyLib.c **** /*******************************************************************************
1246:.\Generated_Source\PSoC4/CyLib.c **** * Function Name: CyIntGetSysVector
1247:.\Generated_Source\PSoC4/CyLib.c **** ********************************************************************************
1248:.\Generated_Source\PSoC4/CyLib.c **** *
1249:.\Generated_Source\PSoC4/CyLib.c **** * Summary:
1250:.\Generated_Source\PSoC4/CyLib.c **** *   Gets the interrupt vector of the specified system interrupt number. These
1251:.\Generated_Source\PSoC4/CyLib.c **** *   interrupts are for SysTick, PendSV and others.
ARM GAS  C:\Users\asha\AppData\Local\Temp\ccSrRbz4.s 			page 27


1252:.\Generated_Source\PSoC4/CyLib.c **** *
1253:.\Generated_Source\PSoC4/CyLib.c **** * Parameters:
1254:.\Generated_Source\PSoC4/CyLib.c **** *   number: The interrupt number, valid range [0-15].
1255:.\Generated_Source\PSoC4/CyLib.c **** *
1256:.\Generated_Source\PSoC4/CyLib.c **** * Return:
1257:.\Generated_Source\PSoC4/CyLib.c **** *   Address of the ISR in the interrupt vector table.
1258:.\Generated_Source\PSoC4/CyLib.c **** *
1259:.\Generated_Source\PSoC4/CyLib.c **** *******************************************************************************/
1260:.\Generated_Source\PSoC4/CyLib.c **** cyisraddress CyIntGetSysVector(uint8 number)
1261:.\Generated_Source\PSoC4/CyLib.c **** {
1262:.\Generated_Source\PSoC4/CyLib.c ****     cyisraddress *ramVectorTable = (cyisraddress *) CY_INT_VECT_TABLE;
1263:.\Generated_Source\PSoC4/CyLib.c **** 
1264:.\Generated_Source\PSoC4/CyLib.c ****     CYASSERT(number < CY_INT_IRQ_BASE);
1265:.\Generated_Source\PSoC4/CyLib.c **** 
1266:.\Generated_Source\PSoC4/CyLib.c ****     return(ramVectorTable[number]);
1267:.\Generated_Source\PSoC4/CyLib.c **** }
1268:.\Generated_Source\PSoC4/CyLib.c **** 
1269:.\Generated_Source\PSoC4/CyLib.c **** 
1270:.\Generated_Source\PSoC4/CyLib.c **** /*******************************************************************************
1271:.\Generated_Source\PSoC4/CyLib.c **** * Function Name: CyIntSetVector
1272:.\Generated_Source\PSoC4/CyLib.c **** ********************************************************************************
1273:.\Generated_Source\PSoC4/CyLib.c **** *
1274:.\Generated_Source\PSoC4/CyLib.c **** * Summary:
1275:.\Generated_Source\PSoC4/CyLib.c **** *  Sets the interrupt vector of the specified interrupt number.
1276:.\Generated_Source\PSoC4/CyLib.c **** *
1277:.\Generated_Source\PSoC4/CyLib.c **** * Parameters:
1278:.\Generated_Source\PSoC4/CyLib.c **** *  number: Valid range [0-31].  Interrupt number
1279:.\Generated_Source\PSoC4/CyLib.c **** *  address: Pointer to an interrupt service routine
1280:.\Generated_Source\PSoC4/CyLib.c **** *
1281:.\Generated_Source\PSoC4/CyLib.c **** * Return:
1282:.\Generated_Source\PSoC4/CyLib.c **** *   Previous interrupt vector value.
1283:.\Generated_Source\PSoC4/CyLib.c **** *
1284:.\Generated_Source\PSoC4/CyLib.c **** *******************************************************************************/
1285:.\Generated_Source\PSoC4/CyLib.c **** cyisraddress CyIntSetVector(uint8 number, cyisraddress address)
1286:.\Generated_Source\PSoC4/CyLib.c **** {
1287:.\Generated_Source\PSoC4/CyLib.c ****     cyisraddress oldIsr;
1288:.\Generated_Source\PSoC4/CyLib.c ****     cyisraddress *ramVectorTable = (cyisraddress *) CY_INT_VECT_TABLE;
1289:.\Generated_Source\PSoC4/CyLib.c **** 
1290:.\Generated_Source\PSoC4/CyLib.c ****     CYASSERT(number < CY_NUM_INTERRUPTS);
1291:.\Generated_Source\PSoC4/CyLib.c **** 
1292:.\Generated_Source\PSoC4/CyLib.c ****     /* Save old Interrupt service routine. */
1293:.\Generated_Source\PSoC4/CyLib.c ****     oldIsr = ramVectorTable[CY_INT_IRQ_BASE + number];
1294:.\Generated_Source\PSoC4/CyLib.c **** 
1295:.\Generated_Source\PSoC4/CyLib.c ****     /* Set new Interrupt service routine. */
1296:.\Generated_Source\PSoC4/CyLib.c ****     ramVectorTable[CY_INT_IRQ_BASE + number] = address;
1297:.\Generated_Source\PSoC4/CyLib.c **** 
1298:.\Generated_Source\PSoC4/CyLib.c ****     return(oldIsr);
1299:.\Generated_Source\PSoC4/CyLib.c **** }
1300:.\Generated_Source\PSoC4/CyLib.c **** 
1301:.\Generated_Source\PSoC4/CyLib.c **** 
1302:.\Generated_Source\PSoC4/CyLib.c **** /*******************************************************************************
1303:.\Generated_Source\PSoC4/CyLib.c **** * Function Name: CyIntGetVector
1304:.\Generated_Source\PSoC4/CyLib.c **** ********************************************************************************
1305:.\Generated_Source\PSoC4/CyLib.c **** *
1306:.\Generated_Source\PSoC4/CyLib.c **** * Summary:
1307:.\Generated_Source\PSoC4/CyLib.c **** *  Gets the interrupt vector of the specified interrupt number.
1308:.\Generated_Source\PSoC4/CyLib.c **** *
ARM GAS  C:\Users\asha\AppData\Local\Temp\ccSrRbz4.s 			page 28


1309:.\Generated_Source\PSoC4/CyLib.c **** * Parameters:
1310:.\Generated_Source\PSoC4/CyLib.c **** *  number: Valid range [0-31].  Interrupt number
1311:.\Generated_Source\PSoC4/CyLib.c **** *
1312:.\Generated_Source\PSoC4/CyLib.c **** * Return:
1313:.\Generated_Source\PSoC4/CyLib.c **** *  Address of the ISR in the interrupt vector table.
1314:.\Generated_Source\PSoC4/CyLib.c **** *
1315:.\Generated_Source\PSoC4/CyLib.c **** *******************************************************************************/
1316:.\Generated_Source\PSoC4/CyLib.c **** cyisraddress CyIntGetVector(uint8 number)
1317:.\Generated_Source\PSoC4/CyLib.c **** {
1318:.\Generated_Source\PSoC4/CyLib.c ****     cyisraddress *ramVectorTable = (cyisraddress *) CY_INT_VECT_TABLE;
1319:.\Generated_Source\PSoC4/CyLib.c **** 
1320:.\Generated_Source\PSoC4/CyLib.c ****     CYASSERT(number < CY_NUM_INTERRUPTS);
1321:.\Generated_Source\PSoC4/CyLib.c **** 
1322:.\Generated_Source\PSoC4/CyLib.c ****     return (ramVectorTable[CY_INT_IRQ_BASE + number]);
1323:.\Generated_Source\PSoC4/CyLib.c **** }
1324:.\Generated_Source\PSoC4/CyLib.c **** 
1325:.\Generated_Source\PSoC4/CyLib.c **** /*******************************************************************************
1326:.\Generated_Source\PSoC4/CyLib.c **** * Function Name: CyIntSetPriority
1327:.\Generated_Source\PSoC4/CyLib.c **** ********************************************************************************
1328:.\Generated_Source\PSoC4/CyLib.c **** *
1329:.\Generated_Source\PSoC4/CyLib.c **** * Summary:
1330:.\Generated_Source\PSoC4/CyLib.c **** *  Sets the priority of the interrupt.
1331:.\Generated_Source\PSoC4/CyLib.c **** *
1332:.\Generated_Source\PSoC4/CyLib.c **** * Parameters:
1333:.\Generated_Source\PSoC4/CyLib.c **** *  priority: Priority of the interrupt. 0 - 3, 0 being the highest.
1334:.\Generated_Source\PSoC4/CyLib.c **** *  number: The number of the interrupt, 0 - 31.
1335:.\Generated_Source\PSoC4/CyLib.c **** *
1336:.\Generated_Source\PSoC4/CyLib.c **** * Return:
1337:.\Generated_Source\PSoC4/CyLib.c **** *  None
1338:.\Generated_Source\PSoC4/CyLib.c **** *
1339:.\Generated_Source\PSoC4/CyLib.c **** *******************************************************************************/
1340:.\Generated_Source\PSoC4/CyLib.c **** void CyIntSetPriority(uint8 number, uint8 priority)
1341:.\Generated_Source\PSoC4/CyLib.c **** {
1342:.\Generated_Source\PSoC4/CyLib.c ****     uint8 interruptState;
1343:.\Generated_Source\PSoC4/CyLib.c ****     uint32 shift;
1344:.\Generated_Source\PSoC4/CyLib.c ****     uint32 value;
1345:.\Generated_Source\PSoC4/CyLib.c **** 
1346:.\Generated_Source\PSoC4/CyLib.c ****     CYASSERT(priority <= CY_MIN_PRIORITY);
1347:.\Generated_Source\PSoC4/CyLib.c ****     CYASSERT(number < CY_NUM_INTERRUPTS);
1348:.\Generated_Source\PSoC4/CyLib.c **** 
1349:.\Generated_Source\PSoC4/CyLib.c ****     shift = CY_INT_PRIORITY_SHIFT(number);
1350:.\Generated_Source\PSoC4/CyLib.c **** 
1351:.\Generated_Source\PSoC4/CyLib.c ****     interruptState = CyEnterCriticalSection();
1352:.\Generated_Source\PSoC4/CyLib.c **** 
1353:.\Generated_Source\PSoC4/CyLib.c ****     value = CY_INT_PRIORITY_REG(number);
1354:.\Generated_Source\PSoC4/CyLib.c ****     value &= (uint32)(~((uint32)(CY_INT_PRIORITY_MASK << shift)));
1355:.\Generated_Source\PSoC4/CyLib.c ****     value |= ((uint32)priority << shift);
1356:.\Generated_Source\PSoC4/CyLib.c ****     CY_INT_PRIORITY_REG(number) = value;
1357:.\Generated_Source\PSoC4/CyLib.c **** 
1358:.\Generated_Source\PSoC4/CyLib.c ****     CyExitCriticalSection(interruptState);
1359:.\Generated_Source\PSoC4/CyLib.c **** }
1360:.\Generated_Source\PSoC4/CyLib.c **** 
1361:.\Generated_Source\PSoC4/CyLib.c **** 
1362:.\Generated_Source\PSoC4/CyLib.c **** /*******************************************************************************
1363:.\Generated_Source\PSoC4/CyLib.c **** * Function Name: CyIntGetPriority
1364:.\Generated_Source\PSoC4/CyLib.c **** ********************************************************************************
1365:.\Generated_Source\PSoC4/CyLib.c **** *
ARM GAS  C:\Users\asha\AppData\Local\Temp\ccSrRbz4.s 			page 29


1366:.\Generated_Source\PSoC4/CyLib.c **** * Summary:
1367:.\Generated_Source\PSoC4/CyLib.c **** *  Gets the priority of the interrupt.
1368:.\Generated_Source\PSoC4/CyLib.c **** *
1369:.\Generated_Source\PSoC4/CyLib.c **** * Parameters:
1370:.\Generated_Source\PSoC4/CyLib.c **** *  number: The number of the interrupt, 0 - 31.
1371:.\Generated_Source\PSoC4/CyLib.c **** *
1372:.\Generated_Source\PSoC4/CyLib.c **** * Return:
1373:.\Generated_Source\PSoC4/CyLib.c **** *  Priority of the interrupt. 0 - 3, 0 being the highest.
1374:.\Generated_Source\PSoC4/CyLib.c **** *
1375:.\Generated_Source\PSoC4/CyLib.c **** *******************************************************************************/
1376:.\Generated_Source\PSoC4/CyLib.c **** uint8 CyIntGetPriority(uint8 number)
1377:.\Generated_Source\PSoC4/CyLib.c **** {
1378:.\Generated_Source\PSoC4/CyLib.c ****     uint8 priority;
1379:.\Generated_Source\PSoC4/CyLib.c **** 
1380:.\Generated_Source\PSoC4/CyLib.c ****     CYASSERT(number < CY_NUM_INTERRUPTS);
1381:.\Generated_Source\PSoC4/CyLib.c **** 
1382:.\Generated_Source\PSoC4/CyLib.c ****     priority = (uint8) (CY_INT_PRIORITY_REG(number) >> CY_INT_PRIORITY_SHIFT(number));
1383:.\Generated_Source\PSoC4/CyLib.c **** 
1384:.\Generated_Source\PSoC4/CyLib.c ****     return (priority & (uint8) CY_INT_PRIORITY_MASK);
1385:.\Generated_Source\PSoC4/CyLib.c **** }
1386:.\Generated_Source\PSoC4/CyLib.c **** 
1387:.\Generated_Source\PSoC4/CyLib.c **** 
1388:.\Generated_Source\PSoC4/CyLib.c **** /*******************************************************************************
1389:.\Generated_Source\PSoC4/CyLib.c **** * Function Name: CyIntEnable
1390:.\Generated_Source\PSoC4/CyLib.c **** ********************************************************************************
1391:.\Generated_Source\PSoC4/CyLib.c **** *
1392:.\Generated_Source\PSoC4/CyLib.c **** * Summary:
1393:.\Generated_Source\PSoC4/CyLib.c **** *  Enables the specified interrupt number.
1394:.\Generated_Source\PSoC4/CyLib.c **** *
1395:.\Generated_Source\PSoC4/CyLib.c **** * Parameters:
1396:.\Generated_Source\PSoC4/CyLib.c **** *  number: Valid range [0-31].  Interrupt number
1397:.\Generated_Source\PSoC4/CyLib.c **** *
1398:.\Generated_Source\PSoC4/CyLib.c **** * Return:
1399:.\Generated_Source\PSoC4/CyLib.c **** *  None
1400:.\Generated_Source\PSoC4/CyLib.c **** *
1401:.\Generated_Source\PSoC4/CyLib.c **** *******************************************************************************/
1402:.\Generated_Source\PSoC4/CyLib.c **** void CyIntEnable(uint8 number)
1403:.\Generated_Source\PSoC4/CyLib.c **** {
1404:.\Generated_Source\PSoC4/CyLib.c ****     CY_INT_ENABLE_REG = ((uint32) 0x01u << (CY_INT_ENABLE_RANGE_MASK & number));
1405:.\Generated_Source\PSoC4/CyLib.c **** }
1406:.\Generated_Source\PSoC4/CyLib.c **** 
1407:.\Generated_Source\PSoC4/CyLib.c **** 
1408:.\Generated_Source\PSoC4/CyLib.c **** /*******************************************************************************
1409:.\Generated_Source\PSoC4/CyLib.c **** * Function Name: CyIntGetState
1410:.\Generated_Source\PSoC4/CyLib.c **** ********************************************************************************
1411:.\Generated_Source\PSoC4/CyLib.c **** *
1412:.\Generated_Source\PSoC4/CyLib.c **** * Summary:
1413:.\Generated_Source\PSoC4/CyLib.c **** *  Gets the enable state of the specified interrupt number.
1414:.\Generated_Source\PSoC4/CyLib.c **** *
1415:.\Generated_Source\PSoC4/CyLib.c **** * Parameters:
1416:.\Generated_Source\PSoC4/CyLib.c **** *  number: Valid range [0-31].  Interrupt number.
1417:.\Generated_Source\PSoC4/CyLib.c **** *
1418:.\Generated_Source\PSoC4/CyLib.c **** * Return:
1419:.\Generated_Source\PSoC4/CyLib.c **** *  Enable status: 1 if enabled, 0 if disabled
1420:.\Generated_Source\PSoC4/CyLib.c **** *
1421:.\Generated_Source\PSoC4/CyLib.c **** *******************************************************************************/
1422:.\Generated_Source\PSoC4/CyLib.c **** uint8 CyIntGetState(uint8 number)
ARM GAS  C:\Users\asha\AppData\Local\Temp\ccSrRbz4.s 			page 30


1423:.\Generated_Source\PSoC4/CyLib.c **** {
1424:.\Generated_Source\PSoC4/CyLib.c ****     /* Get the state of the interrupt. */
1425:.\Generated_Source\PSoC4/CyLib.c ****     return ((0u != (CY_INT_ENABLE_REG & ((uint32) 0x01u << (CY_INT_ENABLE_RANGE_MASK & number)))) ?
1426:.\Generated_Source\PSoC4/CyLib.c **** }
1427:.\Generated_Source\PSoC4/CyLib.c **** 
1428:.\Generated_Source\PSoC4/CyLib.c **** 
1429:.\Generated_Source\PSoC4/CyLib.c **** /*******************************************************************************
1430:.\Generated_Source\PSoC4/CyLib.c **** * Function Name: CyIntDisable
1431:.\Generated_Source\PSoC4/CyLib.c **** ********************************************************************************
1432:.\Generated_Source\PSoC4/CyLib.c **** *
1433:.\Generated_Source\PSoC4/CyLib.c **** * Summary:
1434:.\Generated_Source\PSoC4/CyLib.c **** *   Disables the specified interrupt number.
1435:.\Generated_Source\PSoC4/CyLib.c **** *
1436:.\Generated_Source\PSoC4/CyLib.c **** * Parameters:
1437:.\Generated_Source\PSoC4/CyLib.c **** *   number: Valid range [0-31].  Interrupt number.
1438:.\Generated_Source\PSoC4/CyLib.c **** *
1439:.\Generated_Source\PSoC4/CyLib.c **** * Return:
1440:.\Generated_Source\PSoC4/CyLib.c **** *  None
1441:.\Generated_Source\PSoC4/CyLib.c **** *
1442:.\Generated_Source\PSoC4/CyLib.c **** *******************************************************************************/
1443:.\Generated_Source\PSoC4/CyLib.c **** void CyIntDisable(uint8 number)
1444:.\Generated_Source\PSoC4/CyLib.c **** {
1445:.\Generated_Source\PSoC4/CyLib.c ****     CY_INT_CLEAR_REG = ((uint32) 0x01u << (CY_INT_ENABLE_RANGE_MASK & number));
1446:.\Generated_Source\PSoC4/CyLib.c **** }
1447:.\Generated_Source\PSoC4/CyLib.c **** 
1448:.\Generated_Source\PSoC4/CyLib.c **** /*******************************************************************************
1449:.\Generated_Source\PSoC4/CyLib.c **** * Function Name: CyIntSetPending
1450:.\Generated_Source\PSoC4/CyLib.c **** ********************************************************************************
1451:.\Generated_Source\PSoC4/CyLib.c **** *
1452:.\Generated_Source\PSoC4/CyLib.c **** * Summary:
1453:.\Generated_Source\PSoC4/CyLib.c **** *  Forces the specified interrupt number to be pending.
1454:.\Generated_Source\PSoC4/CyLib.c **** *
1455:.\Generated_Source\PSoC4/CyLib.c **** * Parameters:
1456:.\Generated_Source\PSoC4/CyLib.c **** *  number: Valid range [0-31].  Interrupt number.
1457:.\Generated_Source\PSoC4/CyLib.c **** *
1458:.\Generated_Source\PSoC4/CyLib.c **** * Return:
1459:.\Generated_Source\PSoC4/CyLib.c **** *  None
1460:.\Generated_Source\PSoC4/CyLib.c **** *
1461:.\Generated_Source\PSoC4/CyLib.c **** *******************************************************************************/
1462:.\Generated_Source\PSoC4/CyLib.c **** void CyIntSetPending(uint8 number)
1463:.\Generated_Source\PSoC4/CyLib.c **** {
1464:.\Generated_Source\PSoC4/CyLib.c ****     CY_INT_SET_PEND_REG = ((uint32) 0x01u << (CY_INT_ENABLE_RANGE_MASK & number));
1465:.\Generated_Source\PSoC4/CyLib.c **** }
1466:.\Generated_Source\PSoC4/CyLib.c **** 
1467:.\Generated_Source\PSoC4/CyLib.c **** 
1468:.\Generated_Source\PSoC4/CyLib.c **** /*******************************************************************************
1469:.\Generated_Source\PSoC4/CyLib.c **** * Function Name: CyIntClearPending
1470:.\Generated_Source\PSoC4/CyLib.c **** ********************************************************************************
1471:.\Generated_Source\PSoC4/CyLib.c **** *
1472:.\Generated_Source\PSoC4/CyLib.c **** * Summary:
1473:.\Generated_Source\PSoC4/CyLib.c **** *  Clears any pending interrupt for the specified interrupt number.
1474:.\Generated_Source\PSoC4/CyLib.c **** *
1475:.\Generated_Source\PSoC4/CyLib.c **** * Parameters:
1476:.\Generated_Source\PSoC4/CyLib.c **** *  number: Valid range [0-31].  Interrupt number.
1477:.\Generated_Source\PSoC4/CyLib.c **** *
1478:.\Generated_Source\PSoC4/CyLib.c **** * Return:
1479:.\Generated_Source\PSoC4/CyLib.c **** *  None
ARM GAS  C:\Users\asha\AppData\Local\Temp\ccSrRbz4.s 			page 31


1480:.\Generated_Source\PSoC4/CyLib.c **** *
1481:.\Generated_Source\PSoC4/CyLib.c **** *******************************************************************************/
1482:.\Generated_Source\PSoC4/CyLib.c **** void CyIntClearPending(uint8 number)
1483:.\Generated_Source\PSoC4/CyLib.c **** {
1484:.\Generated_Source\PSoC4/CyLib.c ****     CY_INT_CLR_PEND_REG = ((uint32) 0x01u << (CY_INT_ENABLE_RANGE_MASK & number));
1485:.\Generated_Source\PSoC4/CyLib.c **** }
1486:.\Generated_Source\PSoC4/CyLib.c **** 
1487:.\Generated_Source\PSoC4/CyLib.c **** 
1488:.\Generated_Source\PSoC4/CyLib.c **** /*******************************************************************************
1489:.\Generated_Source\PSoC4/CyLib.c **** * Function Name: CyHalt
1490:.\Generated_Source\PSoC4/CyLib.c **** ********************************************************************************
1491:.\Generated_Source\PSoC4/CyLib.c **** *
1492:.\Generated_Source\PSoC4/CyLib.c **** * Summary:
1493:.\Generated_Source\PSoC4/CyLib.c **** *  Halts the CPU.
1494:.\Generated_Source\PSoC4/CyLib.c **** *
1495:.\Generated_Source\PSoC4/CyLib.c **** * Parameters:
1496:.\Generated_Source\PSoC4/CyLib.c **** *  reason: Value to be used during debugging.
1497:.\Generated_Source\PSoC4/CyLib.c **** *
1498:.\Generated_Source\PSoC4/CyLib.c **** * Return:
1499:.\Generated_Source\PSoC4/CyLib.c **** *  None
1500:.\Generated_Source\PSoC4/CyLib.c **** *
1501:.\Generated_Source\PSoC4/CyLib.c **** *******************************************************************************/
1502:.\Generated_Source\PSoC4/CyLib.c **** void CyHalt(uint8 reason)
1503:.\Generated_Source\PSoC4/CyLib.c **** {
1504:.\Generated_Source\PSoC4/CyLib.c ****     if(0u != reason)
1505:.\Generated_Source\PSoC4/CyLib.c ****     {
1506:.\Generated_Source\PSoC4/CyLib.c ****         /* To remove unreferenced local variable warning */
1507:.\Generated_Source\PSoC4/CyLib.c ****     }
1508:.\Generated_Source\PSoC4/CyLib.c **** 
1509:.\Generated_Source\PSoC4/CyLib.c ****     #if defined (__ARMCC_VERSION)
1510:.\Generated_Source\PSoC4/CyLib.c ****         __breakpoint(0x0);
1511:.\Generated_Source\PSoC4/CyLib.c ****     #elif defined(__GNUC__)
1512:.\Generated_Source\PSoC4/CyLib.c ****         __asm("    bkpt    1");
 228              		.loc 1 1512 0
 229              	@ 1512 ".\Generated_Source\PSoC4\CyLib.c" 1
 230 0006 01BE     		    bkpt    1
 231              	@ 0 "" 2
 232              		.code	16
 233              	.L26:
 234              	.LBE79:
 235              	.LBE78:
 236              		.loc 1 442 0
 237 0008 044A     		ldr	r2, .L29
 238 000a C000     		lsl	r0, r0, #3
 239              	.LVL5:
 240 000c 1168     		ldr	r1, [r2]
 241 000e 0130     		add	r0, r0, #1
 242 0010 C140     		lsr	r1, r1, r0
 243 0012 081C     		mov	r0, r1
 244 0014 0123     		mov	r3, #1
 245 0016 1840     		and	r0, r0, r3
 246              		.loc 1 443 0
 247              		@ sp needed for prologue
 248 0018 00BD     		pop	{pc}
 249              	.L30:
 250 001a C046     		.align	2
 251              	.L29:
ARM GAS  C:\Users\asha\AppData\Local\Temp\ccSrRbz4.s 			page 32


 252 001c 10020B40 		.word	1074463248
 253              		.cfi_endproc
 254              	.LFE9:
 255              		.size	CySysWdtReadEnabledStatus, .-CySysWdtReadEnabledStatus
 256              		.section	.text.CySysWdtWriteMode,"ax",%progbits
 257              		.align	2
 258              		.global	CySysWdtWriteMode
 259              		.code	16
 260              		.thumb_func
 261              		.type	CySysWdtWriteMode, %function
 262              	CySysWdtWriteMode:
 263              	.LFB10:
 264              		.loc 1 475 0
 265              		.cfi_startproc
 266 0000 30B5     		push	{r4, r5, lr}
 267              	.LCFI2:
 268              		.cfi_def_cfa_offset 12
 269              		.cfi_offset 4, -12
 270              		.cfi_offset 5, -8
 271              		.cfi_offset 14, -4
 272              	.LVL6:
 273              		.loc 1 478 0
 274 0002 0228     		cmp	r0, #2
 275 0004 00D9     		bls	.L32
 276              	.LBB80:
 277              	.LBB81:
 278              		.loc 1 1512 0
 279              	@ 1512 ".\Generated_Source\PSoC4\CyLib.c" 1
 280 0006 01BE     		    bkpt    1
 281              	@ 0 "" 2
 282              		.code	16
 283              	.L32:
 284              	.LBE81:
 285              	.LBE80:
 286              		.loc 1 483 0
 287 0008 0F4B     		ldr	r3, .L37
 288 000a 1A68     		ldr	r2, [r3]
 289 000c 002A     		cmp	r2, #0
 290 000e 04DB     		blt	.L33
 291              	.LBB82:
 292              	.LBB83:
 293              		.loc 1 86 0
 294 0010 1C68     		ldr	r4, [r3]
 295 0012 8022     		mov	r2, #128
 296 0014 1506     		lsl	r5, r2, #24
 297 0016 2543     		orr	r5, r5, r4
 298 0018 1D60     		str	r5, [r3]
 299              	.L33:
 300              	.LBE83:
 301              	.LBE82:
 302              	.LBB84:
 303              	.LBB85:
 304              		.loc 1 440 0
 305 001a 0228     		cmp	r0, #2
 306 001c 00D9     		bls	.L34
 307              	.LBB86:
 308              	.LBB87:
ARM GAS  C:\Users\asha\AppData\Local\Temp\ccSrRbz4.s 			page 33


 309              		.loc 1 1512 0
 310              	@ 1512 ".\Generated_Source\PSoC4\CyLib.c" 1
 311 001e 01BE     		    bkpt    1
 312              	@ 0 "" 2
 313              		.code	16
 314              	.L34:
 315              	.LBE87:
 316              	.LBE86:
 317              		.loc 1 442 0
 318 0020 0A4A     		ldr	r2, .L37+4
 319 0022 C000     		lsl	r0, r0, #3
 320              	.LVL7:
 321 0024 1568     		ldr	r5, [r2]
 322              	.LBE85:
 323              	.LBE84:
 324              		.loc 1 488 0
 325 0026 441C     		add	r4, r0, #1
 326 0028 E540     		lsr	r5, r5, r4
 327 002a EA07     		lsl	r2, r5, #31
 328 002c 0AD4     		bmi	.L36
 329              		.loc 1 490 0
 330 002e 084B     		ldr	r3, .L37+8
 331 0030 0322     		mov	r2, #3
 332 0032 1C68     		ldr	r4, [r3]
 333 0034 151C     		mov	r5, r2
 334 0036 8540     		lsl	r5, r5, r0
 335 0038 AC43     		bic	r4, r4, r5
 336              	.LVL8:
 337              		.loc 1 492 0
 338 003a 0A40     		and	r2, r2, r1
 339 003c 8240     		lsl	r2, r2, r0
 340 003e 201C     		mov	r0, r4
 341 0040 1043     		orr	r0, r0, r2
 342              	.LVL9:
 343              		.loc 1 493 0
 344 0042 1860     		str	r0, [r3]
 345              	.L36:
 346              		.loc 1 495 0
 347              		@ sp needed for prologue
 348 0044 30BD     		pop	{r4, r5, pc}
 349              	.L38:
 350 0046 C046     		.align	2
 351              	.L37:
 352 0048 04010B40 		.word	1074462980
 353 004c 10020B40 		.word	1074463248
 354 0050 0C020B40 		.word	1074463244
 355              		.cfi_endproc
 356              	.LFE10:
 357              		.size	CySysWdtWriteMode, .-CySysWdtWriteMode
 358              		.section	.text.CySysWdtReadMode,"ax",%progbits
 359              		.align	2
 360              		.global	CySysWdtReadMode
 361              		.code	16
 362              		.thumb_func
 363              		.type	CySysWdtReadMode, %function
 364              	CySysWdtReadMode:
 365              	.LFB11:
ARM GAS  C:\Users\asha\AppData\Local\Temp\ccSrRbz4.s 			page 34


 366              		.loc 1 514 0
 367              		.cfi_startproc
 368              	.LVL10:
 369              		.loc 1 515 0
 370 0000 034A     		ldr	r2, .L41
 371 0002 C000     		lsl	r0, r0, #3
 372              	.LVL11:
 373 0004 1168     		ldr	r1, [r2]
 374 0006 0323     		mov	r3, #3
 375 0008 C140     		lsr	r1, r1, r0
 376 000a 081C     		mov	r0, r1
 377 000c 1840     		and	r0, r0, r3
 378              		.loc 1 516 0
 379              		@ sp needed for prologue
 380 000e 7047     		bx	lr
 381              	.L42:
 382              		.align	2
 383              	.L41:
 384 0010 0C020B40 		.word	1074463244
 385              		.cfi_endproc
 386              	.LFE11:
 387              		.size	CySysWdtReadMode, .-CySysWdtReadMode
 388              		.section	.text.CySysWdtWriteClearOnMatch,"ax",%progbits
 389              		.align	2
 390              		.global	CySysWdtWriteClearOnMatch
 391              		.code	16
 392              		.thumb_func
 393              		.type	CySysWdtWriteClearOnMatch, %function
 394              	CySysWdtWriteClearOnMatch:
 395              	.LFB12:
 396              		.loc 1 547 0
 397              		.cfi_startproc
 398 0000 10B5     		push	{r4, lr}
 399              	.LCFI3:
 400              		.cfi_def_cfa_offset 8
 401              		.cfi_offset 4, -8
 402              		.cfi_offset 14, -4
 403              	.LVL12:
 404              		.loc 1 548 0
 405 0002 0128     		cmp	r0, #1
 406 0004 00D9     		bls	.L44
 407              	.LBB88:
 408              	.LBB89:
 409              		.loc 1 1512 0
 410              	@ 1512 ".\Generated_Source\PSoC4\CyLib.c" 1
 411 0006 01BE     		    bkpt    1
 412              	@ 0 "" 2
 413              		.code	16
 414              	.L44:
 415              	.LBE89:
 416              	.LBE88:
 417              		.loc 1 554 0
 418 0008 0D4B     		ldr	r3, .L49
 419 000a 1A68     		ldr	r2, [r3]
 420 000c 002A     		cmp	r2, #0
 421 000e 04DB     		blt	.L45
 422              	.LBB90:
ARM GAS  C:\Users\asha\AppData\Local\Temp\ccSrRbz4.s 			page 35


 423              	.LBB91:
 424              		.loc 1 86 0
 425 0010 1C68     		ldr	r4, [r3]
 426 0012 8022     		mov	r2, #128
 427 0014 1206     		lsl	r2, r2, #24
 428 0016 2243     		orr	r2, r2, r4
 429 0018 1A60     		str	r2, [r3]
 430              	.L45:
 431              	.LBE91:
 432              	.LBE90:
 433              	.LBB92:
 434              	.LBB93:
 435              		.loc 1 440 0
 436 001a 0228     		cmp	r0, #2
 437 001c 00D9     		bls	.L46
 438              	.LBB94:
 439              	.LBB95:
 440              		.loc 1 1512 0
 441              	@ 1512 ".\Generated_Source\PSoC4\CyLib.c" 1
 442 001e 01BE     		    bkpt    1
 443              	@ 0 "" 2
 444              		.code	16
 445              	.L46:
 446              	.LBE95:
 447              	.LBE94:
 448              		.loc 1 442 0
 449 0020 084B     		ldr	r3, .L49+4
 450              	.LBE93:
 451              	.LBE92:
 452              		.loc 1 559 0
 453 0022 C200     		lsl	r2, r0, #3
 454              	.LBB97:
 455              	.LBB96:
 456              		.loc 1 442 0
 457 0024 1C68     		ldr	r4, [r3]
 458              	.LBE96:
 459              	.LBE97:
 460              		.loc 1 559 0
 461 0026 0132     		add	r2, r2, #1
 462 0028 D440     		lsr	r4, r4, r2
 463 002a E207     		lsl	r2, r4, #31
 464 002c 06D4     		bmi	.L48
 465              		.loc 1 561 0
 466 002e 064C     		ldr	r4, .L49+8
 467 0030 C000     		lsl	r0, r0, #3
 468              	.LVL13:
 469 0032 2268     		ldr	r2, [r4]
 470 0034 0230     		add	r0, r0, #2
 471 0036 8140     		lsl	r1, r1, r0
 472              	.LVL14:
 473 0038 1143     		orr	r1, r1, r2
 474 003a 2160     		str	r1, [r4]
 475              	.LVL15:
 476              	.L48:
 477              		.loc 1 564 0
 478              		@ sp needed for prologue
 479 003c 10BD     		pop	{r4, pc}
ARM GAS  C:\Users\asha\AppData\Local\Temp\ccSrRbz4.s 			page 36


 480              	.L50:
 481 003e C046     		.align	2
 482              	.L49:
 483 0040 04010B40 		.word	1074462980
 484 0044 10020B40 		.word	1074463248
 485 0048 0C020B40 		.word	1074463244
 486              		.cfi_endproc
 487              	.LFE12:
 488              		.size	CySysWdtWriteClearOnMatch, .-CySysWdtWriteClearOnMatch
 489              		.section	.text.CySysWdtReadClearOnMatch,"ax",%progbits
 490              		.align	2
 491              		.global	CySysWdtReadClearOnMatch
 492              		.code	16
 493              		.thumb_func
 494              		.type	CySysWdtReadClearOnMatch, %function
 495              	CySysWdtReadClearOnMatch:
 496              	.LFB13:
 497              		.loc 1 583 0
 498              		.cfi_startproc
 499 0000 00B5     		push	{lr}
 500              	.LCFI4:
 501              		.cfi_def_cfa_offset 4
 502              		.cfi_offset 14, -4
 503              	.LVL16:
 504              		.loc 1 584 0
 505 0002 0128     		cmp	r0, #1
 506 0004 00D9     		bls	.L52
 507              	.LBB98:
 508              	.LBB99:
 509              		.loc 1 1512 0
 510              	@ 1512 ".\Generated_Source\PSoC4\CyLib.c" 1
 511 0006 01BE     		    bkpt    1
 512              	@ 0 "" 2
 513              		.code	16
 514              	.L52:
 515              	.LBE99:
 516              	.LBE98:
 517              		.loc 1 587 0
 518 0008 044A     		ldr	r2, .L54
 519 000a C000     		lsl	r0, r0, #3
 520              	.LVL17:
 521 000c 1168     		ldr	r1, [r2]
 522 000e 0230     		add	r0, r0, #2
 523 0010 C140     		lsr	r1, r1, r0
 524 0012 081C     		mov	r0, r1
 525 0014 0123     		mov	r3, #1
 526 0016 1840     		and	r0, r0, r3
 527              		.loc 1 589 0
 528              		@ sp needed for prologue
 529 0018 00BD     		pop	{pc}
 530              	.L55:
 531 001a C046     		.align	2
 532              	.L54:
 533 001c 0C020B40 		.word	1074463244
 534              		.cfi_endproc
 535              	.LFE13:
 536              		.size	CySysWdtReadClearOnMatch, .-CySysWdtReadClearOnMatch
ARM GAS  C:\Users\asha\AppData\Local\Temp\ccSrRbz4.s 			page 37


 537              		.section	.text.CySysWdtEnable,"ax",%progbits
 538              		.align	2
 539              		.global	CySysWdtEnable
 540              		.code	16
 541              		.thumb_func
 542              		.type	CySysWdtEnable, %function
 543              	CySysWdtEnable:
 544              	.LFB14:
 545              		.loc 1 616 0
 546              		.cfi_startproc
 547 0000 00B5     		push	{lr}
 548              	.LCFI5:
 549              		.cfi_def_cfa_offset 4
 550              		.cfi_offset 14, -4
 551              	.LVL18:
 552              		.loc 1 620 0
 553 0002 074B     		ldr	r3, .L59
 554 0004 1A68     		ldr	r2, [r3]
 555 0006 002A     		cmp	r2, #0
 556 0008 04DB     		blt	.L57
 557              	.LBB100:
 558              	.LBB101:
 559              		.loc 1 86 0
 560 000a 1968     		ldr	r1, [r3]
 561 000c 8022     		mov	r2, #128
 562 000e 1206     		lsl	r2, r2, #24
 563 0010 0A43     		orr	r2, r2, r1
 564 0012 1A60     		str	r2, [r3]
 565              	.L57:
 566              	.LBE101:
 567              	.LBE100:
 568              		.loc 1 625 0
 569 0014 034B     		ldr	r3, .L59+4
 570              		.loc 1 626 0
 571              		@ sp needed for prologue
 572              		.loc 1 625 0
 573 0016 1968     		ldr	r1, [r3]
 574 0018 0843     		orr	r0, r0, r1
 575              	.LVL19:
 576 001a 1860     		str	r0, [r3]
 577              		.loc 1 626 0
 578 001c 00BD     		pop	{pc}
 579              	.L60:
 580 001e C046     		.align	2
 581              	.L59:
 582 0020 04010B40 		.word	1074462980
 583 0024 10020B40 		.word	1074463248
 584              		.cfi_endproc
 585              	.LFE14:
 586              		.size	CySysWdtEnable, .-CySysWdtEnable
 587              		.section	.text.CySysWdtDisable,"ax",%progbits
 588              		.align	2
 589              		.global	CySysWdtDisable
 590              		.code	16
 591              		.thumb_func
 592              		.type	CySysWdtDisable, %function
 593              	CySysWdtDisable:
ARM GAS  C:\Users\asha\AppData\Local\Temp\ccSrRbz4.s 			page 38


 594              	.LFB15:
 595              		.loc 1 653 0
 596              		.cfi_startproc
 597 0000 00B5     		push	{lr}
 598              	.LCFI6:
 599              		.cfi_def_cfa_offset 4
 600              		.cfi_offset 14, -4
 601              	.LVL20:
 602              		.loc 1 657 0
 603 0002 074B     		ldr	r3, .L64
 604 0004 1A68     		ldr	r2, [r3]
 605 0006 002A     		cmp	r2, #0
 606 0008 04DB     		blt	.L62
 607              	.LBB102:
 608              	.LBB103:
 609              		.loc 1 86 0
 610 000a 1968     		ldr	r1, [r3]
 611 000c 8022     		mov	r2, #128
 612 000e 1206     		lsl	r2, r2, #24
 613 0010 0A43     		orr	r2, r2, r1
 614 0012 1A60     		str	r2, [r3]
 615              	.L62:
 616              	.LBE103:
 617              	.LBE102:
 618              		.loc 1 662 0
 619 0014 034B     		ldr	r3, .L64+4
 620              		.loc 1 663 0
 621              		@ sp needed for prologue
 622              		.loc 1 662 0
 623 0016 1968     		ldr	r1, [r3]
 624 0018 8143     		bic	r1, r1, r0
 625 001a 1960     		str	r1, [r3]
 626              		.loc 1 663 0
 627 001c 00BD     		pop	{pc}
 628              	.L65:
 629 001e C046     		.align	2
 630              	.L64:
 631 0020 04010B40 		.word	1074462980
 632 0024 10020B40 		.word	1074463248
 633              		.cfi_endproc
 634              	.LFE15:
 635              		.size	CySysWdtDisable, .-CySysWdtDisable
 636              		.section	.text.CySysWdtWriteCascade,"ax",%progbits
 637              		.align	2
 638              		.global	CySysWdtWriteCascade
 639              		.code	16
 640              		.thumb_func
 641              		.type	CySysWdtWriteCascade, %function
 642              	CySysWdtWriteCascade:
 643              	.LFB16:
 644              		.loc 1 692 0
 645              		.cfi_startproc
 646 0000 10B5     		push	{r4, lr}
 647              	.LCFI7:
 648              		.cfi_def_cfa_offset 8
 649              		.cfi_offset 4, -8
 650              		.cfi_offset 14, -4
ARM GAS  C:\Users\asha\AppData\Local\Temp\ccSrRbz4.s 			page 39


 651              	.LVL21:
 652              	.LBB104:
 653              	.LBB105:
 654              		.loc 1 442 0
 655 0002 0D4B     		ldr	r3, .L71
 656 0004 1968     		ldr	r1, [r3]
 657              	.LBE105:
 658              	.LBE104:
 659              	.LBB106:
 660              	.LBB107:
 661 0006 1A68     		ldr	r2, [r3]
 662              	.LBE107:
 663              	.LBE106:
 664              	.LBB108:
 665              	.LBB109:
 666 0008 1B68     		ldr	r3, [r3]
 667              	.LBE109:
 668              	.LBE108:
 669              		.loc 1 700 0
 670 000a 9405     		lsl	r4, r2, #22
 671 000c 01D4     		bmi	.L69
 672 000e 8A07     		lsl	r2, r1, #30
 673 0010 00D5     		bpl	.L70
 674              	.LVL22:
 675              	.L69:
 676              		.loc 1 715 0
 677              		@ sp needed for prologue
 678 0012 10BD     		pop	{r4, pc}
 679              	.LVL23:
 680              	.L70:
 681              		.loc 1 700 0
 682 0014 9C03     		lsl	r4, r3, #14
 683 0016 FCD4     		bmi	.L69
 684              		.loc 1 705 0
 685 0018 084B     		ldr	r3, .L71+4
 686 001a 1968     		ldr	r1, [r3]
 687 001c 0029     		cmp	r1, #0
 688 001e 04DB     		blt	.L68
 689              	.LBB110:
 690              	.LBB111:
 691              		.loc 1 86 0
 692 0020 1968     		ldr	r1, [r3]
 693 0022 8022     		mov	r2, #128
 694 0024 1406     		lsl	r4, r2, #24
 695 0026 0C43     		orr	r4, r4, r1
 696 0028 1C60     		str	r4, [r3]
 697              	.L68:
 698              	.LBE111:
 699              	.LBE110:
 700              		.loc 1 710 0
 701 002a 054B     		ldr	r3, .L71+8
 702              		.loc 1 711 0
 703 002c 054C     		ldr	r4, .L71+12
 704              		.loc 1 710 0
 705 002e 1968     		ldr	r1, [r3]
 706              	.LVL24:
 707              		.loc 1 711 0
ARM GAS  C:\Users\asha\AppData\Local\Temp\ccSrRbz4.s 			page 40


 708 0030 0C40     		and	r4, r4, r1
 709              	.LVL25:
 710              		.loc 1 712 0
 711 0032 2043     		orr	r0, r0, r4
 712              	.LVL26:
 713              		.loc 1 713 0
 714 0034 1860     		str	r0, [r3]
 715 0036 ECE7     		b	.L69
 716              	.L72:
 717              		.align	2
 718              	.L71:
 719 0038 10020B40 		.word	1074463248
 720 003c 04010B40 		.word	1074462980
 721 0040 0C020B40 		.word	1074463244
 722 0044 F7F7FFFF 		.word	-2057
 723              		.cfi_endproc
 724              	.LFE16:
 725              		.size	CySysWdtWriteCascade, .-CySysWdtWriteCascade
 726              		.section	.text.CySysWdtReadCascade,"ax",%progbits
 727              		.align	2
 728              		.global	CySysWdtReadCascade
 729              		.code	16
 730              		.thumb_func
 731              		.type	CySysWdtReadCascade, %function
 732              	CySysWdtReadCascade:
 733              	.LFB17:
 734              		.loc 1 737 0
 735              		.cfi_startproc
 736              		.loc 1 738 0
 737 0000 0249     		ldr	r1, .L75
 738 0002 034B     		ldr	r3, .L75+4
 739 0004 0868     		ldr	r0, [r1]
 740              		.loc 1 739 0
 741              		@ sp needed for prologue
 742              		.loc 1 738 0
 743 0006 1840     		and	r0, r0, r3
 744              		.loc 1 739 0
 745 0008 7047     		bx	lr
 746              	.L76:
 747 000a C046     		.align	2
 748              	.L75:
 749 000c 0C020B40 		.word	1074463244
 750 0010 08080000 		.word	2056
 751              		.cfi_endproc
 752              	.LFE17:
 753              		.size	CySysWdtReadCascade, .-CySysWdtReadCascade
 754              		.section	.text.CySysWdtWriteToggleBit,"ax",%progbits
 755              		.align	2
 756              		.global	CySysWdtWriteToggleBit
 757              		.code	16
 758              		.thumb_func
 759              		.type	CySysWdtWriteToggleBit, %function
 760              	CySysWdtWriteToggleBit:
 761              	.LFB19:
 762              		.loc 1 811 0
 763              		.cfi_startproc
 764 0000 00B5     		push	{lr}
ARM GAS  C:\Users\asha\AppData\Local\Temp\ccSrRbz4.s 			page 41


 765              	.LCFI8:
 766              		.cfi_def_cfa_offset 4
 767              		.cfi_offset 14, -4
 768              	.LVL27:
 769              	.LBB112:
 770              	.LBB113:
 771              		.loc 1 442 0
 772 0002 0B49     		ldr	r1, .L81
 773 0004 0B68     		ldr	r3, [r1]
 774              	.LBE113:
 775              	.LBE112:
 776              		.loc 1 814 0
 777 0006 9A03     		lsl	r2, r3, #14
 778 0008 11D4     		bmi	.L80
 779              		.loc 1 819 0
 780 000a 0A4B     		ldr	r3, .L81+4
 781 000c 1A68     		ldr	r2, [r3]
 782 000e 002A     		cmp	r2, #0
 783 0010 04DB     		blt	.L79
 784              	.LBB114:
 785              	.LBB115:
 786              		.loc 1 86 0
 787 0012 1968     		ldr	r1, [r3]
 788 0014 8022     		mov	r2, #128
 789 0016 1206     		lsl	r2, r2, #24
 790 0018 0A43     		orr	r2, r2, r1
 791 001a 1A60     		str	r2, [r3]
 792              	.L79:
 793              	.LBE115:
 794              	.LBE114:
 795              		.loc 1 824 0
 796 001c 064B     		ldr	r3, .L81+8
 797              		.loc 1 825 0
 798 001e 074A     		ldr	r2, .L81+12
 799              		.loc 1 824 0
 800 0020 1968     		ldr	r1, [r3]
 801              	.LVL28:
 802              		.loc 1 825 0
 803 0022 0A40     		and	r2, r2, r1
 804              	.LVL29:
 805              		.loc 1 826 0
 806 0024 1F21     		mov	r1, #31
 807 0026 0840     		and	r0, r0, r1
 808              	.LVL30:
 809 0028 0006     		lsl	r0, r0, #24
 810 002a 1043     		orr	r0, r0, r2
 811              	.LVL31:
 812              		.loc 1 827 0
 813 002c 1860     		str	r0, [r3]
 814              	.LVL32:
 815              	.L80:
 816              		.loc 1 829 0
 817              		@ sp needed for prologue
 818 002e 00BD     		pop	{pc}
 819              	.L82:
 820              		.align	2
 821              	.L81:
ARM GAS  C:\Users\asha\AppData\Local\Temp\ccSrRbz4.s 			page 42


 822 0030 10020B40 		.word	1074463248
 823 0034 04010B40 		.word	1074462980
 824 0038 0C020B40 		.word	1074463244
 825 003c FFFFFFE0 		.word	-520093697
 826              		.cfi_endproc
 827              	.LFE19:
 828              		.size	CySysWdtWriteToggleBit, .-CySysWdtWriteToggleBit
 829              		.section	.text.CySysWdtReadToggleBit,"ax",%progbits
 830              		.align	2
 831              		.global	CySysWdtReadToggleBit
 832              		.code	16
 833              		.thumb_func
 834              		.type	CySysWdtReadToggleBit, %function
 835              	CySysWdtReadToggleBit:
 836              	.LFB20:
 837              		.loc 1 847 0
 838              		.cfi_startproc
 839              		.loc 1 848 0
 840 0000 024B     		ldr	r3, .L85
 841              		.loc 1 849 0
 842              		@ sp needed for prologue
 843              		.loc 1 848 0
 844 0002 1968     		ldr	r1, [r3]
 845 0004 C800     		lsl	r0, r1, #3
 846 0006 C00E     		lsr	r0, r0, #27
 847              		.loc 1 849 0
 848 0008 7047     		bx	lr
 849              	.L86:
 850 000a C046     		.align	2
 851              	.L85:
 852 000c 0C020B40 		.word	1074463244
 853              		.cfi_endproc
 854              	.LFE20:
 855              		.size	CySysWdtReadToggleBit, .-CySysWdtReadToggleBit
 856              		.section	.text.CySysWdtReadMatch,"ax",%progbits
 857              		.align	2
 858              		.global	CySysWdtReadMatch
 859              		.code	16
 860              		.thumb_func
 861              		.type	CySysWdtReadMatch, %function
 862              	CySysWdtReadMatch:
 863              	.LFB21:
 864              		.loc 1 868 0
 865              		.cfi_startproc
 866 0000 00B5     		push	{lr}
 867              	.LCFI9:
 868              		.cfi_def_cfa_offset 4
 869              		.cfi_offset 14, -4
 870              	.LVL33:
 871              		.loc 1 869 0
 872 0002 0128     		cmp	r0, #1
 873 0004 00D9     		bls	.L88
 874              	.LBB116:
 875              	.LBB117:
 876              		.loc 1 1512 0
 877              	@ 1512 ".\Generated_Source\PSoC4\CyLib.c" 1
 878 0006 01BE     		    bkpt    1
ARM GAS  C:\Users\asha\AppData\Local\Temp\ccSrRbz4.s 			page 43


 879              	@ 0 "" 2
 880              		.code	16
 881              	.L88:
 882              	.LBE117:
 883              	.LBE116:
 884              		.loc 1 872 0
 885 0008 024A     		ldr	r2, .L90
 886 000a 0101     		lsl	r1, r0, #4
 887 000c 1368     		ldr	r3, [r2]
 888              		.loc 1 873 0
 889              		@ sp needed for prologue
 890              		.loc 1 872 0
 891 000e CB40     		lsr	r3, r3, r1
 892 0010 98B2     		uxth	r0, r3
 893              	.LVL34:
 894              		.loc 1 873 0
 895 0012 00BD     		pop	{pc}
 896              	.L91:
 897              		.align	2
 898              	.L90:
 899 0014 08020B40 		.word	1074463240
 900              		.cfi_endproc
 901              	.LFE21:
 902              		.size	CySysWdtReadMatch, .-CySysWdtReadMatch
 903              		.section	.text.CySysWdtReadCount,"ax",%progbits
 904              		.align	2
 905              		.global	CySysWdtReadCount
 906              		.code	16
 907              		.thumb_func
 908              		.type	CySysWdtReadCount, %function
 909              	CySysWdtReadCount:
 910              	.LFB22:
 911              		.loc 1 892 0
 912              		.cfi_startproc
 913 0000 00B5     		push	{lr}
 914              	.LCFI10:
 915              		.cfi_def_cfa_offset 4
 916              		.cfi_offset 14, -4
 917              	.LVL35:
 918              		.loc 1 895 0
 919 0002 0128     		cmp	r0, #1
 920 0004 0AD0     		beq	.L95
 921 0006 0028     		cmp	r0, #0
 922 0008 04D0     		beq	.L94
 923 000a 0228     		cmp	r0, #2
 924 000c 0AD0     		beq	.L100
 925              	.LBB118:
 926              	.LBB119:
 927              		.loc 1 1512 0
 928              	@ 1512 ".\Generated_Source\PSoC4\CyLib.c" 1
 929 000e 01BE     		    bkpt    1
 930              	@ 0 "" 2
 931              		.code	16
 932 0010 0020     		mov	r0, #0
 933              	.LVL36:
 934              	.L97:
 935              	.LVL37:
ARM GAS  C:\Users\asha\AppData\Local\Temp\ccSrRbz4.s 			page 44


 936              	.LBE119:
 937              	.LBE118:
 938              		.loc 1 918 0
 939              		@ sp needed for prologue
 940 0012 00BD     		pop	{pc}
 941              	.LVL38:
 942              	.L94:
 943              		.loc 1 899 0
 944 0014 054B     		ldr	r3, .L101
 945 0016 1868     		ldr	r0, [r3]
 946              	.LVL39:
 947 0018 80B2     		uxth	r0, r0
 948              	.LVL40:
 949              		.loc 1 900 0
 950 001a FAE7     		b	.L97
 951              	.LVL41:
 952              	.L95:
 953              		.loc 1 904 0
 954 001c 034A     		ldr	r2, .L101
 955 001e 1168     		ldr	r1, [r2]
 956 0020 080C     		lsr	r0, r1, #16
 957              	.LVL42:
 958              		.loc 1 905 0
 959 0022 F6E7     		b	.L97
 960              	.LVL43:
 961              	.L100:
 962              		.loc 1 909 0
 963 0024 024B     		ldr	r3, .L101+4
 964 0026 1868     		ldr	r0, [r3]
 965              	.LVL44:
 966              		.loc 1 910 0
 967 0028 F3E7     		b	.L97
 968              	.L102:
 969 002a C046     		.align	2
 970              	.L101:
 971 002c 00020B40 		.word	1074463232
 972 0030 04020B40 		.word	1074463236
 973              		.cfi_endproc
 974              	.LFE22:
 975              		.size	CySysWdtReadCount, .-CySysWdtReadCount
 976              		.section	.text.CySysWdtGetInterruptSource,"ax",%progbits
 977              		.align	2
 978              		.global	CySysWdtGetInterruptSource
 979              		.code	16
 980              		.thumb_func
 981              		.type	CySysWdtGetInterruptSource, %function
 982              	CySysWdtGetInterruptSource:
 983              	.LFB23:
 984              		.loc 1 941 0
 985              		.cfi_startproc
 986              		.loc 1 942 0
 987 0000 0249     		ldr	r1, .L105
 988 0002 034B     		ldr	r3, .L105+4
 989 0004 0868     		ldr	r0, [r1]
 990              		.loc 1 943 0
 991              		@ sp needed for prologue
 992              		.loc 1 942 0
ARM GAS  C:\Users\asha\AppData\Local\Temp\ccSrRbz4.s 			page 45


 993 0006 1840     		and	r0, r0, r3
 994              		.loc 1 943 0
 995 0008 7047     		bx	lr
 996              	.L106:
 997 000a C046     		.align	2
 998              	.L105:
 999 000c 10020B40 		.word	1074463248
 1000 0010 04040400 		.word	263172
 1001              		.cfi_endproc
 1002              	.LFE23:
 1003              		.size	CySysWdtGetInterruptSource, .-CySysWdtGetInterruptSource
 1004              		.section	.text.CySysWdtResetCounters,"ax",%progbits
 1005              		.align	2
 1006              		.global	CySysWdtResetCounters
 1007              		.code	16
 1008              		.thumb_func
 1009              		.type	CySysWdtResetCounters, %function
 1010              	CySysWdtResetCounters:
 1011              	.LFB25:
 1012              		.loc 1 1042 0
 1013              		.cfi_startproc
 1014 0000 00B5     		push	{lr}
 1015              	.LCFI11:
 1016              		.cfi_def_cfa_offset 4
 1017              		.cfi_offset 14, -4
 1018              	.LVL45:
 1019              		.loc 1 1046 0
 1020 0002 084B     		ldr	r3, .L110
 1021 0004 1A68     		ldr	r2, [r3]
 1022 0006 002A     		cmp	r2, #0
 1023 0008 04DB     		blt	.L108
 1024              	.LBB120:
 1025              	.LBB121:
 1026              		.loc 1 86 0
 1027 000a 1968     		ldr	r1, [r3]
 1028 000c 8022     		mov	r2, #128
 1029 000e 1206     		lsl	r2, r2, #24
 1030 0010 0A43     		orr	r2, r2, r1
 1031 0012 1A60     		str	r2, [r3]
 1032              	.L108:
 1033              	.LBE121:
 1034              	.LBE120:
 1035              		.loc 1 1052 0
 1036 0014 044B     		ldr	r3, .L110+4
 1037 0016 0549     		ldr	r1, .L110+8
 1038 0018 1A68     		ldr	r2, [r3]
 1039 001a 0840     		and	r0, r0, r1
 1040              	.LVL46:
 1041 001c 1043     		orr	r0, r0, r2
 1042 001e 1860     		str	r0, [r3]
 1043              		.loc 1 1054 0
 1044              		@ sp needed for prologue
 1045 0020 00BD     		pop	{pc}
 1046              	.L111:
 1047 0022 C046     		.align	2
 1048              	.L110:
 1049 0024 04010B40 		.word	1074462980
ARM GAS  C:\Users\asha\AppData\Local\Temp\ccSrRbz4.s 			page 46


 1050 0028 10020B40 		.word	1074463248
 1051 002c 08080800 		.word	526344
 1052              		.cfi_endproc
 1053              	.LFE25:
 1054              		.size	CySysWdtResetCounters, .-CySysWdtResetCounters
 1055              		.section	.text.CySysLvdEnable,"ax",%progbits
 1056              		.align	2
 1057              		.global	CySysLvdEnable
 1058              		.code	16
 1059              		.thumb_func
 1060              		.type	CySysLvdEnable, %function
 1061              	CySysLvdEnable:
 1062              	.LFB26:
 1063              		.loc 1 1092 0
 1064              		.cfi_startproc
 1065              	.LVL47:
 1066              		.loc 1 1094 0
 1067 0000 094B     		ldr	r3, .L114
 1068 0002 1E22     		mov	r2, #30
 1069 0004 1968     		ldr	r1, [r3]
 1070 0006 4000     		lsl	r0, r0, #1
 1071              	.LVL48:
 1072 0008 9143     		bic	r1, r1, r2
 1073 000a 1040     		and	r0, r0, r2
 1074 000c 0A1C     		mov	r2, r1
 1075 000e 0243     		orr	r2, r2, r0
 1076 0010 1A60     		str	r2, [r3]
 1077              		.loc 1 1097 0
 1078 0012 1A68     		ldr	r2, [r3]
 1079 0014 0120     		mov	r0, #1
 1080 0016 1043     		orr	r0, r0, r2
 1081 0018 1860     		str	r0, [r3]
 1082              		.loc 1 1098 0
 1083 001a 103B     		sub	r3, r3, #16
 1084 001c 1968     		ldr	r1, [r3]
 1085 001e 0222     		mov	r2, #2
 1086 0020 0A43     		orr	r2, r2, r1
 1087 0022 1A60     		str	r2, [r3]
 1088              		.loc 1 1099 0
 1089              		@ sp needed for prologue
 1090 0024 7047     		bx	lr
 1091              	.L115:
 1092 0026 C046     		.align	2
 1093              	.L114:
 1094 0028 18000B40 		.word	1074462744
 1095              		.cfi_endproc
 1096              	.LFE26:
 1097              		.size	CySysLvdEnable, .-CySysLvdEnable
 1098              		.section	.text.CySysLvdDisable,"ax",%progbits
 1099              		.align	2
 1100              		.global	CySysLvdDisable
 1101              		.code	16
 1102              		.thumb_func
 1103              		.type	CySysLvdDisable, %function
 1104              	CySysLvdDisable:
 1105              	.LFB27:
 1106              		.loc 1 1117 0
ARM GAS  C:\Users\asha\AppData\Local\Temp\ccSrRbz4.s 			page 47


 1107              		.cfi_startproc
 1108              		.loc 1 1118 0
 1109 0000 054B     		ldr	r3, .L118
 1110 0002 0222     		mov	r2, #2
 1111 0004 1868     		ldr	r0, [r3]
 1112              		.loc 1 1119 0
 1113 0006 0121     		mov	r1, #1
 1114              		.loc 1 1118 0
 1115 0008 9043     		bic	r0, r0, r2
 1116 000a 1860     		str	r0, [r3]
 1117              		.loc 1 1119 0
 1118 000c 1033     		add	r3, r3, #16
 1119 000e 1A68     		ldr	r2, [r3]
 1120              		.loc 1 1120 0
 1121              		@ sp needed for prologue
 1122              		.loc 1 1119 0
 1123 0010 8A43     		bic	r2, r2, r1
 1124 0012 1A60     		str	r2, [r3]
 1125              		.loc 1 1120 0
 1126 0014 7047     		bx	lr
 1127              	.L119:
 1128 0016 C046     		.align	2
 1129              	.L118:
 1130 0018 08000B40 		.word	1074462728
 1131              		.cfi_endproc
 1132              	.LFE27:
 1133              		.size	CySysLvdDisable, .-CySysLvdDisable
 1134              		.section	.text.CySysLvdGetInterruptSource,"ax",%progbits
 1135              		.align	2
 1136              		.global	CySysLvdGetInterruptSource
 1137              		.code	16
 1138              		.thumb_func
 1139              		.type	CySysLvdGetInterruptSource, %function
 1140              	CySysLvdGetInterruptSource:
 1141              	.LFB28:
 1142              		.loc 1 1139 0
 1143              		.cfi_startproc
 1144              		.loc 1 1140 0
 1145 0000 0249     		ldr	r1, .L122
 1146 0002 0223     		mov	r3, #2
 1147 0004 0868     		ldr	r0, [r1]
 1148              		.loc 1 1141 0
 1149              		@ sp needed for prologue
 1150              		.loc 1 1140 0
 1151 0006 1840     		and	r0, r0, r3
 1152              		.loc 1 1141 0
 1153 0008 7047     		bx	lr
 1154              	.L123:
 1155 000a C046     		.align	2
 1156              	.L122:
 1157 000c 04000B40 		.word	1074462724
 1158              		.cfi_endproc
 1159              	.LFE28:
 1160              		.size	CySysLvdGetInterruptSource, .-CySysLvdGetInterruptSource
 1161              		.section	.text.CySysLvdClearInterrupt,"ax",%progbits
 1162              		.align	2
 1163              		.global	CySysLvdClearInterrupt
ARM GAS  C:\Users\asha\AppData\Local\Temp\ccSrRbz4.s 			page 48


 1164              		.code	16
 1165              		.thumb_func
 1166              		.type	CySysLvdClearInterrupt, %function
 1167              	CySysLvdClearInterrupt:
 1168              	.LFB29:
 1169              		.loc 1 1159 0
 1170              		.cfi_startproc
 1171              		.loc 1 1160 0
 1172 0000 014B     		ldr	r3, .L126
 1173 0002 0222     		mov	r2, #2
 1174 0004 1A60     		str	r2, [r3]
 1175              		.loc 1 1161 0
 1176              		@ sp needed for prologue
 1177 0006 7047     		bx	lr
 1178              	.L127:
 1179              		.align	2
 1180              	.L126:
 1181 0008 04000B40 		.word	1074462724
 1182              		.cfi_endproc
 1183              	.LFE29:
 1184              		.size	CySysLvdClearInterrupt, .-CySysLvdClearInterrupt
 1185              		.section	.text.CyDisableInts,"ax",%progbits
 1186              		.align	2
 1187              		.global	CyDisableInts
 1188              		.code	16
 1189              		.thumb_func
 1190              		.type	CyDisableInts, %function
 1191              	CyDisableInts:
 1192              	.LFB30:
 1193              		.loc 1 1179 0
 1194              		.cfi_startproc
 1195              		.loc 1 1183 0
 1196 0000 024A     		ldr	r2, .L130
 1197              		.loc 1 1186 0
 1198 0002 0121     		mov	r1, #1
 1199 0004 4B42     		neg	r3, r1
 1200              		.loc 1 1183 0
 1201 0006 1068     		ldr	r0, [r2]
 1202              	.LVL49:
 1203              		.loc 1 1189 0
 1204              		@ sp needed for prologue
 1205              		.loc 1 1186 0
 1206 0008 1360     		str	r3, [r2]
 1207              	.LVL50:
 1208              		.loc 1 1189 0
 1209 000a 7047     		bx	lr
 1210              	.L131:
 1211              		.align	2
 1212              	.L130:
 1213 000c 80E100E0 		.word	-536813184
 1214              		.cfi_endproc
 1215              	.LFE30:
 1216              		.size	CyDisableInts, .-CyDisableInts
 1217              		.section	.text.CyEnableInts,"ax",%progbits
 1218              		.align	2
 1219              		.global	CyEnableInts
 1220              		.code	16
ARM GAS  C:\Users\asha\AppData\Local\Temp\ccSrRbz4.s 			page 49


 1221              		.thumb_func
 1222              		.type	CyEnableInts, %function
 1223              	CyEnableInts:
 1224              	.LFB31:
 1225              		.loc 1 1207 0
 1226              		.cfi_startproc
 1227              	.LVL51:
 1228              		.loc 1 1208 0
 1229 0000 014B     		ldr	r3, .L134
 1230              		.loc 1 1209 0
 1231              		@ sp needed for prologue
 1232              		.loc 1 1208 0
 1233 0002 1860     		str	r0, [r3]
 1234              		.loc 1 1209 0
 1235 0004 7047     		bx	lr
 1236              	.L135:
 1237 0006 C046     		.align	2
 1238              	.L134:
 1239 0008 00E100E0 		.word	-536813312
 1240              		.cfi_endproc
 1241              	.LFE31:
 1242              		.size	CyEnableInts, .-CyEnableInts
 1243              		.section	.text.CyIntSetSysVector,"ax",%progbits
 1244              		.align	2
 1245              		.global	CyIntSetSysVector
 1246              		.code	16
 1247              		.thumb_func
 1248              		.type	CyIntSetSysVector, %function
 1249              	CyIntSetSysVector:
 1250              	.LFB32:
 1251              		.loc 1 1229 0
 1252              		.cfi_startproc
 1253 0000 00B5     		push	{lr}
 1254              	.LCFI12:
 1255              		.cfi_def_cfa_offset 4
 1256              		.cfi_offset 14, -4
 1257              	.LVL52:
 1258              		.loc 1 1233 0
 1259 0002 0F28     		cmp	r0, #15
 1260 0004 00D9     		bls	.L137
 1261              	.LBB122:
 1262              	.LBB123:
 1263              		.loc 1 1512 0
 1264              	@ 1512 ".\Generated_Source\PSoC4\CyLib.c" 1
 1265 0006 01BE     		    bkpt    1
 1266              	@ 0 "" 2
 1267              		.code	16
 1268              	.L137:
 1269              	.LBE123:
 1270              	.LBE122:
 1271              		.loc 1 1236 0
 1272 0008 8023     		mov	r3, #128
 1273 000a 8000     		lsl	r0, r0, #2
 1274              	.LVL53:
 1275 000c 9A05     		lsl	r2, r3, #22
 1276 000e 8318     		add	r3, r0, r2
 1277 0010 1868     		ldr	r0, [r3]
ARM GAS  C:\Users\asha\AppData\Local\Temp\ccSrRbz4.s 			page 50


 1278              	.LVL54:
 1279              		.loc 1 1242 0
 1280              		@ sp needed for prologue
 1281              		.loc 1 1239 0
 1282 0012 1960     		str	r1, [r3]
 1283              	.LVL55:
 1284              		.loc 1 1242 0
 1285 0014 00BD     		pop	{pc}
 1286              		.cfi_endproc
 1287              	.LFE32:
 1288              		.size	CyIntSetSysVector, .-CyIntSetSysVector
 1289 0016 C046     		.section	.text.CyIntGetSysVector,"ax",%progbits
 1290              		.align	2
 1291              		.global	CyIntGetSysVector
 1292              		.code	16
 1293              		.thumb_func
 1294              		.type	CyIntGetSysVector, %function
 1295              	CyIntGetSysVector:
 1296              	.LFB33:
 1297              		.loc 1 1261 0
 1298              		.cfi_startproc
 1299 0000 00B5     		push	{lr}
 1300              	.LCFI13:
 1301              		.cfi_def_cfa_offset 4
 1302              		.cfi_offset 14, -4
 1303              	.LVL56:
 1304              		.loc 1 1264 0
 1305 0002 0F28     		cmp	r0, #15
 1306 0004 00D9     		bls	.L140
 1307              	.LBB124:
 1308              	.LBB125:
 1309              		.loc 1 1512 0
 1310              	@ 1512 ".\Generated_Source\PSoC4\CyLib.c" 1
 1311 0006 01BE     		    bkpt    1
 1312              	@ 0 "" 2
 1313              		.code	16
 1314              	.L140:
 1315 0008 8022     		mov	r2, #128
 1316 000a 8100     		lsl	r1, r0, #2
 1317 000c 9305     		lsl	r3, r2, #22
 1318 000e C818     		add	r0, r1, r3
 1319              	.LVL57:
 1320 0010 0068     		ldr	r0, [r0]
 1321              	.LBE125:
 1322              	.LBE124:
 1323              		.loc 1 1267 0
 1324              		@ sp needed for prologue
 1325 0012 00BD     		pop	{pc}
 1326              		.cfi_endproc
 1327              	.LFE33:
 1328              		.size	CyIntGetSysVector, .-CyIntGetSysVector
 1329              		.section	.text.CyIntSetVector,"ax",%progbits
 1330              		.align	2
 1331              		.global	CyIntSetVector
 1332              		.code	16
 1333              		.thumb_func
 1334              		.type	CyIntSetVector, %function
ARM GAS  C:\Users\asha\AppData\Local\Temp\ccSrRbz4.s 			page 51


 1335              	CyIntSetVector:
 1336              	.LFB34:
 1337              		.loc 1 1286 0
 1338              		.cfi_startproc
 1339 0000 00B5     		push	{lr}
 1340              	.LCFI14:
 1341              		.cfi_def_cfa_offset 4
 1342              		.cfi_offset 14, -4
 1343              	.LVL58:
 1344              		.loc 1 1290 0
 1345 0002 1F28     		cmp	r0, #31
 1346 0004 00D9     		bls	.L143
 1347              	.LBB126:
 1348              	.LBB127:
 1349              		.loc 1 1512 0
 1350              	@ 1512 ".\Generated_Source\PSoC4\CyLib.c" 1
 1351 0006 01BE     		    bkpt    1
 1352              	@ 0 "" 2
 1353              		.code	16
 1354              	.L143:
 1355              	.LBE127:
 1356              	.LBE126:
 1357              		.loc 1 1293 0
 1358 0008 024A     		ldr	r2, .L145
 1359 000a 8000     		lsl	r0, r0, #2
 1360              	.LVL59:
 1361 000c 8318     		add	r3, r0, r2
 1362 000e 1868     		ldr	r0, [r3]
 1363              	.LVL60:
 1364              		.loc 1 1299 0
 1365              		@ sp needed for prologue
 1366              		.loc 1 1296 0
 1367 0010 1960     		str	r1, [r3]
 1368              	.LVL61:
 1369              		.loc 1 1299 0
 1370 0012 00BD     		pop	{pc}
 1371              	.L146:
 1372              		.align	2
 1373              	.L145:
 1374 0014 40000020 		.word	536870976
 1375              		.cfi_endproc
 1376              	.LFE34:
 1377              		.size	CyIntSetVector, .-CyIntSetVector
 1378              		.section	.text.CyIntGetVector,"ax",%progbits
 1379              		.align	2
 1380              		.global	CyIntGetVector
 1381              		.code	16
 1382              		.thumb_func
 1383              		.type	CyIntGetVector, %function
 1384              	CyIntGetVector:
 1385              	.LFB35:
 1386              		.loc 1 1317 0
 1387              		.cfi_startproc
 1388 0000 00B5     		push	{lr}
 1389              	.LCFI15:
 1390              		.cfi_def_cfa_offset 4
 1391              		.cfi_offset 14, -4
ARM GAS  C:\Users\asha\AppData\Local\Temp\ccSrRbz4.s 			page 52


 1392              	.LVL62:
 1393              		.loc 1 1320 0
 1394 0002 1F28     		cmp	r0, #31
 1395 0004 00D9     		bls	.L148
 1396              	.LBB128:
 1397              	.LBB129:
 1398              		.loc 1 1512 0
 1399              	@ 1512 ".\Generated_Source\PSoC4\CyLib.c" 1
 1400 0006 01BE     		    bkpt    1
 1401              	@ 0 "" 2
 1402              		.code	16
 1403              	.L148:
 1404 0008 024B     		ldr	r3, .L150
 1405 000a 8100     		lsl	r1, r0, #2
 1406 000c C818     		add	r0, r1, r3
 1407              	.LVL63:
 1408 000e 0068     		ldr	r0, [r0]
 1409              	.LBE129:
 1410              	.LBE128:
 1411              		.loc 1 1323 0
 1412              		@ sp needed for prologue
 1413 0010 00BD     		pop	{pc}
 1414              	.L151:
 1415 0012 C046     		.align	2
 1416              	.L150:
 1417 0014 40000020 		.word	536870976
 1418              		.cfi_endproc
 1419              	.LFE35:
 1420              		.size	CyIntGetVector, .-CyIntGetVector
 1421              		.section	.text.CyIntGetPriority,"ax",%progbits
 1422              		.align	2
 1423              		.global	CyIntGetPriority
 1424              		.code	16
 1425              		.thumb_func
 1426              		.type	CyIntGetPriority, %function
 1427              	CyIntGetPriority:
 1428              	.LFB37:
 1429              		.loc 1 1377 0
 1430              		.cfi_startproc
 1431 0000 00B5     		push	{lr}
 1432              	.LCFI16:
 1433              		.cfi_def_cfa_offset 4
 1434              		.cfi_offset 14, -4
 1435              	.LVL64:
 1436              		.loc 1 1380 0
 1437 0002 1F28     		cmp	r0, #31
 1438 0004 00D9     		bls	.L153
 1439              	.LBB130:
 1440              	.LBB131:
 1441              		.loc 1 1512 0
 1442              	@ 1512 ".\Generated_Source\PSoC4\CyLib.c" 1
 1443 0006 01BE     		    bkpt    1
 1444              	@ 0 "" 2
 1445              		.code	16
 1446              	.L153:
 1447              	.LBE131:
 1448              	.LBE130:
ARM GAS  C:\Users\asha\AppData\Local\Temp\ccSrRbz4.s 			page 53


 1449              		.loc 1 1382 0
 1450 0008 8108     		lsr	r1, r0, #2
 1451 000a 064A     		ldr	r2, .L155
 1452 000c 8B00     		lsl	r3, r1, #2
 1453 000e 9918     		add	r1, r3, r2
 1454 0010 0323     		mov	r3, #3
 1455 0012 1840     		and	r0, r0, r3
 1456              	.LVL65:
 1457 0014 0A68     		ldr	r2, [r1]
 1458 0016 C000     		lsl	r0, r0, #3
 1459 0018 0630     		add	r0, r0, #6
 1460 001a C240     		lsr	r2, r2, r0
 1461 001c 101C     		mov	r0, r2
 1462 001e 1840     		and	r0, r0, r3
 1463              		.loc 1 1385 0
 1464              		@ sp needed for prologue
 1465 0020 00BD     		pop	{pc}
 1466              	.L156:
 1467 0022 C046     		.align	2
 1468              	.L155:
 1469 0024 00E400E0 		.word	-536812544
 1470              		.cfi_endproc
 1471              	.LFE37:
 1472              		.size	CyIntGetPriority, .-CyIntGetPriority
 1473              		.section	.text.CyIntEnable,"ax",%progbits
 1474              		.align	2
 1475              		.global	CyIntEnable
 1476              		.code	16
 1477              		.thumb_func
 1478              		.type	CyIntEnable, %function
 1479              	CyIntEnable:
 1480              	.LFB38:
 1481              		.loc 1 1403 0
 1482              		.cfi_startproc
 1483              	.LVL66:
 1484              		.loc 1 1404 0
 1485 0000 1F22     		mov	r2, #31
 1486 0002 1040     		and	r0, r0, r2
 1487              	.LVL67:
 1488 0004 024B     		ldr	r3, .L159
 1489 0006 0121     		mov	r1, #1
 1490 0008 8140     		lsl	r1, r1, r0
 1491 000a 1960     		str	r1, [r3]
 1492              		.loc 1 1405 0
 1493              		@ sp needed for prologue
 1494 000c 7047     		bx	lr
 1495              	.L160:
 1496 000e C046     		.align	2
 1497              	.L159:
 1498 0010 00E100E0 		.word	-536813312
 1499              		.cfi_endproc
 1500              	.LFE38:
 1501              		.size	CyIntEnable, .-CyIntEnable
 1502              		.section	.text.CyIntGetState,"ax",%progbits
 1503              		.align	2
 1504              		.global	CyIntGetState
 1505              		.code	16
ARM GAS  C:\Users\asha\AppData\Local\Temp\ccSrRbz4.s 			page 54


 1506              		.thumb_func
 1507              		.type	CyIntGetState, %function
 1508              	CyIntGetState:
 1509              	.LFB39:
 1510              		.loc 1 1423 0
 1511              		.cfi_startproc
 1512              	.LVL68:
 1513              		.loc 1 1425 0
 1514 0000 044B     		ldr	r3, .L163
 1515 0002 1F22     		mov	r2, #31
 1516 0004 1968     		ldr	r1, [r3]
 1517 0006 1040     		and	r0, r0, r2
 1518              	.LVL69:
 1519 0008 C140     		lsr	r1, r1, r0
 1520 000a 081C     		mov	r0, r1
 1521 000c 0123     		mov	r3, #1
 1522 000e 1840     		and	r0, r0, r3
 1523              		.loc 1 1426 0
 1524              		@ sp needed for prologue
 1525 0010 7047     		bx	lr
 1526              	.L164:
 1527 0012 C046     		.align	2
 1528              	.L163:
 1529 0014 00E100E0 		.word	-536813312
 1530              		.cfi_endproc
 1531              	.LFE39:
 1532              		.size	CyIntGetState, .-CyIntGetState
 1533              		.section	.text.CyIntDisable,"ax",%progbits
 1534              		.align	2
 1535              		.global	CyIntDisable
 1536              		.code	16
 1537              		.thumb_func
 1538              		.type	CyIntDisable, %function
 1539              	CyIntDisable:
 1540              	.LFB40:
 1541              		.loc 1 1444 0
 1542              		.cfi_startproc
 1543              	.LVL70:
 1544              		.loc 1 1445 0
 1545 0000 1F22     		mov	r2, #31
 1546 0002 1040     		and	r0, r0, r2
 1547              	.LVL71:
 1548 0004 024B     		ldr	r3, .L167
 1549 0006 0121     		mov	r1, #1
 1550 0008 8140     		lsl	r1, r1, r0
 1551 000a 1960     		str	r1, [r3]
 1552              		.loc 1 1446 0
 1553              		@ sp needed for prologue
 1554 000c 7047     		bx	lr
 1555              	.L168:
 1556 000e C046     		.align	2
 1557              	.L167:
 1558 0010 80E100E0 		.word	-536813184
 1559              		.cfi_endproc
 1560              	.LFE40:
 1561              		.size	CyIntDisable, .-CyIntDisable
 1562              		.section	.text.CyIntSetPending,"ax",%progbits
ARM GAS  C:\Users\asha\AppData\Local\Temp\ccSrRbz4.s 			page 55


 1563              		.align	2
 1564              		.global	CyIntSetPending
 1565              		.code	16
 1566              		.thumb_func
 1567              		.type	CyIntSetPending, %function
 1568              	CyIntSetPending:
 1569              	.LFB41:
 1570              		.loc 1 1463 0
 1571              		.cfi_startproc
 1572              	.LVL72:
 1573              		.loc 1 1464 0
 1574 0000 1F22     		mov	r2, #31
 1575 0002 1040     		and	r0, r0, r2
 1576              	.LVL73:
 1577 0004 024B     		ldr	r3, .L171
 1578 0006 0121     		mov	r1, #1
 1579 0008 8140     		lsl	r1, r1, r0
 1580 000a 1960     		str	r1, [r3]
 1581              		.loc 1 1465 0
 1582              		@ sp needed for prologue
 1583 000c 7047     		bx	lr
 1584              	.L172:
 1585 000e C046     		.align	2
 1586              	.L171:
 1587 0010 00E200E0 		.word	-536813056
 1588              		.cfi_endproc
 1589              	.LFE41:
 1590              		.size	CyIntSetPending, .-CyIntSetPending
 1591              		.section	.text.CyIntClearPending,"ax",%progbits
 1592              		.align	2
 1593              		.global	CyIntClearPending
 1594              		.code	16
 1595              		.thumb_func
 1596              		.type	CyIntClearPending, %function
 1597              	CyIntClearPending:
 1598              	.LFB42:
 1599              		.loc 1 1483 0
 1600              		.cfi_startproc
 1601              	.LVL74:
 1602              		.loc 1 1484 0
 1603 0000 1F22     		mov	r2, #31
 1604 0002 1040     		and	r0, r0, r2
 1605              	.LVL75:
 1606 0004 024B     		ldr	r3, .L175
 1607 0006 0121     		mov	r1, #1
 1608 0008 8140     		lsl	r1, r1, r0
 1609 000a 1960     		str	r1, [r3]
 1610              		.loc 1 1485 0
 1611              		@ sp needed for prologue
 1612 000c 7047     		bx	lr
 1613              	.L176:
 1614 000e C046     		.align	2
 1615              	.L175:
 1616 0010 80E200E0 		.word	-536812928
 1617              		.cfi_endproc
 1618              	.LFE42:
 1619              		.size	CyIntClearPending, .-CyIntClearPending
ARM GAS  C:\Users\asha\AppData\Local\Temp\ccSrRbz4.s 			page 56


 1620              		.section	.text.CyHalt,"ax",%progbits
 1621              		.align	2
 1622              		.global	CyHalt
 1623              		.code	16
 1624              		.thumb_func
 1625              		.type	CyHalt, %function
 1626              	CyHalt:
 1627              	.LFB43:
 1628              		.loc 1 1503 0
 1629              		.cfi_startproc
 1630              	.LVL76:
 1631              		.loc 1 1512 0
 1632              	@ 1512 ".\Generated_Source\PSoC4\CyLib.c" 1
 1633 0000 01BE     		    bkpt    1
 1634              	@ 0 "" 2
1513:.\Generated_Source\PSoC4/CyLib.c ****     #elif defined(__C51__)
1514:.\Generated_Source\PSoC4/CyLib.c ****         CYDEV_HALT_CPU;
1515:.\Generated_Source\PSoC4/CyLib.c ****     #endif  /* (__ARMCC_VERSION) */
1516:.\Generated_Source\PSoC4/CyLib.c **** }
 1635              		.loc 1 1516 0
 1636              		.code	16
 1637              		@ sp needed for prologue
 1638 0002 7047     		bx	lr
 1639              		.cfi_endproc
 1640              	.LFE43:
 1641              		.size	CyHalt, .-CyHalt
 1642              		.section	.text.CySoftwareReset,"ax",%progbits
 1643              		.align	2
 1644              		.global	CySoftwareReset
 1645              		.code	16
 1646              		.thumb_func
 1647              		.type	CySoftwareReset, %function
 1648              	CySoftwareReset:
 1649              	.LFB44:
1517:.\Generated_Source\PSoC4/CyLib.c **** 
1518:.\Generated_Source\PSoC4/CyLib.c **** 
1519:.\Generated_Source\PSoC4/CyLib.c **** /*******************************************************************************
1520:.\Generated_Source\PSoC4/CyLib.c **** * Function Name: CySoftwareReset
1521:.\Generated_Source\PSoC4/CyLib.c **** ********************************************************************************
1522:.\Generated_Source\PSoC4/CyLib.c **** *
1523:.\Generated_Source\PSoC4/CyLib.c **** * Summary:
1524:.\Generated_Source\PSoC4/CyLib.c **** *  Forces a software reset of the device.
1525:.\Generated_Source\PSoC4/CyLib.c **** *
1526:.\Generated_Source\PSoC4/CyLib.c **** * Parameters:
1527:.\Generated_Source\PSoC4/CyLib.c **** *  None
1528:.\Generated_Source\PSoC4/CyLib.c **** *
1529:.\Generated_Source\PSoC4/CyLib.c **** * Return:
1530:.\Generated_Source\PSoC4/CyLib.c **** *  None
1531:.\Generated_Source\PSoC4/CyLib.c **** *
1532:.\Generated_Source\PSoC4/CyLib.c **** *******************************************************************************/
1533:.\Generated_Source\PSoC4/CyLib.c **** void CySoftwareReset(void)
1534:.\Generated_Source\PSoC4/CyLib.c **** {
 1650              		.loc 1 1534 0
 1651              		.cfi_startproc
1535:.\Generated_Source\PSoC4/CyLib.c ****     /***************************************************************************
1536:.\Generated_Source\PSoC4/CyLib.c ****     * Setting the system reset request bit. The vector key value must be written
1537:.\Generated_Source\PSoC4/CyLib.c ****     * to the register, otherwise the register write is unpredictable.
ARM GAS  C:\Users\asha\AppData\Local\Temp\ccSrRbz4.s 			page 57


1538:.\Generated_Source\PSoC4/CyLib.c ****     ***************************************************************************/
1539:.\Generated_Source\PSoC4/CyLib.c ****     CY_SYS_CM0_AIRCR_REG = (CY_SYS_CM0_AIRCR_REG & ~CY_SYS_CM0_AIRCR_VECTKEY_MASK) |
 1652              		.loc 1 1539 0
 1653 0000 034B     		ldr	r3, .L181
 1654 0002 0449     		ldr	r1, .L181+4
 1655 0004 1868     		ldr	r0, [r3]
1540:.\Generated_Source\PSoC4/CyLib.c ****                             CY_SYS_CM0_AIRCR_VECTKEY | CY_SYS_CM0_AIRCR_SYSRESETREQ;
1541:.\Generated_Source\PSoC4/CyLib.c **** }
 1656              		.loc 1 1541 0
 1657              		@ sp needed for prologue
 1658              		.loc 1 1539 0
 1659 0006 82B2     		uxth	r2, r0
 1660 0008 0A43     		orr	r2, r2, r1
 1661 000a 1A60     		str	r2, [r3]
 1662              		.loc 1 1541 0
 1663 000c 7047     		bx	lr
 1664              	.L182:
 1665 000e C046     		.align	2
 1666              	.L181:
 1667 0010 0CED00E0 		.word	-536810228
 1668 0014 0400FA05 		.word	100270084
 1669              		.cfi_endproc
 1670              	.LFE44:
 1671              		.size	CySoftwareReset, .-CySoftwareReset
 1672              		.global	__aeabi_uidiv
 1673              		.section	.text.CyDelayFreq,"ax",%progbits
 1674              		.align	2
 1675              		.global	CyDelayFreq
 1676              		.code	16
 1677              		.thumb_func
 1678              		.type	CyDelayFreq, %function
 1679              	CyDelayFreq:
 1680              	.LFB47:
1542:.\Generated_Source\PSoC4/CyLib.c **** 
1543:.\Generated_Source\PSoC4/CyLib.c **** 
1544:.\Generated_Source\PSoC4/CyLib.c **** /*******************************************************************************
1545:.\Generated_Source\PSoC4/CyLib.c **** * Function Name: CyDelay
1546:.\Generated_Source\PSoC4/CyLib.c **** ********************************************************************************
1547:.\Generated_Source\PSoC4/CyLib.c **** *
1548:.\Generated_Source\PSoC4/CyLib.c **** * Summary:
1549:.\Generated_Source\PSoC4/CyLib.c **** *  Blocks for milliseconds.
1550:.\Generated_Source\PSoC4/CyLib.c **** *
1551:.\Generated_Source\PSoC4/CyLib.c **** * Parameters:
1552:.\Generated_Source\PSoC4/CyLib.c **** *  milliseconds: number of milliseconds to delay.
1553:.\Generated_Source\PSoC4/CyLib.c **** *
1554:.\Generated_Source\PSoC4/CyLib.c **** * Return:
1555:.\Generated_Source\PSoC4/CyLib.c **** *  None
1556:.\Generated_Source\PSoC4/CyLib.c **** *
1557:.\Generated_Source\PSoC4/CyLib.c **** *******************************************************************************/
1558:.\Generated_Source\PSoC4/CyLib.c **** void CyDelay(uint32 milliseconds)
1559:.\Generated_Source\PSoC4/CyLib.c **** {
1560:.\Generated_Source\PSoC4/CyLib.c ****     while (milliseconds > CY_DELAY_MS_OVERFLOW)
1561:.\Generated_Source\PSoC4/CyLib.c ****     {
1562:.\Generated_Source\PSoC4/CyLib.c ****         /* This loop prevents overflow.
1563:.\Generated_Source\PSoC4/CyLib.c ****          * At 100MHz, milliseconds * cydelayFreqKhz overflows at about 42 seconds
1564:.\Generated_Source\PSoC4/CyLib.c ****          */
1565:.\Generated_Source\PSoC4/CyLib.c ****         CyDelayCycles(cydelay32kMs);
ARM GAS  C:\Users\asha\AppData\Local\Temp\ccSrRbz4.s 			page 58


1566:.\Generated_Source\PSoC4/CyLib.c ****         milliseconds -= CY_DELAY_MS_OVERFLOW;
1567:.\Generated_Source\PSoC4/CyLib.c ****     }
1568:.\Generated_Source\PSoC4/CyLib.c **** 
1569:.\Generated_Source\PSoC4/CyLib.c ****     CyDelayCycles(milliseconds * cydelayFreqKhz);
1570:.\Generated_Source\PSoC4/CyLib.c **** }
1571:.\Generated_Source\PSoC4/CyLib.c **** 
1572:.\Generated_Source\PSoC4/CyLib.c **** 
1573:.\Generated_Source\PSoC4/CyLib.c **** /*******************************************************************************
1574:.\Generated_Source\PSoC4/CyLib.c **** * Function Name: CyDelayUs
1575:.\Generated_Source\PSoC4/CyLib.c **** ********************************************************************************
1576:.\Generated_Source\PSoC4/CyLib.c **** * Summary:
1577:.\Generated_Source\PSoC4/CyLib.c **** *  Blocks for microseconds.
1578:.\Generated_Source\PSoC4/CyLib.c **** *
1579:.\Generated_Source\PSoC4/CyLib.c **** * Parameters:
1580:.\Generated_Source\PSoC4/CyLib.c **** *  microseconds: number of microseconds to delay.
1581:.\Generated_Source\PSoC4/CyLib.c **** *
1582:.\Generated_Source\PSoC4/CyLib.c **** * Return:
1583:.\Generated_Source\PSoC4/CyLib.c **** *  None
1584:.\Generated_Source\PSoC4/CyLib.c **** *
1585:.\Generated_Source\PSoC4/CyLib.c **** *******************************************************************************/
1586:.\Generated_Source\PSoC4/CyLib.c **** void CyDelayUs(uint16 microseconds)
1587:.\Generated_Source\PSoC4/CyLib.c **** {
1588:.\Generated_Source\PSoC4/CyLib.c ****     CyDelayCycles((uint32)microseconds * cydelayFreqMhz);
1589:.\Generated_Source\PSoC4/CyLib.c **** }
1590:.\Generated_Source\PSoC4/CyLib.c **** 
1591:.\Generated_Source\PSoC4/CyLib.c **** 
1592:.\Generated_Source\PSoC4/CyLib.c **** /*******************************************************************************
1593:.\Generated_Source\PSoC4/CyLib.c **** * Function Name: CyDelayFreq
1594:.\Generated_Source\PSoC4/CyLib.c **** ********************************************************************************
1595:.\Generated_Source\PSoC4/CyLib.c **** * Summary:
1596:.\Generated_Source\PSoC4/CyLib.c **** *  Sets clock frequency for CyDelay.
1597:.\Generated_Source\PSoC4/CyLib.c **** *
1598:.\Generated_Source\PSoC4/CyLib.c **** * Parameters:
1599:.\Generated_Source\PSoC4/CyLib.c **** *  freq: Frequency of bus clock in Hertz.
1600:.\Generated_Source\PSoC4/CyLib.c **** *
1601:.\Generated_Source\PSoC4/CyLib.c **** * Return:
1602:.\Generated_Source\PSoC4/CyLib.c **** *  None
1603:.\Generated_Source\PSoC4/CyLib.c **** *
1604:.\Generated_Source\PSoC4/CyLib.c **** *******************************************************************************/
1605:.\Generated_Source\PSoC4/CyLib.c **** void CyDelayFreq(uint32 freq)
1606:.\Generated_Source\PSoC4/CyLib.c **** {
 1681              		.loc 1 1606 0
 1682              		.cfi_startproc
 1683 0000 70B5     		push	{r4, r5, r6, lr}
 1684              	.LCFI17:
 1685              		.cfi_def_cfa_offset 16
 1686              		.cfi_offset 4, -16
 1687              		.cfi_offset 5, -12
 1688              		.cfi_offset 6, -8
 1689              		.cfi_offset 14, -4
 1690              	.LVL77:
 1691              		.loc 1 1606 0
 1692 0002 051C     		mov	r5, r0
1607:.\Generated_Source\PSoC4/CyLib.c ****     if (freq != 0u)
1608:.\Generated_Source\PSoC4/CyLib.c ****     {
1609:.\Generated_Source\PSoC4/CyLib.c ****         cydelayFreqHz = freq;
 1693              		.loc 1 1609 0
ARM GAS  C:\Users\asha\AppData\Local\Temp\ccSrRbz4.s 			page 59


 1694 0004 0D4C     		ldr	r4, .L188
 1695              		.loc 1 1607 0
 1696 0006 0028     		cmp	r0, #0
 1697 0008 08D1     		bne	.L187
1610:.\Generated_Source\PSoC4/CyLib.c ****     }
1611:.\Generated_Source\PSoC4/CyLib.c ****     else
1612:.\Generated_Source\PSoC4/CyLib.c ****     {
1613:.\Generated_Source\PSoC4/CyLib.c ****         cydelayFreqHz = CYDEV_BCLK__SYSCLK__HZ;
 1698              		.loc 1 1613 0
 1699 000a 0D48     		ldr	r0, .L188+4
 1700              	.LVL78:
 1701 000c 0D4B     		ldr	r3, .L188+8
 1702 000e 2060     		str	r0, [r4]
 1703 0010 0D48     		ldr	r0, .L188+12
 1704 0012 3026     		mov	r6, #48
 1705              	.L185:
1614:.\Generated_Source\PSoC4/CyLib.c ****     }
1615:.\Generated_Source\PSoC4/CyLib.c **** 
1616:.\Generated_Source\PSoC4/CyLib.c ****     cydelayFreqMhz = (uint8)((cydelayFreqHz + CY_DELAY_1M_MINUS_1_THRESHOLD) / CY_DELAY_1M_THRESHOL
 1706              		.loc 1 1616 0
 1707 0014 2671     		strb	r6, [r4, #4]
1617:.\Generated_Source\PSoC4/CyLib.c ****     cydelayFreqKhz = (cydelayFreqHz + CY_DELAY_1K_MINUS_1_THRESHOLD) / CY_DELAY_1K_THRESHOLD;
 1708              		.loc 1 1617 0
 1709 0016 A060     		str	r0, [r4, #8]
1618:.\Generated_Source\PSoC4/CyLib.c ****     cydelay32kMs   = CY_DELAY_MS_OVERFLOW * cydelayFreqKhz;
 1710              		.loc 1 1618 0
 1711 0018 E360     		str	r3, [r4, #12]
1619:.\Generated_Source\PSoC4/CyLib.c **** }
 1712              		.loc 1 1619 0
 1713              		@ sp needed for prologue
 1714              	.LVL79:
 1715 001a 70BD     		pop	{r4, r5, r6, pc}
 1716              	.LVL80:
 1717              	.L187:
 1718              		.loc 1 1609 0
 1719 001c 0B4A     		ldr	r2, .L188+16
 1720 001e 2060     		str	r0, [r4]
 1721 0020 0B49     		ldr	r1, .L188+20
 1722 0022 8018     		add	r0, r0, r2
 1723              	.LVL81:
 1724 0024 FFF7FEFF 		bl	__aeabi_uidiv
 1725 0028 0A4B     		ldr	r3, .L188+24
 1726 002a FA21     		mov	r1, #250
 1727 002c C6B2     		uxtb	r6, r0
 1728 002e 8900     		lsl	r1, r1, #2
 1729 0030 E818     		add	r0, r5, r3
 1730 0032 FFF7FEFF 		bl	__aeabi_uidiv
 1731 0036 C303     		lsl	r3, r0, #15
 1732 0038 ECE7     		b	.L185
 1733              	.L189:
 1734 003a C046     		.align	2
 1735              	.L188:
 1736 003c 00000000 		.word	.LANCHOR0
 1737 0040 006CDC02 		.word	48000000
 1738 0044 0000C05D 		.word	1572864000
 1739 0048 80BB0000 		.word	48000
 1740 004c 3F420F00 		.word	999999
ARM GAS  C:\Users\asha\AppData\Local\Temp\ccSrRbz4.s 			page 60


 1741 0050 40420F00 		.word	1000000
 1742 0054 E7030000 		.word	999
 1743              		.cfi_endproc
 1744              	.LFE47:
 1745              		.size	CyDelayFreq, .-CyDelayFreq
 1746              		.section	.text.CyDelayUs,"ax",%progbits
 1747              		.align	2
 1748              		.global	CyDelayUs
 1749              		.code	16
 1750              		.thumb_func
 1751              		.type	CyDelayUs, %function
 1752              	CyDelayUs:
 1753              	.LFB46:
 1754              		.loc 1 1587 0
 1755              		.cfi_startproc
 1756 0000 08B5     		push	{r3, lr}
 1757              	.LCFI18:
 1758              		.cfi_def_cfa_offset 8
 1759              		.cfi_offset 3, -8
 1760              		.cfi_offset 14, -4
 1761              	.LVL82:
 1762              		.loc 1 1588 0
 1763 0002 0349     		ldr	r1, .L192
 1764              		.loc 1 1589 0
 1765              		@ sp needed for prologue
 1766              		.loc 1 1588 0
 1767 0004 0B79     		ldrb	r3, [r1, #4]
 1768 0006 5843     		mul	r0, r3
 1769              	.LVL83:
 1770 0008 FFF7FEFF 		bl	CyDelayCycles
 1771              		.loc 1 1589 0
 1772 000c 08BD     		pop	{r3, pc}
 1773              	.L193:
 1774 000e C046     		.align	2
 1775              	.L192:
 1776 0010 00000000 		.word	.LANCHOR0
 1777              		.cfi_endproc
 1778              	.LFE46:
 1779              		.size	CyDelayUs, .-CyDelayUs
 1780              		.section	.text.CySysWdtWriteMatch,"ax",%progbits
 1781              		.align	2
 1782              		.global	CySysWdtWriteMatch
 1783              		.code	16
 1784              		.thumb_func
 1785              		.type	CySysWdtWriteMatch, %function
 1786              	CySysWdtWriteMatch:
 1787              	.LFB18:
 1788              		.loc 1 765 0
 1789              		.cfi_startproc
 1790 0000 38B5     		push	{r3, r4, r5, lr}
 1791              	.LCFI19:
 1792              		.cfi_def_cfa_offset 16
 1793              		.cfi_offset 3, -16
 1794              		.cfi_offset 4, -12
 1795              		.cfi_offset 5, -8
 1796              		.cfi_offset 14, -4
 1797              	.LVL84:
ARM GAS  C:\Users\asha\AppData\Local\Temp\ccSrRbz4.s 			page 61


 1798              		.loc 1 765 0
 1799 0002 041C     		mov	r4, r0
 1800 0004 0D1C     		mov	r5, r1
 1801              		.loc 1 768 0
 1802 0006 0128     		cmp	r0, #1
 1803 0008 00D9     		bls	.L195
 1804              	.LVL85:
 1805              	.LBB132:
 1806              	.LBB133:
 1807              		.loc 1 1512 0
 1808              	@ 1512 ".\Generated_Source\PSoC4\CyLib.c" 1
 1809 000a 01BE     		    bkpt    1
 1810              	@ 0 "" 2
 1811              		.code	16
 1812              	.L195:
 1813              	.LBE133:
 1814              	.LBE132:
 1815              		.loc 1 774 0
 1816 000c 0B4B     		ldr	r3, .L198
 1817 000e 1A68     		ldr	r2, [r3]
 1818 0010 002A     		cmp	r2, #0
 1819 0012 04DB     		blt	.L196
 1820              	.LBB134:
 1821              	.LBB135:
 1822              		.loc 1 86 0
 1823 0014 1968     		ldr	r1, [r3]
 1824 0016 8022     		mov	r2, #128
 1825 0018 1006     		lsl	r0, r2, #24
 1826              	.LVL86:
 1827 001a 0843     		orr	r0, r0, r1
 1828 001c 1860     		str	r0, [r3]
 1829              	.LVL87:
 1830              	.L196:
 1831              	.LBE135:
 1832              	.LBE134:
 1833              		.loc 1 780 0
 1834 001e 8220     		mov	r0, #130
 1835 0020 FFF7FEFF 		bl	CyDelayUs
 1836              		.loc 1 782 0
 1837 0024 064B     		ldr	r3, .L198+4
 1838              		.loc 1 784 0
 1839 0026 0749     		ldr	r1, .L198+8
 1840              		.loc 1 783 0
 1841 0028 2201     		lsl	r2, r4, #4
 1842              		.loc 1 782 0
 1843 002a 1868     		ldr	r0, [r3]
 1844              	.LVL88:
 1845              		.loc 1 784 0
 1846 002c 9140     		lsl	r1, r1, r2
 1847 002e 8843     		bic	r0, r0, r1
 1848              	.LVL89:
 1849 0030 9540     		lsl	r5, r5, r2
 1850              	.LVL90:
 1851 0032 041C     		mov	r4, r0
 1852              	.LVL91:
 1853 0034 2C43     		orr	r4, r4, r5
 1854 0036 1C60     		str	r4, [r3]
ARM GAS  C:\Users\asha\AppData\Local\Temp\ccSrRbz4.s 			page 62


 1855              		.loc 1 785 0
 1856              		@ sp needed for prologue
 1857 0038 38BD     		pop	{r3, r4, r5, pc}
 1858              	.L199:
 1859 003a C046     		.align	2
 1860              	.L198:
 1861 003c 04010B40 		.word	1074462980
 1862 0040 08020B40 		.word	1074463240
 1863 0044 FFFF0000 		.word	65535
 1864              		.cfi_endproc
 1865              	.LFE18:
 1866              		.size	CySysWdtWriteMatch, .-CySysWdtWriteMatch
 1867              		.section	.text.CyDelay,"ax",%progbits
 1868              		.align	2
 1869              		.global	CyDelay
 1870              		.code	16
 1871              		.thumb_func
 1872              		.type	CyDelay, %function
 1873              	CyDelay:
 1874              	.LFB45:
 1875              		.loc 1 1559 0
 1876              		.cfi_startproc
 1877 0000 F0B5     		push	{r4, r5, r6, r7, lr}
 1878              	.LCFI20:
 1879              		.cfi_def_cfa_offset 20
 1880              		.cfi_offset 4, -20
 1881              		.cfi_offset 5, -16
 1882              		.cfi_offset 6, -12
 1883              		.cfi_offset 7, -8
 1884              		.cfi_offset 14, -4
 1885 0002 4746     		mov	r7, r8
 1886 0004 80B4     		push	{r7}
 1887              	.LCFI21:
 1888              		.cfi_def_cfa_offset 24
 1889              		.cfi_offset 8, -24
 1890              	.LVL92:
 1891              		.loc 1 1560 0
 1892 0006 8027     		mov	r7, #128
 1893 0008 3F02     		lsl	r7, r7, #8
 1894              		.loc 1 1559 0
 1895 000a 061C     		mov	r6, r0
 1896 000c 184D     		ldr	r5, .L213
 1897              		.loc 1 1560 0
 1898 000e B842     		cmp	r0, r7
 1899 0010 26D9     		bls	.L201
 1900 0012 184A     		ldr	r2, .L213+4
 1901 0014 8118     		add	r1, r0, r2
 1902 0016 0804     		lsl	r0, r1, #16
 1903              	.LVL93:
 1904 0018 C30F     		lsr	r3, r0, #31
 1905              		.loc 1 1565 0
 1906 001a E868     		ldr	r0, [r5, #12]
 1907 001c 9846     		mov	r8, r3
 1908 001e FFF7FEFF 		bl	CyDelayCycles
 1909              		.loc 1 1566 0
 1910 0022 154B     		ldr	r3, .L213+8
 1911 0024 F418     		add	r4, r6, r3
ARM GAS  C:\Users\asha\AppData\Local\Temp\ccSrRbz4.s 			page 63


 1912              	.LVL94:
 1913              		.loc 1 1560 0
 1914 0026 BC42     		cmp	r4, r7
 1915 0028 13D9     		bls	.L212
 1916 002a 4346     		mov	r3, r8
 1917 002c 002B     		cmp	r3, #0
 1918 002e 06D0     		beq	.L202
 1919              		.loc 1 1565 0
 1920 0030 E868     		ldr	r0, [r5, #12]
 1921 0032 FFF7FEFF 		bl	CyDelayCycles
 1922              		.loc 1 1566 0
 1923 0036 114A     		ldr	r2, .L213+12
 1924 0038 B418     		add	r4, r6, r2
 1925              		.loc 1 1560 0
 1926 003a BC42     		cmp	r4, r7
 1927 003c 09D9     		bls	.L212
 1928              	.L202:
 1929              		.loc 1 1565 0
 1930 003e E868     		ldr	r0, [r5, #12]
 1931 0040 FFF7FEFF 		bl	CyDelayCycles
 1932 0044 E868     		ldr	r0, [r5, #12]
 1933 0046 FFF7FEFF 		bl	CyDelayCycles
 1934              		.loc 1 1566 0
 1935 004a 0C4B     		ldr	r3, .L213+12
 1936 004c E418     		add	r4, r4, r3
 1937              		.loc 1 1560 0
 1938 004e BC42     		cmp	r4, r7
 1939 0050 F5D8     		bhi	.L202
 1940              	.L212:
 1941              		.loc 1 1558 0
 1942 0052 084F     		ldr	r7, .L213+4
 1943 0054 F119     		add	r1, r6, r7
 1944 0056 C80B     		lsr	r0, r1, #15
 1945 0058 0137     		add	r7, r7, #1
 1946 005a C403     		lsl	r4, r0, #15
 1947              	.LVL95:
 1948 005c F619     		add	r6, r6, r7
 1949              	.LVL96:
 1950 005e 361B     		sub	r6, r6, r4
 1951              	.LVL97:
 1952              	.L201:
 1953              		.loc 1 1569 0
 1954 0060 A868     		ldr	r0, [r5, #8]
 1955              		.loc 1 1570 0
 1956              		@ sp needed for prologue
 1957              		.loc 1 1569 0
 1958 0062 7043     		mul	r0, r6
 1959 0064 FFF7FEFF 		bl	CyDelayCycles
 1960              	.LVL98:
 1961              		.loc 1 1570 0
 1962 0068 04BC     		pop	{r2}
 1963 006a 9046     		mov	r8, r2
 1964 006c F0BD     		pop	{r4, r5, r6, r7, pc}
 1965              	.L214:
 1966 006e C046     		.align	2
 1967              	.L213:
 1968 0070 00000000 		.word	.LANCHOR0
ARM GAS  C:\Users\asha\AppData\Local\Temp\ccSrRbz4.s 			page 64


 1969 0074 FF7FFFFF 		.word	-32769
 1970 0078 0080FFFF 		.word	-32768
 1971 007c 0000FFFF 		.word	-65536
 1972              		.cfi_endproc
 1973              	.LFE45:
 1974              		.size	CyDelay, .-CyDelay
 1975              		.section	.text.CyIntSetPriority,"ax",%progbits
 1976              		.align	2
 1977              		.global	CyIntSetPriority
 1978              		.code	16
 1979              		.thumb_func
 1980              		.type	CyIntSetPriority, %function
 1981              	CyIntSetPriority:
 1982              	.LFB36:
 1983              		.loc 1 1341 0
 1984              		.cfi_startproc
 1985 0000 38B5     		push	{r3, r4, r5, lr}
 1986              	.LCFI22:
 1987              		.cfi_def_cfa_offset 16
 1988              		.cfi_offset 3, -16
 1989              		.cfi_offset 4, -12
 1990              		.cfi_offset 5, -8
 1991              		.cfi_offset 14, -4
 1992              	.LVL99:
 1993              		.loc 1 1341 0
 1994 0002 041C     		mov	r4, r0
 1995 0004 0D1C     		mov	r5, r1
 1996              		.loc 1 1346 0
 1997 0006 0329     		cmp	r1, #3
 1998 0008 00D9     		bls	.L216
 1999              	.LVL100:
 2000              	.LBB136:
 2001              	.LBB137:
 2002              		.loc 1 1512 0
 2003              	@ 1512 ".\Generated_Source\PSoC4\CyLib.c" 1
 2004 000a 01BE     		    bkpt    1
 2005              	@ 0 "" 2
 2006              		.code	16
 2007              	.L216:
 2008              	.LBE137:
 2009              	.LBE136:
 2010              		.loc 1 1347 0
 2011 000c 1F2C     		cmp	r4, #31
 2012 000e 00D9     		bls	.L217
 2013              	.LBB138:
 2014              	.LBB139:
 2015              		.loc 1 1512 0
 2016              	@ 1512 ".\Generated_Source\PSoC4\CyLib.c" 1
 2017 0010 01BE     		    bkpt    1
 2018              	@ 0 "" 2
 2019              		.code	16
 2020              	.L217:
 2021              	.LBE139:
 2022              	.LBE138:
 2023              		.loc 1 1351 0
 2024 0012 FFF7FEFF 		bl	CyEnterCriticalSection
 2025              	.LVL101:
ARM GAS  C:\Users\asha\AppData\Local\Temp\ccSrRbz4.s 			page 65


 2026              		.loc 1 1353 0
 2027 0016 A208     		lsr	r2, r4, #2
 2028 0018 9300     		lsl	r3, r2, #2
 2029 001a 0849     		ldr	r1, .L219
 2030              		.loc 1 1354 0
 2031 001c 0322     		mov	r2, #3
 2032 001e 1440     		and	r4, r4, r2
 2033              	.LVL102:
 2034              		.loc 1 1353 0
 2035 0020 5B18     		add	r3, r3, r1
 2036              		.loc 1 1354 0
 2037 0022 E400     		lsl	r4, r4, #3
 2038              		.loc 1 1353 0
 2039 0024 1968     		ldr	r1, [r3]
 2040              	.LVL103:
 2041              		.loc 1 1354 0
 2042 0026 0634     		add	r4, r4, #6
 2043 0028 A240     		lsl	r2, r2, r4
 2044 002a 9143     		bic	r1, r1, r2
 2045              		.loc 1 1355 0
 2046 002c A540     		lsl	r5, r5, r4
 2047              	.LVL104:
 2048 002e 0C1C     		mov	r4, r1
 2049 0030 2C43     		orr	r4, r4, r5
 2050              	.LVL105:
 2051              		.loc 1 1356 0
 2052 0032 1C60     		str	r4, [r3]
 2053              		.loc 1 1358 0
 2054 0034 FFF7FEFF 		bl	CyExitCriticalSection
 2055              		.loc 1 1359 0
 2056              		@ sp needed for prologue
 2057              	.LVL106:
 2058 0038 38BD     		pop	{r3, r4, r5, pc}
 2059              	.L220:
 2060 003a C046     		.align	2
 2061              	.L219:
 2062 003c 00E400E0 		.word	-536812544
 2063              		.cfi_endproc
 2064              	.LFE36:
 2065              		.size	CyIntSetPriority, .-CyIntSetPriority
 2066              		.section	.text.CySysWdtClearInterrupt,"ax",%progbits
 2067              		.align	2
 2068              		.global	CySysWdtClearInterrupt
 2069              		.code	16
 2070              		.thumb_func
 2071              		.type	CySysWdtClearInterrupt, %function
 2072              	CySysWdtClearInterrupt:
 2073              	.LFB24:
 2074              		.loc 1 974 0
 2075              		.cfi_startproc
 2076 0000 70B5     		push	{r4, r5, r6, lr}
 2077              	.LCFI23:
 2078              		.cfi_def_cfa_offset 16
 2079              		.cfi_offset 4, -16
 2080              		.cfi_offset 5, -12
 2081              		.cfi_offset 6, -8
 2082              		.cfi_offset 14, -4
ARM GAS  C:\Users\asha\AppData\Local\Temp\ccSrRbz4.s 			page 66


 2083              	.LVL107:
 2084              		.loc 1 974 0
 2085 0002 041C     		mov	r4, r0
 2086              		.loc 1 978 0
 2087 0004 FFF7FEFF 		bl	CyEnterCriticalSection
 2088              	.LVL108:
 2089              		.loc 1 983 0
 2090 0008 174B     		ldr	r3, .L227
 2091 000a 1A68     		ldr	r2, [r3]
 2092 000c 002A     		cmp	r2, #0
 2093 000e 04DB     		blt	.L222
 2094              	.LBB140:
 2095              	.LBB141:
 2096              		.loc 1 86 0
 2097 0010 1968     		ldr	r1, [r3]
 2098 0012 8026     		mov	r6, #128
 2099 0014 3506     		lsl	r5, r6, #24
 2100 0016 0D43     		orr	r5, r5, r1
 2101 0018 1D60     		str	r5, [r3]
 2102              	.L222:
 2103              	.LBE141:
 2104              	.LBE140:
 2105              		.loc 1 988 0
 2106 001a 144A     		ldr	r2, .L227+4
 2107 001c C025     		mov	r5, #192
 2108 001e 1168     		ldr	r1, [r2]
 2109 0020 2B02     		lsl	r3, r5, #8
 2110 0022 1940     		and	r1, r1, r3
 2111 0024 9942     		cmp	r1, r3
 2112 0026 08D0     		beq	.L226
 2113              		.loc 1 1005 0
 2114 0028 114B     		ldr	r3, .L227+8
 2115 002a 1249     		ldr	r1, .L227+12
 2116 002c 1A68     		ldr	r2, [r3]
 2117 002e 0C40     		and	r4, r4, r1
 2118              	.LVL109:
 2119 0030 1443     		orr	r4, r4, r2
 2120 0032 1C60     		str	r4, [r3]
 2121              	.L224:
 2122              		.loc 1 1015 0
 2123 0034 FFF7FEFF 		bl	CyExitCriticalSection
 2124              		.loc 1 1016 0
 2125              		@ sp needed for prologue
 2126 0038 70BD     		pop	{r4, r5, r6, pc}
 2127              	.LVL110:
 2128              	.L226:
 2129              		.loc 1 993 0
 2130 003a 1668     		ldr	r6, [r2]
 2131 003c 0E4B     		ldr	r3, .L227+16
 2132 003e 8025     		mov	r5, #128
 2133 0040 1E40     		and	r6, r6, r3
 2134 0042 ED01     		lsl	r5, r5, #7
 2135 0044 3543     		orr	r5, r5, r6
 2136 0046 1560     		str	r5, [r2]
 2137              		.loc 1 996 0
 2138 0048 1568     		ldr	r5, [r2]
 2139 004a 8026     		mov	r6, #128
ARM GAS  C:\Users\asha\AppData\Local\Temp\ccSrRbz4.s 			page 67


 2140 004c 1D40     		and	r5, r5, r3
 2141 004e 3302     		lsl	r3, r6, #8
 2142 0050 2B43     		orr	r3, r3, r5
 2143 0052 1360     		str	r3, [r2]
 2144              		.loc 1 1005 0
 2145 0054 064B     		ldr	r3, .L227+8
 2146 0056 074E     		ldr	r6, .L227+12
 2147 0058 1D68     		ldr	r5, [r3]
 2148 005a 3440     		and	r4, r4, r6
 2149              	.LVL111:
 2150 005c 2C43     		orr	r4, r4, r5
 2151 005e 1C60     		str	r4, [r3]
 2152              		.loc 1 1011 0
 2153 0060 1468     		ldr	r4, [r2]
 2154 0062 2143     		orr	r1, r1, r4
 2155 0064 1160     		str	r1, [r2]
 2156 0066 E5E7     		b	.L224
 2157              	.L228:
 2158              		.align	2
 2159              	.L227:
 2160 0068 04010B40 		.word	1074462980
 2161 006c 00010B40 		.word	1074462976
 2162 0070 10020B40 		.word	1074463248
 2163 0074 04040400 		.word	263172
 2164 0078 FF3FFFFF 		.word	-49153
 2165              		.cfi_endproc
 2166              	.LFE24:
 2167              		.size	CySysWdtClearInterrupt, .-CySysWdtClearInterrupt
 2168              		.section	.text.CySysWdtUnlock,"ax",%progbits
 2169              		.align	2
 2170              		.global	CySysWdtUnlock
 2171              		.code	16
 2172              		.thumb_func
 2173              		.type	CySysWdtUnlock, %function
 2174              	CySysWdtUnlock:
 2175              	.LFB8:
 2176              		.loc 1 394 0
 2177              		.cfi_startproc
 2178 0000 10B5     		push	{r4, lr}
 2179              	.LCFI24:
 2180              		.cfi_def_cfa_offset 8
 2181              		.cfi_offset 4, -8
 2182              		.cfi_offset 14, -4
 2183              		.loc 1 396 0
 2184 0002 FFF7FEFF 		bl	CyEnterCriticalSection
 2185              		.loc 1 401 0
 2186 0006 0D4B     		ldr	r3, .L232
 2187 0008 1A68     		ldr	r2, [r3]
 2188 000a 002A     		cmp	r2, #0
 2189 000c 04DB     		blt	.L230
 2190              	.LBB142:
 2191              	.LBB143:
 2192              		.loc 1 86 0
 2193 000e 1968     		ldr	r1, [r3]
 2194 0010 8022     		mov	r2, #128
 2195 0012 1406     		lsl	r4, r2, #24
 2196 0014 0C43     		orr	r4, r4, r1
ARM GAS  C:\Users\asha\AppData\Local\Temp\ccSrRbz4.s 			page 68


 2197 0016 1C60     		str	r4, [r3]
 2198              	.L230:
 2199              	.LBE143:
 2200              	.LBE142:
 2201              		.loc 1 407 0
 2202 0018 094B     		ldr	r3, .L232+4
 2203 001a 0A4A     		ldr	r2, .L232+8
 2204 001c 1C68     		ldr	r4, [r3]
 2205 001e 8021     		mov	r1, #128
 2206 0020 1440     		and	r4, r4, r2
 2207 0022 C901     		lsl	r1, r1, #7
 2208 0024 2143     		orr	r1, r1, r4
 2209 0026 1960     		str	r1, [r3]
 2210              		.loc 1 410 0
 2211 0028 1968     		ldr	r1, [r3]
 2212              		.loc 1 414 0
 2213              		@ sp needed for prologue
 2214              		.loc 1 410 0
 2215 002a 1140     		and	r1, r1, r2
 2216 002c 8022     		mov	r2, #128
 2217 002e 1402     		lsl	r4, r2, #8
 2218 0030 0C43     		orr	r4, r4, r1
 2219 0032 1C60     		str	r4, [r3]
 2220              		.loc 1 413 0
 2221 0034 FFF7FEFF 		bl	CyExitCriticalSection
 2222              		.loc 1 414 0
 2223 0038 10BD     		pop	{r4, pc}
 2224              	.L233:
 2225 003a C046     		.align	2
 2226              	.L232:
 2227 003c 04010B40 		.word	1074462980
 2228 0040 00010B40 		.word	1074462976
 2229 0044 FF3FFFFF 		.word	-49153
 2230              		.cfi_endproc
 2231              	.LFE8:
 2232              		.size	CySysWdtUnlock, .-CySysWdtUnlock
 2233              		.section	.text.CySysWdtLock,"ax",%progbits
 2234              		.align	2
 2235              		.global	CySysWdtLock
 2236              		.code	16
 2237              		.thumb_func
 2238              		.type	CySysWdtLock, %function
 2239              	CySysWdtLock:
 2240              	.LFB7:
 2241              		.loc 1 356 0
 2242              		.cfi_startproc
 2243 0000 08B5     		push	{r3, lr}
 2244              	.LCFI25:
 2245              		.cfi_def_cfa_offset 8
 2246              		.cfi_offset 3, -8
 2247              		.cfi_offset 14, -4
 2248              		.loc 1 358 0
 2249 0002 FFF7FEFF 		bl	CyEnterCriticalSection
 2250              		.loc 1 363 0
 2251 0006 094B     		ldr	r3, .L237
 2252 0008 1A68     		ldr	r2, [r3]
 2253 000a 002A     		cmp	r2, #0
ARM GAS  C:\Users\asha\AppData\Local\Temp\ccSrRbz4.s 			page 69


 2254 000c 04DB     		blt	.L235
 2255              	.LBB144:
 2256              	.LBB145:
 2257              		.loc 1 86 0
 2258 000e 1968     		ldr	r1, [r3]
 2259 0010 8022     		mov	r2, #128
 2260 0012 1206     		lsl	r2, r2, #24
 2261 0014 0A43     		orr	r2, r2, r1
 2262 0016 1A60     		str	r2, [r3]
 2263              	.L235:
 2264              	.LBE145:
 2265              	.LBE144:
 2266              		.loc 1 369 0
 2267 0018 054A     		ldr	r2, .L237+4
 2268 001a C023     		mov	r3, #192
 2269 001c 1168     		ldr	r1, [r2]
 2270 001e 1B02     		lsl	r3, r3, #8
 2271 0020 0B43     		orr	r3, r3, r1
 2272 0022 1360     		str	r3, [r2]
 2273              		.loc 1 372 0
 2274 0024 FFF7FEFF 		bl	CyExitCriticalSection
 2275              		.loc 1 373 0
 2276              		@ sp needed for prologue
 2277 0028 08BD     		pop	{r3, pc}
 2278              	.L238:
 2279 002a C046     		.align	2
 2280              	.L237:
 2281 002c 04010B40 		.word	1074462980
 2282 0030 00010B40 		.word	1074462976
 2283              		.cfi_endproc
 2284              	.LFE7:
 2285              		.size	CySysWdtLock, .-CySysWdtLock
 2286              		.section	.text.CySysClkWriteImoFreq,"ax",%progbits
 2287              		.align	2
 2288              		.global	CySysClkWriteImoFreq
 2289              		.code	16
 2290              		.thumb_func
 2291              		.type	CySysClkWriteImoFreq, %function
 2292              	CySysClkWriteImoFreq:
 2293              	.LFB6:
 2294              		.loc 1 215 0
 2295              		.cfi_startproc
 2296 0000 F0B5     		push	{r4, r5, r6, r7, lr}
 2297              	.LCFI26:
 2298              		.cfi_def_cfa_offset 20
 2299              		.cfi_offset 4, -20
 2300              		.cfi_offset 5, -16
 2301              		.cfi_offset 6, -12
 2302              		.cfi_offset 7, -8
 2303              		.cfi_offset 14, -4
 2304 0002 5746     		mov	r7, sl
 2305 0004 4E46     		mov	r6, r9
 2306 0006 4546     		mov	r5, r8
 2307 0008 E0B4     		push	{r5, r6, r7}
 2308              	.LCFI27:
 2309              		.cfi_def_cfa_offset 32
 2310              		.cfi_offset 8, -32
ARM GAS  C:\Users\asha\AppData\Local\Temp\ccSrRbz4.s 			page 70


 2311              		.cfi_offset 9, -28
 2312              		.cfi_offset 10, -24
 2313              	.LVL112:
 2314              		.loc 1 238 0
 2315 000a C61E     		sub	r6, r0, #3
 2316              		.loc 1 215 0
 2317 000c 051C     		mov	r5, r0
 2318              		.loc 1 238 0
 2319 000e 2D2E     		cmp	r6, #45
 2320 0010 05D9     		bls	.L260
 2321              	.LVL113:
 2322              	.LBB146:
 2323              	.LBB147:
 2324              		.loc 1 1512 0
 2325              	@ 1512 ".\Generated_Source\PSoC4\CyLib.c" 1
 2326 0012 01BE     		    bkpt    1
 2327              	@ 0 "" 2
 2328              	.LVL114:
 2329              		.code	16
 2330              	.L254:
 2331              	.LBE147:
 2332              	.LBE146:
 2333              		.loc 1 332 0
 2334              		@ sp needed for prologue
 2335              	.LVL115:
 2336              	.LVL116:
 2337              	.LVL117:
 2338 0014 1CBC     		pop	{r2, r3, r4}
 2339 0016 9046     		mov	r8, r2
 2340 0018 9946     		mov	r9, r3
 2341 001a A246     		mov	sl, r4
 2342 001c F0BD     		pop	{r4, r5, r6, r7, pc}
 2343              	.LVL118:
 2344              	.L260:
 2345              		.loc 1 240 0
 2346 001e FFF7FEFF 		bl	CyEnterCriticalSection
 2347 0022 0023     		mov	r3, #0
 2348              	.LVL119:
 2349 0024 8146     		mov	r9, r0
 2350 0026 434C     		ldr	r4, .L263
 2351              		.loc 1 245 0
 2352 0028 4349     		ldr	r1, .L263+4
 2353 002a 3F22     		mov	r2, #63
 2354 002c 09E0     		b	.L243
 2355              	.L241:
 2356              		.loc 1 243 0
 2357 002e 0133     		add	r3, r3, #1
 2358              		.loc 1 245 0
 2359 0030 0868     		ldr	r0, [r1]
 2360 0032 E75C     		ldrb	r7, [r4, r3]
 2361 0034 1040     		and	r0, r0, r2
 2362 0036 B846     		mov	r8, r7
 2363 0038 8045     		cmp	r8, r0
 2364 003a 08D0     		beq	.L258
 2365              		.loc 1 243 0
 2366 003c 0133     		add	r3, r3, #1
 2367 003e 2E2B     		cmp	r3, #46
ARM GAS  C:\Users\asha\AppData\Local\Temp\ccSrRbz4.s 			page 71


 2368 0040 58D0     		beq	.L261
 2369              	.L243:
 2370              		.loc 1 245 0
 2371 0042 0868     		ldr	r0, [r1]
 2372 0044 E75C     		ldrb	r7, [r4, r3]
 2373 0046 1040     		and	r0, r0, r2
 2374 0048 BC46     		mov	ip, r7
 2375 004a 8445     		cmp	ip, r0
 2376 004c EFD1     		bne	.L241
 2377              	.L258:
 2378              		.loc 1 247 0
 2379 004e 0333     		add	r3, r3, #3
 2380              	.LVL120:
 2381 0050 2A21     		mov	r1, #42
 2382 0052 9942     		cmp	r1, r3
 2383 0054 9241     		sbc	r2, r2, r2
 2384 0056 5242     		neg	r2, r2
 2385              	.L242:
 2386              		.loc 1 252 0
 2387 0058 3848     		ldr	r0, .L263+8
 2388 005a 0178     		ldrb	r1, [r0]
 2389 005c 8D42     		cmp	r5, r1
 2390 005e 3ED8     		bhi	.L244
 2391              		.loc 1 254 0
 2392 0060 3748     		ldr	r0, .L263+12
 2393              		.loc 1 255 0
 2394 0062 384F     		ldr	r7, .L263+16
 2395              		.loc 1 254 0
 2396 0064 0178     		ldrb	r1, [r0]
 2397 0066 8846     		mov	r8, r1
 2398              	.LVL121:
 2399              		.loc 1 255 0
 2400 0068 3978     		ldrb	r1, [r7]
 2401 006a 8A46     		mov	sl, r1
 2402              	.LVL122:
 2403              	.L245:
 2404              		.loc 1 284 0
 2405 006c 002A     		cmp	r2, #0
 2406 006e 1FD0     		beq	.L249
 2407 0070 2A2D     		cmp	r5, #42
 2408 0072 1DD9     		bls	.L249
 2409              		.loc 1 287 0
 2410 0074 304B     		ldr	r3, .L263+4
 2411              	.LVL123:
 2412 0076 1922     		mov	r2, #25
 2413 0078 1A60     		str	r2, [r3]
 2414              		.loc 1 290 0
 2415 007a 0520     		mov	r0, #5
 2416 007c FFF7FEFF 		bl	CyDelayCycles
 2417              	.LVL124:
 2418              	.L250:
 2419              		.loc 1 303 0
 2420 0080 314A     		ldr	r2, .L263+20
 2421 0082 3248     		ldr	r0, .L263+24
 2422 0084 AB18     		add	r3, r5, r2
 2423              	.LVL125:
 2424 0086 1978     		ldrb	r1, [r3]
ARM GAS  C:\Users\asha\AppData\Local\Temp\ccSrRbz4.s 			page 72


 2425              		.loc 1 304 0
 2426 0088 4746     		mov	r7, r8
 2427              		.loc 1 303 0
 2428 008a 0160     		str	r1, [r0]
 2429              		.loc 1 304 0
 2430 008c 0C38     		sub	r0, r0, #12
 2431 008e 0760     		str	r7, [r0]
 2432              		.loc 1 305 0
 2433 0090 5246     		mov	r2, sl
 2434 0092 0430     		add	r0, r0, #4
 2435 0094 0260     		str	r2, [r0]
 2436              		.loc 1 306 0
 2437 0096 0520     		mov	r0, #5
 2438 0098 FFF7FEFF 		bl	CyDelayUs
 2439              		.loc 1 309 0
 2440 009c A55D     		ldrb	r5, [r4, r6]
 2441              	.LVL126:
 2442 009e 264C     		ldr	r4, .L263+4
 2443              		.loc 1 310 0
 2444 00a0 0520     		mov	r0, #5
 2445              		.loc 1 309 0
 2446 00a2 2560     		str	r5, [r4]
 2447              		.loc 1 310 0
 2448 00a4 FFF7FEFF 		bl	CyDelayCycles
 2449              	.L252:
 2450              		.loc 1 325 0
 2451 00a8 4846     		mov	r0, r9
 2452 00aa FFF7FEFF 		bl	CyExitCriticalSection
 2453 00ae B1E7     		b	.L254
 2454              	.LVL127:
 2455              	.L249:
 2456              		.loc 1 300 0
 2457 00b0 AB42     		cmp	r3, r5
 2458 00b2 E5D3     		bcc	.L250
 2459              		.loc 1 315 0
 2460 00b4 A15D     		ldrb	r1, [r4, r6]
 2461 00b6 204B     		ldr	r3, .L263+4
 2462              	.LVL128:
 2463              		.loc 1 316 0
 2464 00b8 0520     		mov	r0, #5
 2465              		.loc 1 315 0
 2466 00ba 1960     		str	r1, [r3]
 2467              		.loc 1 316 0
 2468 00bc FFF7FEFF 		bl	CyDelayCycles
 2469              		.loc 1 319 0
 2470 00c0 2148     		ldr	r0, .L263+20
 2471 00c2 224E     		ldr	r6, .L263+24
 2472 00c4 2D18     		add	r5, r5, r0
 2473              	.LVL129:
 2474 00c6 2C78     		ldrb	r4, [r5]
 2475              		.loc 1 320 0
 2476 00c8 4746     		mov	r7, r8
 2477              		.loc 1 319 0
 2478 00ca 3460     		str	r4, [r6]
 2479              		.loc 1 320 0
 2480 00cc 0C3E     		sub	r6, r6, #12
 2481 00ce 3760     		str	r7, [r6]
ARM GAS  C:\Users\asha\AppData\Local\Temp\ccSrRbz4.s 			page 73


 2482              		.loc 1 321 0
 2483 00d0 5246     		mov	r2, sl
 2484 00d2 0436     		add	r6, r6, #4
 2485 00d4 3260     		str	r2, [r6]
 2486              		.loc 1 322 0
 2487 00d6 0520     		mov	r0, #5
 2488 00d8 FFF7FEFF 		bl	CyDelayUs
 2489 00dc E4E7     		b	.L252
 2490              	.LVL130:
 2491              	.L244:
 2492              		.loc 1 257 0
 2493 00de 1C4F     		ldr	r7, .L263+28
 2494 00e0 3978     		ldrb	r1, [r7]
 2495 00e2 8D42     		cmp	r5, r1
 2496 00e4 09D8     		bhi	.L246
 2497              		.loc 1 259 0
 2498 00e6 1B4F     		ldr	r7, .L263+32
 2499              		.loc 1 260 0
 2500 00e8 1B48     		ldr	r0, .L263+36
 2501              		.loc 1 259 0
 2502 00ea 3978     		ldrb	r1, [r7]
 2503 00ec 8846     		mov	r8, r1
 2504              	.LVL131:
 2505              		.loc 1 260 0
 2506 00ee 0178     		ldrb	r1, [r0]
 2507 00f0 8A46     		mov	sl, r1
 2508              	.LVL132:
 2509 00f2 BBE7     		b	.L245
 2510              	.LVL133:
 2511              	.L261:
 2512              		.loc 1 243 0
 2513 00f4 0122     		mov	r2, #1
 2514 00f6 3023     		mov	r3, #48
 2515              	.LVL134:
 2516 00f8 AEE7     		b	.L242
 2517              	.L246:
 2518              		.loc 1 262 0
 2519 00fa 1848     		ldr	r0, .L263+40
 2520 00fc 0178     		ldrb	r1, [r0]
 2521 00fe 8D42     		cmp	r5, r1
 2522 0100 0AD9     		bls	.L262
 2523              		.loc 1 267 0
 2524 0102 174F     		ldr	r7, .L263+44
 2525 0104 3978     		ldrb	r1, [r7]
 2526 0106 8D42     		cmp	r5, r1
 2527 0108 0DD8     		bhi	.L248
 2528              		.loc 1 269 0
 2529 010a 164F     		ldr	r7, .L263+48
 2530              		.loc 1 270 0
 2531 010c 1648     		ldr	r0, .L263+52
 2532              		.loc 1 269 0
 2533 010e 3978     		ldrb	r1, [r7]
 2534 0110 8846     		mov	r8, r1
 2535              	.LVL135:
 2536              		.loc 1 270 0
 2537 0112 0178     		ldrb	r1, [r0]
 2538 0114 8A46     		mov	sl, r1
ARM GAS  C:\Users\asha\AppData\Local\Temp\ccSrRbz4.s 			page 74


 2539              	.LVL136:
 2540 0116 A9E7     		b	.L245
 2541              	.LVL137:
 2542              	.L262:
 2543              		.loc 1 264 0
 2544 0118 1448     		ldr	r0, .L263+56
 2545              		.loc 1 265 0
 2546 011a 154F     		ldr	r7, .L263+60
 2547              		.loc 1 264 0
 2548 011c 0178     		ldrb	r1, [r0]
 2549 011e 8846     		mov	r8, r1
 2550              	.LVL138:
 2551              		.loc 1 265 0
 2552 0120 3978     		ldrb	r1, [r7]
 2553 0122 8A46     		mov	sl, r1
 2554              	.LVL139:
 2555 0124 A2E7     		b	.L245
 2556              	.LVL140:
 2557              	.L248:
 2558              		.loc 1 274 0
 2559 0126 134F     		ldr	r7, .L263+64
 2560              		.loc 1 275 0
 2561 0128 0748     		ldr	r0, .L263+20
 2562              		.loc 1 274 0
 2563 012a 3978     		ldrb	r1, [r7]
 2564 012c 8846     		mov	r8, r1
 2565              	.LVL141:
 2566              		.loc 1 275 0
 2567 012e 0178     		ldrb	r1, [r0]
 2568 0130 8A46     		mov	sl, r1
 2569              	.LVL142:
 2570 0132 9BE7     		b	.L245
 2571              	.L264:
 2572              		.align	2
 2573              	.L263:
 2574 0134 00000000 		.word	.LANCHOR1
 2575 0138 2CFF0B40 		.word	1074528044
 2576 013c C0F1FF0F 		.word	268431808
 2577 0140 C1F1FF0F 		.word	268431809
 2578 0144 C2F1FF0F 		.word	268431810
 2579 0148 CDF1FF0F 		.word	268431821
 2580 014c 28FF0B40 		.word	1074528040
 2581 0150 C3F1FF0F 		.word	268431811
 2582 0154 C4F1FF0F 		.word	268431812
 2583 0158 C5F1FF0F 		.word	268431813
 2584 015c C6F1FF0F 		.word	268431814
 2585 0160 C9F1FF0F 		.word	268431817
 2586 0164 CAF1FF0F 		.word	268431818
 2587 0168 CBF1FF0F 		.word	268431819
 2588 016c C7F1FF0F 		.word	268431815
 2589 0170 C8F1FF0F 		.word	268431816
 2590 0174 CCF1FF0F 		.word	268431820
 2591              		.cfi_endproc
 2592              	.LFE6:
 2593              		.size	CySysClkWriteImoFreq, .-CySysClkWriteImoFreq
 2594              		.global	cydelayFreqHz
 2595              		.global	cydelayFreqKhz
ARM GAS  C:\Users\asha\AppData\Local\Temp\ccSrRbz4.s 			page 75


 2596              		.global	cydelayFreqMhz
 2597              		.global	cydelay32kMs
 2598              		.section	.rodata
 2599              		.align	2
 2600              		.set	.LANCHOR1,. + 0
 2601              		.type	cyImoFreqMhz2Reg.1839, %object
 2602              		.size	cyImoFreqMhz2Reg.1839, 46
 2603              	cyImoFreqMhz2Reg.1839:
 2604 0000 03       		.byte	3
 2605 0001 04       		.byte	4
 2606 0002 05       		.byte	5
 2607 0003 06       		.byte	6
 2608 0004 07       		.byte	7
 2609 0005 08       		.byte	8
 2610 0006 09       		.byte	9
 2611 0007 0A       		.byte	10
 2612 0008 0B       		.byte	11
 2613 0009 0C       		.byte	12
 2614 000a 0E       		.byte	14
 2615 000b 0F       		.byte	15
 2616 000c 10       		.byte	16
 2617 000d 11       		.byte	17
 2618 000e 12       		.byte	18
 2619 000f 13       		.byte	19
 2620 0010 14       		.byte	20
 2621 0011 15       		.byte	21
 2622 0012 16       		.byte	22
 2623 0013 17       		.byte	23
 2624 0014 18       		.byte	24
 2625 0015 19       		.byte	25
 2626 0016 1B       		.byte	27
 2627 0017 1C       		.byte	28
 2628 0018 1D       		.byte	29
 2629 0019 1E       		.byte	30
 2630 001a 1F       		.byte	31
 2631 001b 20       		.byte	32
 2632 001c 21       		.byte	33
 2633 001d 22       		.byte	34
 2634 001e 23       		.byte	35
 2635 001f 25       		.byte	37
 2636 0020 26       		.byte	38
 2637 0021 27       		.byte	39
 2638 0022 28       		.byte	40
 2639 0023 29       		.byte	41
 2640 0024 2A       		.byte	42
 2641 0025 2B       		.byte	43
 2642 0026 2E       		.byte	46
 2643 0027 2F       		.byte	47
 2644 0028 30       		.byte	48
 2645 0029 31       		.byte	49
 2646 002a 32       		.byte	50
 2647 002b 33       		.byte	51
 2648 002c 34       		.byte	52
 2649 002d 35       		.byte	53
 2650 002e 0000     		.data
 2651              		.align	2
 2652              		.set	.LANCHOR0,. + 0
ARM GAS  C:\Users\asha\AppData\Local\Temp\ccSrRbz4.s 			page 76


 2653              		.type	cydelayFreqHz, %object
 2654              		.size	cydelayFreqHz, 4
 2655              	cydelayFreqHz:
 2656 0000 006CDC02 		.word	48000000
 2657              		.type	cydelayFreqMhz, %object
 2658              		.size	cydelayFreqMhz, 1
 2659              	cydelayFreqMhz:
 2660 0004 30       		.byte	48
 2661 0005 000000   		.space	3
 2662              		.type	cydelayFreqKhz, %object
 2663              		.size	cydelayFreqKhz, 4
 2664              	cydelayFreqKhz:
 2665 0008 80BB0000 		.word	48000
 2666              		.type	cydelay32kMs, %object
 2667              		.size	cydelay32kMs, 4
 2668              	cydelay32kMs:
 2669 000c 0000C05D 		.word	1572864000
 2670              		.text
 2671              	.Letext0:
 2672              		.section	.debug_loc,"",%progbits
 2673              	.Ldebug_loc0:
 2674              	.LLST5:
 2675 0000 00000000 		.4byte	.LVL0
 2676 0004 08000000 		.4byte	.LVL1
 2677 0008 0100     		.2byte	0x1
 2678 000a 50       		.byte	0x50
 2679 000b 00000000 		.4byte	0x0
 2680 000f 00000000 		.4byte	0x0
 2681              	.LLST6:
 2682 0013 00000000 		.4byte	.LFB5
 2683 0017 02000000 		.4byte	.LCFI0
 2684 001b 0100     		.2byte	0x1
 2685 001d 5D       		.byte	0x5d
 2686 001e 02000000 		.4byte	.LCFI0
 2687 0022 20000000 		.4byte	.LFE5
 2688 0026 0200     		.2byte	0x2
 2689 0028 7D       		.byte	0x7d
 2690 0029 08       		.sleb128 8
 2691 002a 00000000 		.4byte	0x0
 2692 002e 00000000 		.4byte	0x0
 2693              	.LLST7:
 2694 0032 02000000 		.4byte	.LVL2
 2695 0036 0A000000 		.4byte	.LVL3
 2696 003a 0100     		.2byte	0x1
 2697 003c 50       		.byte	0x50
 2698 003d 00000000 		.4byte	0x0
 2699 0041 00000000 		.4byte	0x0
 2700              	.LLST8:
 2701 0045 00000000 		.4byte	.LFB9
 2702 0049 02000000 		.4byte	.LCFI1
 2703 004d 0100     		.2byte	0x1
 2704 004f 5D       		.byte	0x5d
 2705 0050 02000000 		.4byte	.LCFI1
 2706 0054 20000000 		.4byte	.LFE9
 2707 0058 0200     		.2byte	0x2
 2708 005a 7D       		.byte	0x7d
 2709 005b 04       		.sleb128 4
ARM GAS  C:\Users\asha\AppData\Local\Temp\ccSrRbz4.s 			page 77


 2710 005c 00000000 		.4byte	0x0
 2711 0060 00000000 		.4byte	0x0
 2712              	.LLST9:
 2713 0064 02000000 		.4byte	.LVL4
 2714 0068 0C000000 		.4byte	.LVL5
 2715 006c 0100     		.2byte	0x1
 2716 006e 50       		.byte	0x50
 2717 006f 00000000 		.4byte	0x0
 2718 0073 00000000 		.4byte	0x0
 2719              	.LLST10:
 2720 0077 00000000 		.4byte	.LFB10
 2721 007b 02000000 		.4byte	.LCFI2
 2722 007f 0100     		.2byte	0x1
 2723 0081 5D       		.byte	0x5d
 2724 0082 02000000 		.4byte	.LCFI2
 2725 0086 54000000 		.4byte	.LFE10
 2726 008a 0200     		.2byte	0x2
 2727 008c 7D       		.byte	0x7d
 2728 008d 0C       		.sleb128 12
 2729 008e 00000000 		.4byte	0x0
 2730 0092 00000000 		.4byte	0x0
 2731              	.LLST11:
 2732 0096 02000000 		.4byte	.LVL6
 2733 009a 24000000 		.4byte	.LVL7
 2734 009e 0100     		.2byte	0x1
 2735 00a0 50       		.byte	0x50
 2736 00a1 00000000 		.4byte	0x0
 2737 00a5 00000000 		.4byte	0x0
 2738              	.LLST12:
 2739 00a9 3A000000 		.4byte	.LVL8
 2740 00ad 42000000 		.4byte	.LVL9
 2741 00b1 0100     		.2byte	0x1
 2742 00b3 54       		.byte	0x54
 2743 00b4 42000000 		.4byte	.LVL9
 2744 00b8 54000000 		.4byte	.LFE10
 2745 00bc 0100     		.2byte	0x1
 2746 00be 50       		.byte	0x50
 2747 00bf 00000000 		.4byte	0x0
 2748 00c3 00000000 		.4byte	0x0
 2749              	.LLST14:
 2750 00c7 00000000 		.4byte	.LVL10
 2751 00cb 04000000 		.4byte	.LVL11
 2752 00cf 0100     		.2byte	0x1
 2753 00d1 50       		.byte	0x50
 2754 00d2 00000000 		.4byte	0x0
 2755 00d6 00000000 		.4byte	0x0
 2756              	.LLST15:
 2757 00da 00000000 		.4byte	.LFB12
 2758 00de 02000000 		.4byte	.LCFI3
 2759 00e2 0100     		.2byte	0x1
 2760 00e4 5D       		.byte	0x5d
 2761 00e5 02000000 		.4byte	.LCFI3
 2762 00e9 4C000000 		.4byte	.LFE12
 2763 00ed 0200     		.2byte	0x2
 2764 00ef 7D       		.byte	0x7d
 2765 00f0 08       		.sleb128 8
 2766 00f1 00000000 		.4byte	0x0
ARM GAS  C:\Users\asha\AppData\Local\Temp\ccSrRbz4.s 			page 78


 2767 00f5 00000000 		.4byte	0x0
 2768              	.LLST16:
 2769 00f9 02000000 		.4byte	.LVL12
 2770 00fd 32000000 		.4byte	.LVL13
 2771 0101 0100     		.2byte	0x1
 2772 0103 50       		.byte	0x50
 2773 0104 3C000000 		.4byte	.LVL15
 2774 0108 4C000000 		.4byte	.LFE12
 2775 010c 0100     		.2byte	0x1
 2776 010e 50       		.byte	0x50
 2777 010f 00000000 		.4byte	0x0
 2778 0113 00000000 		.4byte	0x0
 2779              	.LLST17:
 2780 0117 02000000 		.4byte	.LVL12
 2781 011b 38000000 		.4byte	.LVL14
 2782 011f 0100     		.2byte	0x1
 2783 0121 51       		.byte	0x51
 2784 0122 3C000000 		.4byte	.LVL15
 2785 0126 4C000000 		.4byte	.LFE12
 2786 012a 0100     		.2byte	0x1
 2787 012c 51       		.byte	0x51
 2788 012d 00000000 		.4byte	0x0
 2789 0131 00000000 		.4byte	0x0
 2790              	.LLST18:
 2791 0135 00000000 		.4byte	.LFB13
 2792 0139 02000000 		.4byte	.LCFI4
 2793 013d 0100     		.2byte	0x1
 2794 013f 5D       		.byte	0x5d
 2795 0140 02000000 		.4byte	.LCFI4
 2796 0144 20000000 		.4byte	.LFE13
 2797 0148 0200     		.2byte	0x2
 2798 014a 7D       		.byte	0x7d
 2799 014b 04       		.sleb128 4
 2800 014c 00000000 		.4byte	0x0
 2801 0150 00000000 		.4byte	0x0
 2802              	.LLST19:
 2803 0154 02000000 		.4byte	.LVL16
 2804 0158 0C000000 		.4byte	.LVL17
 2805 015c 0100     		.2byte	0x1
 2806 015e 50       		.byte	0x50
 2807 015f 00000000 		.4byte	0x0
 2808 0163 00000000 		.4byte	0x0
 2809              	.LLST20:
 2810 0167 00000000 		.4byte	.LFB14
 2811 016b 02000000 		.4byte	.LCFI5
 2812 016f 0100     		.2byte	0x1
 2813 0171 5D       		.byte	0x5d
 2814 0172 02000000 		.4byte	.LCFI5
 2815 0176 28000000 		.4byte	.LFE14
 2816 017a 0200     		.2byte	0x2
 2817 017c 7D       		.byte	0x7d
 2818 017d 04       		.sleb128 4
 2819 017e 00000000 		.4byte	0x0
 2820 0182 00000000 		.4byte	0x0
 2821              	.LLST21:
 2822 0186 02000000 		.4byte	.LVL18
 2823 018a 1A000000 		.4byte	.LVL19
ARM GAS  C:\Users\asha\AppData\Local\Temp\ccSrRbz4.s 			page 79


 2824 018e 0100     		.2byte	0x1
 2825 0190 50       		.byte	0x50
 2826 0191 00000000 		.4byte	0x0
 2827 0195 00000000 		.4byte	0x0
 2828              	.LLST22:
 2829 0199 00000000 		.4byte	.LFB15
 2830 019d 02000000 		.4byte	.LCFI6
 2831 01a1 0100     		.2byte	0x1
 2832 01a3 5D       		.byte	0x5d
 2833 01a4 02000000 		.4byte	.LCFI6
 2834 01a8 28000000 		.4byte	.LFE15
 2835 01ac 0200     		.2byte	0x2
 2836 01ae 7D       		.byte	0x7d
 2837 01af 04       		.sleb128 4
 2838 01b0 00000000 		.4byte	0x0
 2839 01b4 00000000 		.4byte	0x0
 2840              	.LLST23:
 2841 01b8 00000000 		.4byte	.LFB16
 2842 01bc 02000000 		.4byte	.LCFI7
 2843 01c0 0100     		.2byte	0x1
 2844 01c2 5D       		.byte	0x5d
 2845 01c3 02000000 		.4byte	.LCFI7
 2846 01c7 48000000 		.4byte	.LFE16
 2847 01cb 0200     		.2byte	0x2
 2848 01cd 7D       		.byte	0x7d
 2849 01ce 08       		.sleb128 8
 2850 01cf 00000000 		.4byte	0x0
 2851 01d3 00000000 		.4byte	0x0
 2852              	.LLST24:
 2853 01d7 02000000 		.4byte	.LVL21
 2854 01db 34000000 		.4byte	.LVL26
 2855 01df 0100     		.2byte	0x1
 2856 01e1 50       		.byte	0x50
 2857 01e2 00000000 		.4byte	0x0
 2858 01e6 00000000 		.4byte	0x0
 2859              	.LLST25:
 2860 01ea 12000000 		.4byte	.LVL22
 2861 01ee 14000000 		.4byte	.LVL23
 2862 01f2 0100     		.2byte	0x1
 2863 01f4 50       		.byte	0x50
 2864 01f5 30000000 		.4byte	.LVL24
 2865 01f9 32000000 		.4byte	.LVL25
 2866 01fd 0100     		.2byte	0x1
 2867 01ff 51       		.byte	0x51
 2868 0200 32000000 		.4byte	.LVL25
 2869 0204 34000000 		.4byte	.LVL26
 2870 0208 0100     		.2byte	0x1
 2871 020a 54       		.byte	0x54
 2872 020b 34000000 		.4byte	.LVL26
 2873 020f 48000000 		.4byte	.LFE16
 2874 0213 0100     		.2byte	0x1
 2875 0215 50       		.byte	0x50
 2876 0216 00000000 		.4byte	0x0
 2877 021a 00000000 		.4byte	0x0
 2878              	.LLST27:
 2879 021e 00000000 		.4byte	.LFB19
 2880 0222 02000000 		.4byte	.LCFI8
ARM GAS  C:\Users\asha\AppData\Local\Temp\ccSrRbz4.s 			page 80


 2881 0226 0100     		.2byte	0x1
 2882 0228 5D       		.byte	0x5d
 2883 0229 02000000 		.4byte	.LCFI8
 2884 022d 40000000 		.4byte	.LFE19
 2885 0231 0200     		.2byte	0x2
 2886 0233 7D       		.byte	0x7d
 2887 0234 04       		.sleb128 4
 2888 0235 00000000 		.4byte	0x0
 2889 0239 00000000 		.4byte	0x0
 2890              	.LLST28:
 2891 023d 02000000 		.4byte	.LVL27
 2892 0241 28000000 		.4byte	.LVL30
 2893 0245 0100     		.2byte	0x1
 2894 0247 50       		.byte	0x50
 2895 0248 2E000000 		.4byte	.LVL32
 2896 024c 40000000 		.4byte	.LFE19
 2897 0250 0100     		.2byte	0x1
 2898 0252 50       		.byte	0x50
 2899 0253 00000000 		.4byte	0x0
 2900 0257 00000000 		.4byte	0x0
 2901              	.LLST29:
 2902 025b 22000000 		.4byte	.LVL28
 2903 025f 24000000 		.4byte	.LVL29
 2904 0263 0100     		.2byte	0x1
 2905 0265 51       		.byte	0x51
 2906 0266 24000000 		.4byte	.LVL29
 2907 026a 2C000000 		.4byte	.LVL31
 2908 026e 0100     		.2byte	0x1
 2909 0270 52       		.byte	0x52
 2910 0271 2C000000 		.4byte	.LVL31
 2911 0275 40000000 		.4byte	.LFE19
 2912 0279 0100     		.2byte	0x1
 2913 027b 50       		.byte	0x50
 2914 027c 00000000 		.4byte	0x0
 2915 0280 00000000 		.4byte	0x0
 2916              	.LLST31:
 2917 0284 00000000 		.4byte	.LFB21
 2918 0288 02000000 		.4byte	.LCFI9
 2919 028c 0100     		.2byte	0x1
 2920 028e 5D       		.byte	0x5d
 2921 028f 02000000 		.4byte	.LCFI9
 2922 0293 18000000 		.4byte	.LFE21
 2923 0297 0200     		.2byte	0x2
 2924 0299 7D       		.byte	0x7d
 2925 029a 04       		.sleb128 4
 2926 029b 00000000 		.4byte	0x0
 2927 029f 00000000 		.4byte	0x0
 2928              	.LLST32:
 2929 02a3 02000000 		.4byte	.LVL33
 2930 02a7 12000000 		.4byte	.LVL34
 2931 02ab 0100     		.2byte	0x1
 2932 02ad 50       		.byte	0x50
 2933 02ae 00000000 		.4byte	0x0
 2934 02b2 00000000 		.4byte	0x0
 2935              	.LLST33:
 2936 02b6 00000000 		.4byte	.LFB22
 2937 02ba 02000000 		.4byte	.LCFI10
ARM GAS  C:\Users\asha\AppData\Local\Temp\ccSrRbz4.s 			page 81


 2938 02be 0100     		.2byte	0x1
 2939 02c0 5D       		.byte	0x5d
 2940 02c1 02000000 		.4byte	.LCFI10
 2941 02c5 34000000 		.4byte	.LFE22
 2942 02c9 0200     		.2byte	0x2
 2943 02cb 7D       		.byte	0x7d
 2944 02cc 04       		.sleb128 4
 2945 02cd 00000000 		.4byte	0x0
 2946 02d1 00000000 		.4byte	0x0
 2947              	.LLST34:
 2948 02d5 02000000 		.4byte	.LVL35
 2949 02d9 12000000 		.4byte	.LVL36
 2950 02dd 0100     		.2byte	0x1
 2951 02df 50       		.byte	0x50
 2952 02e0 14000000 		.4byte	.LVL38
 2953 02e4 18000000 		.4byte	.LVL39
 2954 02e8 0100     		.2byte	0x1
 2955 02ea 50       		.byte	0x50
 2956 02eb 1C000000 		.4byte	.LVL41
 2957 02ef 22000000 		.4byte	.LVL42
 2958 02f3 0100     		.2byte	0x1
 2959 02f5 50       		.byte	0x50
 2960 02f6 24000000 		.4byte	.LVL43
 2961 02fa 28000000 		.4byte	.LVL44
 2962 02fe 0100     		.2byte	0x1
 2963 0300 50       		.byte	0x50
 2964 0301 00000000 		.4byte	0x0
 2965 0305 00000000 		.4byte	0x0
 2966              	.LLST35:
 2967 0309 12000000 		.4byte	.LVL36
 2968 030d 12000000 		.4byte	.LVL37
 2969 0311 0100     		.2byte	0x1
 2970 0313 50       		.byte	0x50
 2971 0314 1A000000 		.4byte	.LVL40
 2972 0318 1C000000 		.4byte	.LVL41
 2973 031c 0100     		.2byte	0x1
 2974 031e 50       		.byte	0x50
 2975 031f 22000000 		.4byte	.LVL42
 2976 0323 24000000 		.4byte	.LVL43
 2977 0327 0100     		.2byte	0x1
 2978 0329 50       		.byte	0x50
 2979 032a 28000000 		.4byte	.LVL44
 2980 032e 34000000 		.4byte	.LFE22
 2981 0332 0100     		.2byte	0x1
 2982 0334 50       		.byte	0x50
 2983 0335 00000000 		.4byte	0x0
 2984 0339 00000000 		.4byte	0x0
 2985              	.LLST37:
 2986 033d 00000000 		.4byte	.LFB25
 2987 0341 02000000 		.4byte	.LCFI11
 2988 0345 0100     		.2byte	0x1
 2989 0347 5D       		.byte	0x5d
 2990 0348 02000000 		.4byte	.LCFI11
 2991 034c 30000000 		.4byte	.LFE25
 2992 0350 0200     		.2byte	0x2
 2993 0352 7D       		.byte	0x7d
 2994 0353 04       		.sleb128 4
ARM GAS  C:\Users\asha\AppData\Local\Temp\ccSrRbz4.s 			page 82


 2995 0354 00000000 		.4byte	0x0
 2996 0358 00000000 		.4byte	0x0
 2997              	.LLST38:
 2998 035c 02000000 		.4byte	.LVL45
 2999 0360 1C000000 		.4byte	.LVL46
 3000 0364 0100     		.2byte	0x1
 3001 0366 50       		.byte	0x50
 3002 0367 00000000 		.4byte	0x0
 3003 036b 00000000 		.4byte	0x0
 3004              	.LLST40:
 3005 036f 00000000 		.4byte	.LVL47
 3006 0373 08000000 		.4byte	.LVL48
 3007 0377 0100     		.2byte	0x1
 3008 0379 50       		.byte	0x50
 3009 037a 00000000 		.4byte	0x0
 3010 037e 00000000 		.4byte	0x0
 3011              	.LLST45:
 3012 0382 08000000 		.4byte	.LVL49
 3013 0386 0A000000 		.4byte	.LVL50
 3014 038a 0100     		.2byte	0x1
 3015 038c 50       		.byte	0x50
 3016 038d 00000000 		.4byte	0x0
 3017 0391 00000000 		.4byte	0x0
 3018              	.LLST47:
 3019 0395 00000000 		.4byte	.LFB32
 3020 0399 02000000 		.4byte	.LCFI12
 3021 039d 0100     		.2byte	0x1
 3022 039f 5D       		.byte	0x5d
 3023 03a0 02000000 		.4byte	.LCFI12
 3024 03a4 16000000 		.4byte	.LFE32
 3025 03a8 0200     		.2byte	0x2
 3026 03aa 7D       		.byte	0x7d
 3027 03ab 04       		.sleb128 4
 3028 03ac 00000000 		.4byte	0x0
 3029 03b0 00000000 		.4byte	0x0
 3030              	.LLST48:
 3031 03b4 02000000 		.4byte	.LVL52
 3032 03b8 0C000000 		.4byte	.LVL53
 3033 03bc 0100     		.2byte	0x1
 3034 03be 50       		.byte	0x50
 3035 03bf 00000000 		.4byte	0x0
 3036 03c3 00000000 		.4byte	0x0
 3037              	.LLST49:
 3038 03c7 12000000 		.4byte	.LVL54
 3039 03cb 14000000 		.4byte	.LVL55
 3040 03cf 0100     		.2byte	0x1
 3041 03d1 50       		.byte	0x50
 3042 03d2 00000000 		.4byte	0x0
 3043 03d6 00000000 		.4byte	0x0
 3044              	.LLST50:
 3045 03da 00000000 		.4byte	.LFB33
 3046 03de 02000000 		.4byte	.LCFI13
 3047 03e2 0100     		.2byte	0x1
 3048 03e4 5D       		.byte	0x5d
 3049 03e5 02000000 		.4byte	.LCFI13
 3050 03e9 14000000 		.4byte	.LFE33
 3051 03ed 0200     		.2byte	0x2
ARM GAS  C:\Users\asha\AppData\Local\Temp\ccSrRbz4.s 			page 83


 3052 03ef 7D       		.byte	0x7d
 3053 03f0 04       		.sleb128 4
 3054 03f1 00000000 		.4byte	0x0
 3055 03f5 00000000 		.4byte	0x0
 3056              	.LLST51:
 3057 03f9 02000000 		.4byte	.LVL56
 3058 03fd 10000000 		.4byte	.LVL57
 3059 0401 0100     		.2byte	0x1
 3060 0403 50       		.byte	0x50
 3061 0404 00000000 		.4byte	0x0
 3062 0408 00000000 		.4byte	0x0
 3063              	.LLST52:
 3064 040c 00000000 		.4byte	.LFB34
 3065 0410 02000000 		.4byte	.LCFI14
 3066 0414 0100     		.2byte	0x1
 3067 0416 5D       		.byte	0x5d
 3068 0417 02000000 		.4byte	.LCFI14
 3069 041b 18000000 		.4byte	.LFE34
 3070 041f 0200     		.2byte	0x2
 3071 0421 7D       		.byte	0x7d
 3072 0422 04       		.sleb128 4
 3073 0423 00000000 		.4byte	0x0
 3074 0427 00000000 		.4byte	0x0
 3075              	.LLST53:
 3076 042b 02000000 		.4byte	.LVL58
 3077 042f 0C000000 		.4byte	.LVL59
 3078 0433 0100     		.2byte	0x1
 3079 0435 50       		.byte	0x50
 3080 0436 00000000 		.4byte	0x0
 3081 043a 00000000 		.4byte	0x0
 3082              	.LLST54:
 3083 043e 10000000 		.4byte	.LVL60
 3084 0442 12000000 		.4byte	.LVL61
 3085 0446 0100     		.2byte	0x1
 3086 0448 50       		.byte	0x50
 3087 0449 00000000 		.4byte	0x0
 3088 044d 00000000 		.4byte	0x0
 3089              	.LLST55:
 3090 0451 00000000 		.4byte	.LFB35
 3091 0455 02000000 		.4byte	.LCFI15
 3092 0459 0100     		.2byte	0x1
 3093 045b 5D       		.byte	0x5d
 3094 045c 02000000 		.4byte	.LCFI15
 3095 0460 18000000 		.4byte	.LFE35
 3096 0464 0200     		.2byte	0x2
 3097 0466 7D       		.byte	0x7d
 3098 0467 04       		.sleb128 4
 3099 0468 00000000 		.4byte	0x0
 3100 046c 00000000 		.4byte	0x0
 3101              	.LLST56:
 3102 0470 02000000 		.4byte	.LVL62
 3103 0474 0E000000 		.4byte	.LVL63
 3104 0478 0100     		.2byte	0x1
 3105 047a 50       		.byte	0x50
 3106 047b 00000000 		.4byte	0x0
 3107 047f 00000000 		.4byte	0x0
 3108              	.LLST57:
ARM GAS  C:\Users\asha\AppData\Local\Temp\ccSrRbz4.s 			page 84


 3109 0483 00000000 		.4byte	.LFB37
 3110 0487 02000000 		.4byte	.LCFI16
 3111 048b 0100     		.2byte	0x1
 3112 048d 5D       		.byte	0x5d
 3113 048e 02000000 		.4byte	.LCFI16
 3114 0492 28000000 		.4byte	.LFE37
 3115 0496 0200     		.2byte	0x2
 3116 0498 7D       		.byte	0x7d
 3117 0499 04       		.sleb128 4
 3118 049a 00000000 		.4byte	0x0
 3119 049e 00000000 		.4byte	0x0
 3120              	.LLST58:
 3121 04a2 02000000 		.4byte	.LVL64
 3122 04a6 14000000 		.4byte	.LVL65
 3123 04aa 0100     		.2byte	0x1
 3124 04ac 50       		.byte	0x50
 3125 04ad 00000000 		.4byte	0x0
 3126 04b1 00000000 		.4byte	0x0
 3127              	.LLST60:
 3128 04b5 00000000 		.4byte	.LVL66
 3129 04b9 04000000 		.4byte	.LVL67
 3130 04bd 0100     		.2byte	0x1
 3131 04bf 50       		.byte	0x50
 3132 04c0 00000000 		.4byte	0x0
 3133 04c4 00000000 		.4byte	0x0
 3134              	.LLST62:
 3135 04c8 00000000 		.4byte	.LVL68
 3136 04cc 08000000 		.4byte	.LVL69
 3137 04d0 0100     		.2byte	0x1
 3138 04d2 50       		.byte	0x50
 3139 04d3 00000000 		.4byte	0x0
 3140 04d7 00000000 		.4byte	0x0
 3141              	.LLST64:
 3142 04db 00000000 		.4byte	.LVL70
 3143 04df 04000000 		.4byte	.LVL71
 3144 04e3 0100     		.2byte	0x1
 3145 04e5 50       		.byte	0x50
 3146 04e6 00000000 		.4byte	0x0
 3147 04ea 00000000 		.4byte	0x0
 3148              	.LLST66:
 3149 04ee 00000000 		.4byte	.LVL72
 3150 04f2 04000000 		.4byte	.LVL73
 3151 04f6 0100     		.2byte	0x1
 3152 04f8 50       		.byte	0x50
 3153 04f9 00000000 		.4byte	0x0
 3154 04fd 00000000 		.4byte	0x0
 3155              	.LLST68:
 3156 0501 00000000 		.4byte	.LVL74
 3157 0505 04000000 		.4byte	.LVL75
 3158 0509 0100     		.2byte	0x1
 3159 050b 50       		.byte	0x50
 3160 050c 00000000 		.4byte	0x0
 3161 0510 00000000 		.4byte	0x0
 3162              	.LLST71:
 3163 0514 00000000 		.4byte	.LFB47
 3164 0518 02000000 		.4byte	.LCFI17
 3165 051c 0100     		.2byte	0x1
ARM GAS  C:\Users\asha\AppData\Local\Temp\ccSrRbz4.s 			page 85


 3166 051e 5D       		.byte	0x5d
 3167 051f 02000000 		.4byte	.LCFI17
 3168 0523 58000000 		.4byte	.LFE47
 3169 0527 0200     		.2byte	0x2
 3170 0529 7D       		.byte	0x7d
 3171 052a 10       		.sleb128 16
 3172 052b 00000000 		.4byte	0x0
 3173 052f 00000000 		.4byte	0x0
 3174              	.LLST72:
 3175 0533 02000000 		.4byte	.LVL77
 3176 0537 0C000000 		.4byte	.LVL78
 3177 053b 0100     		.2byte	0x1
 3178 053d 50       		.byte	0x50
 3179 053e 0C000000 		.4byte	.LVL78
 3180 0542 1A000000 		.4byte	.LVL79
 3181 0546 0100     		.2byte	0x1
 3182 0548 55       		.byte	0x55
 3183 0549 1C000000 		.4byte	.LVL80
 3184 054d 24000000 		.4byte	.LVL81
 3185 0551 0100     		.2byte	0x1
 3186 0553 50       		.byte	0x50
 3187 0554 24000000 		.4byte	.LVL81
 3188 0558 58000000 		.4byte	.LFE47
 3189 055c 0100     		.2byte	0x1
 3190 055e 55       		.byte	0x55
 3191 055f 00000000 		.4byte	0x0
 3192 0563 00000000 		.4byte	0x0
 3193              	.LLST73:
 3194 0567 00000000 		.4byte	.LFB46
 3195 056b 02000000 		.4byte	.LCFI18
 3196 056f 0100     		.2byte	0x1
 3197 0571 5D       		.byte	0x5d
 3198 0572 02000000 		.4byte	.LCFI18
 3199 0576 14000000 		.4byte	.LFE46
 3200 057a 0200     		.2byte	0x2
 3201 057c 7D       		.byte	0x7d
 3202 057d 08       		.sleb128 8
 3203 057e 00000000 		.4byte	0x0
 3204 0582 00000000 		.4byte	0x0
 3205              	.LLST74:
 3206 0586 02000000 		.4byte	.LVL82
 3207 058a 08000000 		.4byte	.LVL83
 3208 058e 0100     		.2byte	0x1
 3209 0590 50       		.byte	0x50
 3210 0591 00000000 		.4byte	0x0
 3211 0595 00000000 		.4byte	0x0
 3212              	.LLST75:
 3213 0599 00000000 		.4byte	.LFB18
 3214 059d 02000000 		.4byte	.LCFI19
 3215 05a1 0100     		.2byte	0x1
 3216 05a3 5D       		.byte	0x5d
 3217 05a4 02000000 		.4byte	.LCFI19
 3218 05a8 48000000 		.4byte	.LFE18
 3219 05ac 0200     		.2byte	0x2
 3220 05ae 7D       		.byte	0x7d
 3221 05af 10       		.sleb128 16
 3222 05b0 00000000 		.4byte	0x0
ARM GAS  C:\Users\asha\AppData\Local\Temp\ccSrRbz4.s 			page 86


 3223 05b4 00000000 		.4byte	0x0
 3224              	.LLST76:
 3225 05b8 02000000 		.4byte	.LVL84
 3226 05bc 1A000000 		.4byte	.LVL86
 3227 05c0 0100     		.2byte	0x1
 3228 05c2 50       		.byte	0x50
 3229 05c3 1A000000 		.4byte	.LVL86
 3230 05c7 34000000 		.4byte	.LVL91
 3231 05cb 0100     		.2byte	0x1
 3232 05cd 54       		.byte	0x54
 3233 05ce 00000000 		.4byte	0x0
 3234 05d2 00000000 		.4byte	0x0
 3235              	.LLST77:
 3236 05d6 02000000 		.4byte	.LVL84
 3237 05da 0A000000 		.4byte	.LVL85
 3238 05de 0100     		.2byte	0x1
 3239 05e0 51       		.byte	0x51
 3240 05e1 0A000000 		.4byte	.LVL85
 3241 05e5 32000000 		.4byte	.LVL90
 3242 05e9 0100     		.2byte	0x1
 3243 05eb 55       		.byte	0x55
 3244 05ec 00000000 		.4byte	0x0
 3245 05f0 00000000 		.4byte	0x0
 3246              	.LLST78:
 3247 05f4 2C000000 		.4byte	.LVL88
 3248 05f8 30000000 		.4byte	.LVL89
 3249 05fc 0100     		.2byte	0x1
 3250 05fe 50       		.byte	0x50
 3251 05ff 00000000 		.4byte	0x0
 3252 0603 00000000 		.4byte	0x0
 3253              	.LLST79:
 3254 0607 00000000 		.4byte	.LFB45
 3255 060b 02000000 		.4byte	.LCFI20
 3256 060f 0100     		.2byte	0x1
 3257 0611 5D       		.byte	0x5d
 3258 0612 02000000 		.4byte	.LCFI20
 3259 0616 06000000 		.4byte	.LCFI21
 3260 061a 0200     		.2byte	0x2
 3261 061c 7D       		.byte	0x7d
 3262 061d 14       		.sleb128 20
 3263 061e 06000000 		.4byte	.LCFI21
 3264 0622 80000000 		.4byte	.LFE45
 3265 0626 0200     		.2byte	0x2
 3266 0628 7D       		.byte	0x7d
 3267 0629 18       		.sleb128 24
 3268 062a 00000000 		.4byte	0x0
 3269 062e 00000000 		.4byte	0x0
 3270              	.LLST80:
 3271 0632 06000000 		.4byte	.LVL92
 3272 0636 18000000 		.4byte	.LVL93
 3273 063a 0100     		.2byte	0x1
 3274 063c 50       		.byte	0x50
 3275 063d 18000000 		.4byte	.LVL93
 3276 0641 26000000 		.4byte	.LVL94
 3277 0645 0100     		.2byte	0x1
 3278 0647 56       		.byte	0x56
 3279 0648 26000000 		.4byte	.LVL94
ARM GAS  C:\Users\asha\AppData\Local\Temp\ccSrRbz4.s 			page 87


 3280 064c 5C000000 		.4byte	.LVL95
 3281 0650 0100     		.2byte	0x1
 3282 0652 54       		.byte	0x54
 3283 0653 5C000000 		.4byte	.LVL95
 3284 0657 5E000000 		.4byte	.LVL96
 3285 065b 0100     		.2byte	0x1
 3286 065d 56       		.byte	0x56
 3287 065e 60000000 		.4byte	.LVL97
 3288 0662 68000000 		.4byte	.LVL98
 3289 0666 0100     		.2byte	0x1
 3290 0668 56       		.byte	0x56
 3291 0669 00000000 		.4byte	0x0
 3292 066d 00000000 		.4byte	0x0
 3293              	.LLST81:
 3294 0671 00000000 		.4byte	.LFB36
 3295 0675 02000000 		.4byte	.LCFI22
 3296 0679 0100     		.2byte	0x1
 3297 067b 5D       		.byte	0x5d
 3298 067c 02000000 		.4byte	.LCFI22
 3299 0680 40000000 		.4byte	.LFE36
 3300 0684 0200     		.2byte	0x2
 3301 0686 7D       		.byte	0x7d
 3302 0687 10       		.sleb128 16
 3303 0688 00000000 		.4byte	0x0
 3304 068c 00000000 		.4byte	0x0
 3305              	.LLST82:
 3306 0690 02000000 		.4byte	.LVL99
 3307 0694 0A000000 		.4byte	.LVL100
 3308 0698 0100     		.2byte	0x1
 3309 069a 50       		.byte	0x50
 3310 069b 0A000000 		.4byte	.LVL100
 3311 069f 20000000 		.4byte	.LVL102
 3312 06a3 0100     		.2byte	0x1
 3313 06a5 54       		.byte	0x54
 3314 06a6 00000000 		.4byte	0x0
 3315 06aa 00000000 		.4byte	0x0
 3316              	.LLST83:
 3317 06ae 02000000 		.4byte	.LVL99
 3318 06b2 16000000 		.4byte	.LVL101
 3319 06b6 0100     		.2byte	0x1
 3320 06b8 51       		.byte	0x51
 3321 06b9 16000000 		.4byte	.LVL101
 3322 06bd 2E000000 		.4byte	.LVL104
 3323 06c1 0100     		.2byte	0x1
 3324 06c3 55       		.byte	0x55
 3325 06c4 00000000 		.4byte	0x0
 3326 06c8 00000000 		.4byte	0x0
 3327              	.LLST84:
 3328 06cc 26000000 		.4byte	.LVL103
 3329 06d0 32000000 		.4byte	.LVL105
 3330 06d4 0100     		.2byte	0x1
 3331 06d6 51       		.byte	0x51
 3332 06d7 32000000 		.4byte	.LVL105
 3333 06db 38000000 		.4byte	.LVL106
 3334 06df 0100     		.2byte	0x1
 3335 06e1 54       		.byte	0x54
 3336 06e2 00000000 		.4byte	0x0
ARM GAS  C:\Users\asha\AppData\Local\Temp\ccSrRbz4.s 			page 88


 3337 06e6 00000000 		.4byte	0x0
 3338              	.LLST85:
 3339 06ea 00000000 		.4byte	.LFB24
 3340 06ee 02000000 		.4byte	.LCFI23
 3341 06f2 0100     		.2byte	0x1
 3342 06f4 5D       		.byte	0x5d
 3343 06f5 02000000 		.4byte	.LCFI23
 3344 06f9 7C000000 		.4byte	.LFE24
 3345 06fd 0200     		.2byte	0x2
 3346 06ff 7D       		.byte	0x7d
 3347 0700 10       		.sleb128 16
 3348 0701 00000000 		.4byte	0x0
 3349 0705 00000000 		.4byte	0x0
 3350              	.LLST86:
 3351 0709 02000000 		.4byte	.LVL107
 3352 070d 08000000 		.4byte	.LVL108
 3353 0711 0100     		.2byte	0x1
 3354 0713 50       		.byte	0x50
 3355 0714 08000000 		.4byte	.LVL108
 3356 0718 30000000 		.4byte	.LVL109
 3357 071c 0100     		.2byte	0x1
 3358 071e 54       		.byte	0x54
 3359 071f 3A000000 		.4byte	.LVL110
 3360 0723 5C000000 		.4byte	.LVL111
 3361 0727 0100     		.2byte	0x1
 3362 0729 54       		.byte	0x54
 3363 072a 00000000 		.4byte	0x0
 3364 072e 00000000 		.4byte	0x0
 3365              	.LLST87:
 3366 0732 00000000 		.4byte	.LFB8
 3367 0736 02000000 		.4byte	.LCFI24
 3368 073a 0100     		.2byte	0x1
 3369 073c 5D       		.byte	0x5d
 3370 073d 02000000 		.4byte	.LCFI24
 3371 0741 48000000 		.4byte	.LFE8
 3372 0745 0200     		.2byte	0x2
 3373 0747 7D       		.byte	0x7d
 3374 0748 08       		.sleb128 8
 3375 0749 00000000 		.4byte	0x0
 3376 074d 00000000 		.4byte	0x0
 3377              	.LLST88:
 3378 0751 00000000 		.4byte	.LFB7
 3379 0755 02000000 		.4byte	.LCFI25
 3380 0759 0100     		.2byte	0x1
 3381 075b 5D       		.byte	0x5d
 3382 075c 02000000 		.4byte	.LCFI25
 3383 0760 34000000 		.4byte	.LFE7
 3384 0764 0200     		.2byte	0x2
 3385 0766 7D       		.byte	0x7d
 3386 0767 08       		.sleb128 8
 3387 0768 00000000 		.4byte	0x0
 3388 076c 00000000 		.4byte	0x0
 3389              	.LLST89:
 3390 0770 00000000 		.4byte	.LFB6
 3391 0774 02000000 		.4byte	.LCFI26
 3392 0778 0100     		.2byte	0x1
 3393 077a 5D       		.byte	0x5d
ARM GAS  C:\Users\asha\AppData\Local\Temp\ccSrRbz4.s 			page 89


 3394 077b 02000000 		.4byte	.LCFI26
 3395 077f 0A000000 		.4byte	.LCFI27
 3396 0783 0200     		.2byte	0x2
 3397 0785 7D       		.byte	0x7d
 3398 0786 14       		.sleb128 20
 3399 0787 0A000000 		.4byte	.LCFI27
 3400 078b 78010000 		.4byte	.LFE6
 3401 078f 0200     		.2byte	0x2
 3402 0791 7D       		.byte	0x7d
 3403 0792 20       		.sleb128 32
 3404 0793 00000000 		.4byte	0x0
 3405 0797 00000000 		.4byte	0x0
 3406              	.LLST90:
 3407 079b 0A000000 		.4byte	.LVL112
 3408 079f 12000000 		.4byte	.LVL113
 3409 07a3 0100     		.2byte	0x1
 3410 07a5 50       		.byte	0x50
 3411 07a6 12000000 		.4byte	.LVL113
 3412 07aa 14000000 		.4byte	.LVL115
 3413 07ae 0100     		.2byte	0x1
 3414 07b0 55       		.byte	0x55
 3415 07b1 14000000 		.4byte	.LVL115
 3416 07b5 1E000000 		.4byte	.LVL118
 3417 07b9 0100     		.2byte	0x1
 3418 07bb 50       		.byte	0x50
 3419 07bc 1E000000 		.4byte	.LVL118
 3420 07c0 9E000000 		.4byte	.LVL126
 3421 07c4 0100     		.2byte	0x1
 3422 07c6 55       		.byte	0x55
 3423 07c7 B0000000 		.4byte	.LVL127
 3424 07cb C6000000 		.4byte	.LVL129
 3425 07cf 0100     		.2byte	0x1
 3426 07d1 55       		.byte	0x55
 3427 07d2 DE000000 		.4byte	.LVL130
 3428 07d6 78010000 		.4byte	.LFE6
 3429 07da 0100     		.2byte	0x1
 3430 07dc 55       		.byte	0x55
 3431 07dd 00000000 		.4byte	0x0
 3432 07e1 00000000 		.4byte	0x0
 3433              	.LLST91:
 3434 07e5 14000000 		.4byte	.LVL114
 3435 07e9 14000000 		.4byte	.LVL116
 3436 07ed 0100     		.2byte	0x1
 3437 07ef 58       		.byte	0x58
 3438 07f0 68000000 		.4byte	.LVL121
 3439 07f4 DE000000 		.4byte	.LVL130
 3440 07f8 0100     		.2byte	0x1
 3441 07fa 58       		.byte	0x58
 3442 07fb EE000000 		.4byte	.LVL131
 3443 07ff F4000000 		.4byte	.LVL133
 3444 0803 0100     		.2byte	0x1
 3445 0805 58       		.byte	0x58
 3446 0806 12010000 		.4byte	.LVL135
 3447 080a 18010000 		.4byte	.LVL137
 3448 080e 0100     		.2byte	0x1
 3449 0810 58       		.byte	0x58
 3450 0811 20010000 		.4byte	.LVL138
ARM GAS  C:\Users\asha\AppData\Local\Temp\ccSrRbz4.s 			page 90


 3451 0815 26010000 		.4byte	.LVL140
 3452 0819 0100     		.2byte	0x1
 3453 081b 58       		.byte	0x58
 3454 081c 2E010000 		.4byte	.LVL141
 3455 0820 78010000 		.4byte	.LFE6
 3456 0824 0100     		.2byte	0x1
 3457 0826 58       		.byte	0x58
 3458 0827 00000000 		.4byte	0x0
 3459 082b 00000000 		.4byte	0x0
 3460              	.LLST92:
 3461 082f 14000000 		.4byte	.LVL114
 3462 0833 14000000 		.4byte	.LVL117
 3463 0837 0100     		.2byte	0x1
 3464 0839 5A       		.byte	0x5a
 3465 083a 6C000000 		.4byte	.LVL122
 3466 083e DE000000 		.4byte	.LVL130
 3467 0842 0100     		.2byte	0x1
 3468 0844 5A       		.byte	0x5a
 3469 0845 F2000000 		.4byte	.LVL132
 3470 0849 F4000000 		.4byte	.LVL133
 3471 084d 0100     		.2byte	0x1
 3472 084f 5A       		.byte	0x5a
 3473 0850 16010000 		.4byte	.LVL136
 3474 0854 18010000 		.4byte	.LVL137
 3475 0858 0100     		.2byte	0x1
 3476 085a 5A       		.byte	0x5a
 3477 085b 24010000 		.4byte	.LVL139
 3478 085f 26010000 		.4byte	.LVL140
 3479 0863 0100     		.2byte	0x1
 3480 0865 5A       		.byte	0x5a
 3481 0866 32010000 		.4byte	.LVL142
 3482 086a 78010000 		.4byte	.LFE6
 3483 086e 0100     		.2byte	0x1
 3484 0870 5A       		.byte	0x5a
 3485 0871 00000000 		.4byte	0x0
 3486 0875 00000000 		.4byte	0x0
 3487              	.LLST93:
 3488 0879 50000000 		.4byte	.LVL120
 3489 087d 76000000 		.4byte	.LVL123
 3490 0881 0100     		.2byte	0x1
 3491 0883 53       		.byte	0x53
 3492 0884 80000000 		.4byte	.LVL124
 3493 0888 86000000 		.4byte	.LVL125
 3494 088c 0100     		.2byte	0x1
 3495 088e 53       		.byte	0x53
 3496 088f B0000000 		.4byte	.LVL127
 3497 0893 B8000000 		.4byte	.LVL128
 3498 0897 0100     		.2byte	0x1
 3499 0899 53       		.byte	0x53
 3500 089a DE000000 		.4byte	.LVL130
 3501 089e F4000000 		.4byte	.LVL133
 3502 08a2 0100     		.2byte	0x1
 3503 08a4 53       		.byte	0x53
 3504 08a5 F8000000 		.4byte	.LVL134
 3505 08a9 78010000 		.4byte	.LFE6
 3506 08ad 0100     		.2byte	0x1
 3507 08af 53       		.byte	0x53
ARM GAS  C:\Users\asha\AppData\Local\Temp\ccSrRbz4.s 			page 91


 3508 08b0 00000000 		.4byte	0x0
 3509 08b4 00000000 		.4byte	0x0
 3510              	.LLST94:
 3511 08b8 24000000 		.4byte	.LVL119
 3512 08bc 50000000 		.4byte	.LVL120
 3513 08c0 0100     		.2byte	0x1
 3514 08c2 53       		.byte	0x53
 3515 08c3 F4000000 		.4byte	.LVL133
 3516 08c7 F8000000 		.4byte	.LVL134
 3517 08cb 0100     		.2byte	0x1
 3518 08cd 53       		.byte	0x53
 3519 08ce 00000000 		.4byte	0x0
 3520 08d2 00000000 		.4byte	0x0
 3521              		.file 2 ".\\Generated_Source\\PSoC4\\/cytypes.h"
 3522              		.section	.debug_info
 3523 0000 DF0C0000 		.4byte	0xcdf
 3524 0004 0200     		.2byte	0x2
 3525 0006 00000000 		.4byte	.Ldebug_abbrev0
 3526 000a 04       		.byte	0x4
 3527 000b 01       		.uleb128 0x1
 3528 000c F4000000 		.4byte	.LASF98
 3529 0010 01       		.byte	0x1
 3530 0011 08030000 		.4byte	.LASF99
 3531 0015 85000000 		.4byte	.LASF100
 3532 0019 00000000 		.4byte	0x0
 3533 001d 00000000 		.4byte	0x0
 3534 0021 18000000 		.4byte	.Ldebug_ranges0+0x18
 3535 0025 00000000 		.4byte	.Ldebug_line0
 3536 0029 02       		.uleb128 0x2
 3537 002a 01       		.byte	0x1
 3538 002b 06       		.byte	0x6
 3539 002c 2C010000 		.4byte	.LASF0
 3540 0030 02       		.uleb128 0x2
 3541 0031 01       		.byte	0x1
 3542 0032 08       		.byte	0x8
 3543 0033 7C040000 		.4byte	.LASF1
 3544 0037 02       		.uleb128 0x2
 3545 0038 02       		.byte	0x2
 3546 0039 05       		.byte	0x5
 3547 003a 8A040000 		.4byte	.LASF2
 3548 003e 02       		.uleb128 0x2
 3549 003f 02       		.byte	0x2
 3550 0040 07       		.byte	0x7
 3551 0041 E6020000 		.4byte	.LASF3
 3552 0045 02       		.uleb128 0x2
 3553 0046 04       		.byte	0x4
 3554 0047 05       		.byte	0x5
 3555 0048 98010000 		.4byte	.LASF4
 3556 004c 02       		.uleb128 0x2
 3557 004d 04       		.byte	0x4
 3558 004e 07       		.byte	0x7
 3559 004f 99020000 		.4byte	.LASF5
 3560 0053 02       		.uleb128 0x2
 3561 0054 08       		.byte	0x8
 3562 0055 05       		.byte	0x5
 3563 0056 1E010000 		.4byte	.LASF6
 3564 005a 02       		.uleb128 0x2
ARM GAS  C:\Users\asha\AppData\Local\Temp\ccSrRbz4.s 			page 92


 3565 005b 08       		.byte	0x8
 3566 005c 07       		.byte	0x7
 3567 005d DD000000 		.4byte	.LASF7
 3568 0061 03       		.uleb128 0x3
 3569 0062 04       		.byte	0x4
 3570 0063 05       		.byte	0x5
 3571 0064 696E7400 		.ascii	"int\000"
 3572 0068 02       		.uleb128 0x2
 3573 0069 04       		.byte	0x4
 3574 006a 07       		.byte	0x7
 3575 006b 8C020000 		.4byte	.LASF8
 3576 006f 04       		.uleb128 0x4
 3577 0070 AE010000 		.4byte	.LASF9
 3578 0074 02       		.byte	0x2
 3579 0075 4C       		.byte	0x4c
 3580 0076 30000000 		.4byte	0x30
 3581 007a 04       		.uleb128 0x4
 3582 007b 1A000000 		.4byte	.LASF10
 3583 007f 02       		.byte	0x2
 3584 0080 4D       		.byte	0x4d
 3585 0081 3E000000 		.4byte	0x3e
 3586 0085 04       		.uleb128 0x4
 3587 0086 20020000 		.4byte	.LASF11
 3588 008a 02       		.byte	0x2
 3589 008b 4E       		.byte	0x4e
 3590 008c 4C000000 		.4byte	0x4c
 3591 0090 02       		.uleb128 0x2
 3592 0091 04       		.byte	0x4
 3593 0092 04       		.byte	0x4
 3594 0093 33040000 		.4byte	.LASF12
 3595 0097 02       		.uleb128 0x2
 3596 0098 08       		.byte	0x8
 3597 0099 04       		.byte	0x4
 3598 009a CA010000 		.4byte	.LASF13
 3599 009e 02       		.uleb128 0x2
 3600 009f 01       		.byte	0x1
 3601 00a0 08       		.byte	0x8
 3602 00a1 23050000 		.4byte	.LASF14
 3603 00a5 04       		.uleb128 0x4
 3604 00a6 36050000 		.4byte	.LASF15
 3605 00aa 02       		.byte	0x2
 3606 00ab EB       		.byte	0xeb
 3607 00ac B0000000 		.4byte	0xb0
 3608 00b0 05       		.uleb128 0x5
 3609 00b1 04       		.byte	0x4
 3610 00b2 B6000000 		.4byte	0xb6
 3611 00b6 06       		.uleb128 0x6
 3612 00b7 01       		.byte	0x1
 3613 00b8 07       		.uleb128 0x7
 3614 00b9 04       		.byte	0x4
 3615 00ba 07       		.byte	0x7
 3616 00bb 08       		.uleb128 0x8
 3617 00bc 01       		.byte	0x1
 3618 00bd 29030000 		.4byte	.LASF101
 3619 00c1 01       		.byte	0x1
 3620 00c2 54       		.byte	0x54
 3621 00c3 01       		.byte	0x1
ARM GAS  C:\Users\asha\AppData\Local\Temp\ccSrRbz4.s 			page 93


 3622 00c4 01       		.byte	0x1
 3623 00c5 09       		.uleb128 0x9
 3624 00c6 01       		.byte	0x1
 3625 00c7 75040000 		.4byte	.LASF102
 3626 00cb 01       		.byte	0x1
 3627 00cc DE05     		.2byte	0x5de
 3628 00ce 01       		.byte	0x1
 3629 00cf 01       		.byte	0x1
 3630 00d0 E1000000 		.4byte	0xe1
 3631 00d4 0A       		.uleb128 0xa
 3632 00d5 0D050000 		.4byte	.LASF16
 3633 00d9 01       		.byte	0x1
 3634 00da DE05     		.2byte	0x5de
 3635 00dc 6F000000 		.4byte	0x6f
 3636 00e0 00       		.byte	0x0
 3637 00e1 0B       		.uleb128 0xb
 3638 00e2 01       		.byte	0x1
 3639 00e3 D3050000 		.4byte	.LASF103
 3640 00e7 01       		.byte	0x1
 3641 00e8 B601     		.2byte	0x1b6
 3642 00ea 01       		.byte	0x1
 3643 00eb 85000000 		.4byte	0x85
 3644 00ef 01       		.byte	0x1
 3645 00f0 08010000 		.4byte	0x108
 3646 00f4 0A       		.uleb128 0xa
 3647 00f5 5F000000 		.4byte	.LASF17
 3648 00f9 01       		.byte	0x1
 3649 00fa B601     		.2byte	0x1b6
 3650 00fc 85000000 		.4byte	0x85
 3651 0100 0C       		.uleb128 0xc
 3652 0101 0D       		.uleb128 0xd
 3653 0102 D4000000 		.4byte	0xd4
 3654 0106 00       		.byte	0x0
 3655 0107 00       		.byte	0x0
 3656 0108 0E       		.uleb128 0xe
 3657 0109 01       		.byte	0x1
 3658 010a C2050000 		.4byte	.LASF18
 3659 010e 01       		.byte	0x1
 3660 010f 2C       		.byte	0x2c
 3661 0110 01       		.byte	0x1
 3662 0111 00000000 		.4byte	.LFB0
 3663 0115 14000000 		.4byte	.LFE0
 3664 0119 01       		.byte	0x1
 3665 011a 5D       		.byte	0x5d
 3666 011b 0E       		.uleb128 0xe
 3667 011c 01       		.byte	0x1
 3668 011d C6020000 		.4byte	.LASF19
 3669 0121 01       		.byte	0x1
 3670 0122 40       		.byte	0x40
 3671 0123 01       		.byte	0x1
 3672 0124 00000000 		.4byte	.LFB1
 3673 0128 14000000 		.4byte	.LFE1
 3674 012c 01       		.byte	0x1
 3675 012d 5D       		.byte	0x5d
 3676 012e 0F       		.uleb128 0xf
 3677 012f BB000000 		.4byte	0xbb
 3678 0133 00000000 		.4byte	.LFB2
ARM GAS  C:\Users\asha\AppData\Local\Temp\ccSrRbz4.s 			page 94


 3679 0137 14000000 		.4byte	.LFE2
 3680 013b 01       		.byte	0x1
 3681 013c 5D       		.byte	0x5d
 3682 013d 0E       		.uleb128 0xe
 3683 013e 01       		.byte	0x1
 3684 013f D1010000 		.4byte	.LASF20
 3685 0143 01       		.byte	0x1
 3686 0144 6D       		.byte	0x6d
 3687 0145 01       		.byte	0x1
 3688 0146 00000000 		.4byte	.LFB3
 3689 014a 14000000 		.4byte	.LFE3
 3690 014e 01       		.byte	0x1
 3691 014f 5D       		.byte	0x5d
 3692 0150 10       		.uleb128 0x10
 3693 0151 01       		.byte	0x1
 3694 0152 30000000 		.4byte	.LASF21
 3695 0156 01       		.byte	0x1
 3696 0157 8F       		.byte	0x8f
 3697 0158 01       		.byte	0x1
 3698 0159 00000000 		.4byte	.LFB4
 3699 015d 18000000 		.4byte	.LFE4
 3700 0161 01       		.byte	0x1
 3701 0162 5D       		.byte	0x5d
 3702 0163 77010000 		.4byte	0x177
 3703 0167 11       		.uleb128 0x11
 3704 0168 E8040000 		.4byte	.LASF23
 3705 016c 01       		.byte	0x1
 3706 016d 8F       		.byte	0x8f
 3707 016e 85000000 		.4byte	0x85
 3708 0172 00000000 		.4byte	.LLST5
 3709 0176 00       		.byte	0x0
 3710 0177 12       		.uleb128 0x12
 3711 0178 01       		.byte	0x1
 3712 0179 5C050000 		.4byte	.LASF22
 3713 017d 01       		.byte	0x1
 3714 017e B6       		.byte	0xb6
 3715 017f 01       		.byte	0x1
 3716 0180 00000000 		.4byte	.LFB5
 3717 0184 20000000 		.4byte	.LFE5
 3718 0188 13000000 		.4byte	.LLST6
 3719 018c A0010000 		.4byte	0x1a0
 3720 0190 11       		.uleb128 0x11
 3721 0191 BA050000 		.4byte	.LASF24
 3722 0195 01       		.byte	0x1
 3723 0196 B6       		.byte	0xb6
 3724 0197 85000000 		.4byte	0x85
 3725 019b 32000000 		.4byte	.LLST7
 3726 019f 00       		.byte	0x0
 3727 01a0 13       		.uleb128 0x13
 3728 01a1 E1000000 		.4byte	0xe1
 3729 01a5 00000000 		.4byte	.LFB9
 3730 01a9 20000000 		.4byte	.LFE9
 3731 01ad 45000000 		.4byte	.LLST8
 3732 01b1 D5010000 		.4byte	0x1d5
 3733 01b5 14       		.uleb128 0x14
 3734 01b6 F4000000 		.4byte	0xf4
 3735 01ba 64000000 		.4byte	.LLST9
ARM GAS  C:\Users\asha\AppData\Local\Temp\ccSrRbz4.s 			page 95


 3736 01be 15       		.uleb128 0x15
 3737 01bf C5000000 		.4byte	0xc5
 3738 01c3 06000000 		.4byte	.LBB78
 3739 01c7 08000000 		.4byte	.LBE78
 3740 01cb 01       		.byte	0x1
 3741 01cc B801     		.2byte	0x1b8
 3742 01ce 0D       		.uleb128 0xd
 3743 01cf D4000000 		.4byte	0xd4
 3744 01d3 00       		.byte	0x0
 3745 01d4 00       		.byte	0x0
 3746 01d5 16       		.uleb128 0x16
 3747 01d6 01       		.byte	0x1
 3748 01d7 00000000 		.4byte	.LASF25
 3749 01db 01       		.byte	0x1
 3750 01dc DA01     		.2byte	0x1da
 3751 01de 01       		.byte	0x1
 3752 01df 00000000 		.4byte	.LFB10
 3753 01e3 54000000 		.4byte	.LFE10
 3754 01e7 77000000 		.4byte	.LLST10
 3755 01eb 74020000 		.4byte	0x274
 3756 01ef 17       		.uleb128 0x17
 3757 01f0 5F000000 		.4byte	.LASF17
 3758 01f4 01       		.byte	0x1
 3759 01f5 DA01     		.2byte	0x1da
 3760 01f7 85000000 		.4byte	0x85
 3761 01fb 96000000 		.4byte	.LLST11
 3762 01ff 18       		.uleb128 0x18
 3763 0200 31050000 		.4byte	.LASF26
 3764 0204 01       		.byte	0x1
 3765 0205 DA01     		.2byte	0x1da
 3766 0207 85000000 		.4byte	0x85
 3767 020b 01       		.byte	0x1
 3768 020c 51       		.byte	0x51
 3769 020d 19       		.uleb128 0x19
 3770 020e 8B050000 		.4byte	.LASF36
 3771 0212 01       		.byte	0x1
 3772 0213 DC01     		.2byte	0x1dc
 3773 0215 85000000 		.4byte	0x85
 3774 0219 A9000000 		.4byte	.LLST12
 3775 021d 1A       		.uleb128 0x1a
 3776 021e C5000000 		.4byte	0xc5
 3777 0222 06000000 		.4byte	.LBB80
 3778 0226 08000000 		.4byte	.LBE80
 3779 022a 01       		.byte	0x1
 3780 022b DE01     		.2byte	0x1de
 3781 022d 37020000 		.4byte	0x237
 3782 0231 0D       		.uleb128 0xd
 3783 0232 D4000000 		.4byte	0xd4
 3784 0236 00       		.byte	0x0
 3785 0237 1B       		.uleb128 0x1b
 3786 0238 BB000000 		.4byte	0xbb
 3787 023c 10000000 		.4byte	.LBB82
 3788 0240 1A000000 		.4byte	.LBE82
 3789 0244 01       		.byte	0x1
 3790 0245 E501     		.2byte	0x1e5
 3791 0247 15       		.uleb128 0x15
 3792 0248 E1000000 		.4byte	0xe1
ARM GAS  C:\Users\asha\AppData\Local\Temp\ccSrRbz4.s 			page 96


 3793 024c 1A000000 		.4byte	.LBB84
 3794 0250 26000000 		.4byte	.LBE84
 3795 0254 01       		.byte	0x1
 3796 0255 E801     		.2byte	0x1e8
 3797 0257 0D       		.uleb128 0xd
 3798 0258 B5010000 		.4byte	0x1b5
 3799 025c 15       		.uleb128 0x15
 3800 025d C5000000 		.4byte	0xc5
 3801 0261 1E000000 		.4byte	.LBB86
 3802 0265 20000000 		.4byte	.LBE86
 3803 0269 01       		.byte	0x1
 3804 026a B801     		.2byte	0x1b8
 3805 026c 0D       		.uleb128 0xd
 3806 026d D4000000 		.4byte	0xd4
 3807 0271 00       		.byte	0x0
 3808 0272 00       		.byte	0x0
 3809 0273 00       		.byte	0x0
 3810 0274 1C       		.uleb128 0x1c
 3811 0275 01       		.byte	0x1
 3812 0276 38010000 		.4byte	.LASF29
 3813 027a 01       		.byte	0x1
 3814 027b 0102     		.2byte	0x201
 3815 027d 01       		.byte	0x1
 3816 027e 85000000 		.4byte	0x85
 3817 0282 00000000 		.4byte	.LFB11
 3818 0286 14000000 		.4byte	.LFE11
 3819 028a 01       		.byte	0x1
 3820 028b 5D       		.byte	0x5d
 3821 028c A1020000 		.4byte	0x2a1
 3822 0290 17       		.uleb128 0x17
 3823 0291 5F000000 		.4byte	.LASF17
 3824 0295 01       		.byte	0x1
 3825 0296 0102     		.2byte	0x201
 3826 0298 85000000 		.4byte	0x85
 3827 029c C7000000 		.4byte	.LLST14
 3828 02a0 00       		.byte	0x0
 3829 02a1 16       		.uleb128 0x16
 3830 02a2 01       		.byte	0x1
 3831 02a3 6E030000 		.4byte	.LASF27
 3832 02a7 01       		.byte	0x1
 3833 02a8 2202     		.2byte	0x222
 3834 02aa 01       		.byte	0x1
 3835 02ab 00000000 		.4byte	.LFB12
 3836 02af 4C000000 		.4byte	.LFE12
 3837 02b3 DA000000 		.4byte	.LLST15
 3838 02b7 32030000 		.4byte	0x332
 3839 02bb 17       		.uleb128 0x17
 3840 02bc 5F000000 		.4byte	.LASF17
 3841 02c0 01       		.byte	0x1
 3842 02c1 2202     		.2byte	0x222
 3843 02c3 85000000 		.4byte	0x85
 3844 02c7 F9000000 		.4byte	.LLST16
 3845 02cb 17       		.uleb128 0x17
 3846 02cc C3010000 		.4byte	.LASF28
 3847 02d0 01       		.byte	0x1
 3848 02d1 2202     		.2byte	0x222
 3849 02d3 85000000 		.4byte	0x85
ARM GAS  C:\Users\asha\AppData\Local\Temp\ccSrRbz4.s 			page 97


 3850 02d7 17010000 		.4byte	.LLST17
 3851 02db 1A       		.uleb128 0x1a
 3852 02dc C5000000 		.4byte	0xc5
 3853 02e0 06000000 		.4byte	.LBB88
 3854 02e4 08000000 		.4byte	.LBE88
 3855 02e8 01       		.byte	0x1
 3856 02e9 2402     		.2byte	0x224
 3857 02eb F5020000 		.4byte	0x2f5
 3858 02ef 0D       		.uleb128 0xd
 3859 02f0 D4000000 		.4byte	0xd4
 3860 02f4 00       		.byte	0x0
 3861 02f5 1B       		.uleb128 0x1b
 3862 02f6 BB000000 		.4byte	0xbb
 3863 02fa 10000000 		.4byte	.LBB90
 3864 02fe 1A000000 		.4byte	.LBE90
 3865 0302 01       		.byte	0x1
 3866 0303 2C02     		.2byte	0x22c
 3867 0305 1D       		.uleb128 0x1d
 3868 0306 E1000000 		.4byte	0xe1
 3869 030a 1A000000 		.4byte	.LBB92
 3870 030e 00000000 		.4byte	.Ldebug_ranges0+0x0
 3871 0312 01       		.byte	0x1
 3872 0313 2F02     		.2byte	0x22f
 3873 0315 0D       		.uleb128 0xd
 3874 0316 B5010000 		.4byte	0x1b5
 3875 031a 15       		.uleb128 0x15
 3876 031b C5000000 		.4byte	0xc5
 3877 031f 1E000000 		.4byte	.LBB94
 3878 0323 20000000 		.4byte	.LBE94
 3879 0327 01       		.byte	0x1
 3880 0328 B801     		.2byte	0x1b8
 3881 032a 0D       		.uleb128 0xd
 3882 032b D4000000 		.4byte	0xd4
 3883 032f 00       		.byte	0x0
 3884 0330 00       		.byte	0x0
 3885 0331 00       		.byte	0x0
 3886 0332 1E       		.uleb128 0x1e
 3887 0333 01       		.byte	0x1
 3888 0334 88030000 		.4byte	.LASF30
 3889 0338 01       		.byte	0x1
 3890 0339 4602     		.2byte	0x246
 3891 033b 01       		.byte	0x1
 3892 033c 85000000 		.4byte	0x85
 3893 0340 00000000 		.4byte	.LFB13
 3894 0344 20000000 		.4byte	.LFE13
 3895 0348 35010000 		.4byte	.LLST18
 3896 034c 77030000 		.4byte	0x377
 3897 0350 17       		.uleb128 0x17
 3898 0351 5F000000 		.4byte	.LASF17
 3899 0355 01       		.byte	0x1
 3900 0356 4602     		.2byte	0x246
 3901 0358 85000000 		.4byte	0x85
 3902 035c 54010000 		.4byte	.LLST19
 3903 0360 15       		.uleb128 0x15
 3904 0361 C5000000 		.4byte	0xc5
 3905 0365 06000000 		.4byte	.LBB98
 3906 0369 08000000 		.4byte	.LBE98
ARM GAS  C:\Users\asha\AppData\Local\Temp\ccSrRbz4.s 			page 98


 3907 036d 01       		.byte	0x1
 3908 036e 4802     		.2byte	0x248
 3909 0370 0D       		.uleb128 0xd
 3910 0371 D4000000 		.4byte	0xd4
 3911 0375 00       		.byte	0x0
 3912 0376 00       		.byte	0x0
 3913 0377 16       		.uleb128 0x16
 3914 0378 01       		.byte	0x1
 3915 0379 71020000 		.4byte	.LASF31
 3916 037d 01       		.byte	0x1
 3917 037e 6702     		.2byte	0x267
 3918 0380 01       		.byte	0x1
 3919 0381 00000000 		.4byte	.LFB14
 3920 0385 28000000 		.4byte	.LFE14
 3921 0389 67010000 		.4byte	.LLST20
 3922 038d B2030000 		.4byte	0x3b2
 3923 0391 17       		.uleb128 0x17
 3924 0392 80020000 		.4byte	.LASF32
 3925 0396 01       		.byte	0x1
 3926 0397 6702     		.2byte	0x267
 3927 0399 85000000 		.4byte	0x85
 3928 039d 86010000 		.4byte	.LLST21
 3929 03a1 1B       		.uleb128 0x1b
 3930 03a2 BB000000 		.4byte	0xbb
 3931 03a6 0A000000 		.4byte	.LBB100
 3932 03aa 14000000 		.4byte	.LBE100
 3933 03ae 01       		.byte	0x1
 3934 03af 6E02     		.2byte	0x26e
 3935 03b1 00       		.byte	0x0
 3936 03b2 16       		.uleb128 0x16
 3937 03b3 01       		.byte	0x1
 3938 03b4 A8040000 		.4byte	.LASF33
 3939 03b8 01       		.byte	0x1
 3940 03b9 8C02     		.2byte	0x28c
 3941 03bb 01       		.byte	0x1
 3942 03bc 00000000 		.4byte	.LFB15
 3943 03c0 28000000 		.4byte	.LFE15
 3944 03c4 99010000 		.4byte	.LLST22
 3945 03c8 EB030000 		.4byte	0x3eb
 3946 03cc 18       		.uleb128 0x18
 3947 03cd 80020000 		.4byte	.LASF32
 3948 03d1 01       		.byte	0x1
 3949 03d2 8C02     		.2byte	0x28c
 3950 03d4 85000000 		.4byte	0x85
 3951 03d8 01       		.byte	0x1
 3952 03d9 50       		.byte	0x50
 3953 03da 1B       		.uleb128 0x1b
 3954 03db BB000000 		.4byte	0xbb
 3955 03df 0A000000 		.4byte	.LBB102
 3956 03e3 14000000 		.4byte	.LBE102
 3957 03e7 01       		.byte	0x1
 3958 03e8 9302     		.2byte	0x293
 3959 03ea 00       		.byte	0x0
 3960 03eb 16       		.uleb128 0x16
 3961 03ec 01       		.byte	0x1
 3962 03ed E1010000 		.4byte	.LASF34
 3963 03f1 01       		.byte	0x1
ARM GAS  C:\Users\asha\AppData\Local\Temp\ccSrRbz4.s 			page 99


 3964 03f2 B302     		.2byte	0x2b3
 3965 03f4 01       		.byte	0x1
 3966 03f5 00000000 		.4byte	.LFB16
 3967 03f9 48000000 		.4byte	.LFE16
 3968 03fd B8010000 		.4byte	.LLST23
 3969 0401 90040000 		.4byte	0x490
 3970 0405 17       		.uleb128 0x17
 3971 0406 AE050000 		.4byte	.LASF35
 3972 040a 01       		.byte	0x1
 3973 040b B302     		.2byte	0x2b3
 3974 040d 85000000 		.4byte	0x85
 3975 0411 D7010000 		.4byte	.LLST24
 3976 0415 19       		.uleb128 0x19
 3977 0416 8B050000 		.4byte	.LASF36
 3978 041a 01       		.byte	0x1
 3979 041b B502     		.2byte	0x2b5
 3980 041d 85000000 		.4byte	0x85
 3981 0421 EA010000 		.4byte	.LLST25
 3982 0425 1F       		.uleb128 0x1f
 3983 0426 5C020000 		.4byte	.LASF60
 3984 042a 01       		.byte	0x1
 3985 042b B602     		.2byte	0x2b6
 3986 042d 85000000 		.4byte	0x85
 3987 0431 1A       		.uleb128 0x1a
 3988 0432 E1000000 		.4byte	0xe1
 3989 0436 02000000 		.4byte	.LBB104
 3990 043a 06000000 		.4byte	.LBE104
 3991 043e 01       		.byte	0x1
 3992 043f B902     		.2byte	0x2b9
 3993 0441 4B040000 		.4byte	0x44b
 3994 0445 0D       		.uleb128 0xd
 3995 0446 B5010000 		.4byte	0x1b5
 3996 044a 00       		.byte	0x0
 3997 044b 1A       		.uleb128 0x1a
 3998 044c E1000000 		.4byte	0xe1
 3999 0450 06000000 		.4byte	.LBB106
 4000 0454 08000000 		.4byte	.LBE106
 4001 0458 01       		.byte	0x1
 4002 0459 B902     		.2byte	0x2b9
 4003 045b 65040000 		.4byte	0x465
 4004 045f 0D       		.uleb128 0xd
 4005 0460 B5010000 		.4byte	0x1b5
 4006 0464 00       		.byte	0x0
 4007 0465 1A       		.uleb128 0x1a
 4008 0466 E1000000 		.4byte	0xe1
 4009 046a 08000000 		.4byte	.LBB108
 4010 046e 0A000000 		.4byte	.LBE108
 4011 0472 01       		.byte	0x1
 4012 0473 B802     		.2byte	0x2b8
 4013 0475 7F040000 		.4byte	0x47f
 4014 0479 0D       		.uleb128 0xd
 4015 047a B5010000 		.4byte	0x1b5
 4016 047e 00       		.byte	0x0
 4017 047f 1B       		.uleb128 0x1b
 4018 0480 BB000000 		.4byte	0xbb
 4019 0484 20000000 		.4byte	.LBB110
 4020 0488 2A000000 		.4byte	.LBE110
ARM GAS  C:\Users\asha\AppData\Local\Temp\ccSrRbz4.s 			page 100


 4021 048c 01       		.byte	0x1
 4022 048d C302     		.2byte	0x2c3
 4023 048f 00       		.byte	0x0
 4024 0490 20       		.uleb128 0x20
 4025 0491 01       		.byte	0x1
 4026 0492 94040000 		.4byte	.LASF39
 4027 0496 01       		.byte	0x1
 4028 0497 E002     		.2byte	0x2e0
 4029 0499 01       		.byte	0x1
 4030 049a 85000000 		.4byte	0x85
 4031 049e 00000000 		.4byte	.LFB17
 4032 04a2 14000000 		.4byte	.LFE17
 4033 04a6 01       		.byte	0x1
 4034 04a7 5D       		.byte	0x5d
 4035 04a8 16       		.uleb128 0x16
 4036 04a9 01       		.byte	0x1
 4037 04aa FA050000 		.4byte	.LASF37
 4038 04ae 01       		.byte	0x1
 4039 04af 2A03     		.2byte	0x32a
 4040 04b1 01       		.byte	0x1
 4041 04b2 00000000 		.4byte	.LFB19
 4042 04b6 40000000 		.4byte	.LFE19
 4043 04ba 1E020000 		.4byte	.LLST27
 4044 04be 0D050000 		.4byte	0x50d
 4045 04c2 17       		.uleb128 0x17
 4046 04c3 93010000 		.4byte	.LASF38
 4047 04c7 01       		.byte	0x1
 4048 04c8 2A03     		.2byte	0x32a
 4049 04ca 85000000 		.4byte	0x85
 4050 04ce 3D020000 		.4byte	.LLST28
 4051 04d2 19       		.uleb128 0x19
 4052 04d3 8B050000 		.4byte	.LASF36
 4053 04d7 01       		.byte	0x1
 4054 04d8 2C03     		.2byte	0x32c
 4055 04da 85000000 		.4byte	0x85
 4056 04de 5B020000 		.4byte	.LLST29
 4057 04e2 1A       		.uleb128 0x1a
 4058 04e3 E1000000 		.4byte	0xe1
 4059 04e7 02000000 		.4byte	.LBB112
 4060 04eb 06000000 		.4byte	.LBE112
 4061 04ef 01       		.byte	0x1
 4062 04f0 2E03     		.2byte	0x32e
 4063 04f2 FC040000 		.4byte	0x4fc
 4064 04f6 0D       		.uleb128 0xd
 4065 04f7 B5010000 		.4byte	0x1b5
 4066 04fb 00       		.byte	0x0
 4067 04fc 1B       		.uleb128 0x1b
 4068 04fd BB000000 		.4byte	0xbb
 4069 0501 12000000 		.4byte	.LBB114
 4070 0505 1C000000 		.4byte	.LBE114
 4071 0509 01       		.byte	0x1
 4072 050a 3503     		.2byte	0x335
 4073 050c 00       		.byte	0x0
 4074 050d 20       		.uleb128 0x20
 4075 050e 01       		.byte	0x1
 4076 050f 55040000 		.4byte	.LASF40
 4077 0513 01       		.byte	0x1
ARM GAS  C:\Users\asha\AppData\Local\Temp\ccSrRbz4.s 			page 101


 4078 0514 4E03     		.2byte	0x34e
 4079 0516 01       		.byte	0x1
 4080 0517 85000000 		.4byte	0x85
 4081 051b 00000000 		.4byte	.LFB20
 4082 051f 10000000 		.4byte	.LFE20
 4083 0523 01       		.byte	0x1
 4084 0524 5D       		.byte	0x5d
 4085 0525 1E       		.uleb128 0x1e
 4086 0526 01       		.byte	0x1
 4087 0527 D6040000 		.4byte	.LASF41
 4088 052b 01       		.byte	0x1
 4089 052c 6303     		.2byte	0x363
 4090 052e 01       		.byte	0x1
 4091 052f 85000000 		.4byte	0x85
 4092 0533 00000000 		.4byte	.LFB21
 4093 0537 18000000 		.4byte	.LFE21
 4094 053b 84020000 		.4byte	.LLST31
 4095 053f 6A050000 		.4byte	0x56a
 4096 0543 17       		.uleb128 0x17
 4097 0544 5F000000 		.4byte	.LASF17
 4098 0548 01       		.byte	0x1
 4099 0549 6303     		.2byte	0x363
 4100 054b 85000000 		.4byte	0x85
 4101 054f A3020000 		.4byte	.LLST32
 4102 0553 15       		.uleb128 0x15
 4103 0554 C5000000 		.4byte	0xc5
 4104 0558 06000000 		.4byte	.LBB116
 4105 055c 08000000 		.4byte	.LBE116
 4106 0560 01       		.byte	0x1
 4107 0561 6503     		.2byte	0x365
 4108 0563 0D       		.uleb128 0xd
 4109 0564 D4000000 		.4byte	0xd4
 4110 0568 00       		.byte	0x0
 4111 0569 00       		.byte	0x0
 4112 056a 1E       		.uleb128 0x1e
 4113 056b 01       		.byte	0x1
 4114 056c 49010000 		.4byte	.LASF42
 4115 0570 01       		.byte	0x1
 4116 0571 7B03     		.2byte	0x37b
 4117 0573 01       		.byte	0x1
 4118 0574 85000000 		.4byte	0x85
 4119 0578 00000000 		.4byte	.LFB22
 4120 057c 34000000 		.4byte	.LFE22
 4121 0580 B6020000 		.4byte	.LLST33
 4122 0584 BF050000 		.4byte	0x5bf
 4123 0588 17       		.uleb128 0x17
 4124 0589 5F000000 		.4byte	.LASF17
 4125 058d 01       		.byte	0x1
 4126 058e 7B03     		.2byte	0x37b
 4127 0590 85000000 		.4byte	0x85
 4128 0594 D5020000 		.4byte	.LLST34
 4129 0598 19       		.uleb128 0x19
 4130 0599 33020000 		.4byte	.LASF43
 4131 059d 01       		.byte	0x1
 4132 059e 7D03     		.2byte	0x37d
 4133 05a0 85000000 		.4byte	0x85
 4134 05a4 09030000 		.4byte	.LLST35
ARM GAS  C:\Users\asha\AppData\Local\Temp\ccSrRbz4.s 			page 102


 4135 05a8 15       		.uleb128 0x15
 4136 05a9 C5000000 		.4byte	0xc5
 4137 05ad 0E000000 		.4byte	.LBB118
 4138 05b1 12000000 		.4byte	.LBE118
 4139 05b5 01       		.byte	0x1
 4140 05b6 9103     		.2byte	0x391
 4141 05b8 0D       		.uleb128 0xd
 4142 05b9 D4000000 		.4byte	0xd4
 4143 05bd 00       		.byte	0x0
 4144 05be 00       		.byte	0x0
 4145 05bf 20       		.uleb128 0x20
 4146 05c0 01       		.byte	0x1
 4147 05c1 F2040000 		.4byte	.LASF44
 4148 05c5 01       		.byte	0x1
 4149 05c6 AC03     		.2byte	0x3ac
 4150 05c8 01       		.byte	0x1
 4151 05c9 85000000 		.4byte	0x85
 4152 05cd 00000000 		.4byte	.LFB23
 4153 05d1 14000000 		.4byte	.LFE23
 4154 05d5 01       		.byte	0x1
 4155 05d6 5D       		.byte	0x5d
 4156 05d7 16       		.uleb128 0x16
 4157 05d8 01       		.byte	0x1
 4158 05d9 F5030000 		.4byte	.LASF45
 4159 05dd 01       		.byte	0x1
 4160 05de 1104     		.2byte	0x411
 4161 05e0 01       		.byte	0x1
 4162 05e1 00000000 		.4byte	.LFB25
 4163 05e5 30000000 		.4byte	.LFE25
 4164 05e9 3D030000 		.4byte	.LLST37
 4165 05ed 12060000 		.4byte	0x612
 4166 05f1 17       		.uleb128 0x17
 4167 05f2 FC010000 		.4byte	.LASF46
 4168 05f6 01       		.byte	0x1
 4169 05f7 1104     		.2byte	0x411
 4170 05f9 85000000 		.4byte	0x85
 4171 05fd 5C030000 		.4byte	.LLST38
 4172 0601 1B       		.uleb128 0x1b
 4173 0602 BB000000 		.4byte	0xbb
 4174 0606 0A000000 		.4byte	.LBB120
 4175 060a 14000000 		.4byte	.LBE120
 4176 060e 01       		.byte	0x1
 4177 060f 1804     		.2byte	0x418
 4178 0611 00       		.byte	0x0
 4179 0612 21       		.uleb128 0x21
 4180 0613 01       		.byte	0x1
 4181 0614 3C020000 		.4byte	.LASF47
 4182 0618 01       		.byte	0x1
 4183 0619 4304     		.2byte	0x443
 4184 061b 01       		.byte	0x1
 4185 061c 00000000 		.4byte	.LFB26
 4186 0620 2C000000 		.4byte	.LFE26
 4187 0624 01       		.byte	0x1
 4188 0625 5D       		.byte	0x5d
 4189 0626 3B060000 		.4byte	0x63b
 4190 062a 17       		.uleb128 0x17
 4191 062b 6B040000 		.4byte	.LASF48
ARM GAS  C:\Users\asha\AppData\Local\Temp\ccSrRbz4.s 			page 103


 4192 062f 01       		.byte	0x1
 4193 0630 4304     		.2byte	0x443
 4194 0632 85000000 		.4byte	0x85
 4195 0636 6F030000 		.4byte	.LLST40
 4196 063a 00       		.byte	0x0
 4197 063b 22       		.uleb128 0x22
 4198 063c 01       		.byte	0x1
 4199 063d 7B050000 		.4byte	.LASF49
 4200 0641 01       		.byte	0x1
 4201 0642 5C04     		.2byte	0x45c
 4202 0644 01       		.byte	0x1
 4203 0645 00000000 		.4byte	.LFB27
 4204 0649 1C000000 		.4byte	.LFE27
 4205 064d 01       		.byte	0x1
 4206 064e 5D       		.byte	0x5d
 4207 064f 20       		.uleb128 0x20
 4208 0650 01       		.byte	0x1
 4209 0651 AB020000 		.4byte	.LASF50
 4210 0655 01       		.byte	0x1
 4211 0656 7204     		.2byte	0x472
 4212 0658 01       		.byte	0x1
 4213 0659 85000000 		.4byte	0x85
 4214 065d 00000000 		.4byte	.LFB28
 4215 0661 10000000 		.4byte	.LFE28
 4216 0665 01       		.byte	0x1
 4217 0666 5D       		.byte	0x5d
 4218 0667 22       		.uleb128 0x22
 4219 0668 01       		.byte	0x1
 4220 0669 09020000 		.4byte	.LASF51
 4221 066d 01       		.byte	0x1
 4222 066e 8604     		.2byte	0x486
 4223 0670 01       		.byte	0x1
 4224 0671 00000000 		.4byte	.LFB29
 4225 0675 0C000000 		.4byte	.LFE29
 4226 0679 01       		.byte	0x1
 4227 067a 5D       		.byte	0x5d
 4228 067b 1C       		.uleb128 0x1c
 4229 067c 01       		.byte	0x1
 4230 067d 6A000000 		.4byte	.LASF52
 4231 0681 01       		.byte	0x1
 4232 0682 9A04     		.2byte	0x49a
 4233 0684 01       		.byte	0x1
 4234 0685 85000000 		.4byte	0x85
 4235 0689 00000000 		.4byte	.LFB30
 4236 068d 10000000 		.4byte	.LFE30
 4237 0691 01       		.byte	0x1
 4238 0692 5D       		.byte	0x5d
 4239 0693 A8060000 		.4byte	0x6a8
 4240 0697 19       		.uleb128 0x19
 4241 0698 21000000 		.4byte	.LASF53
 4242 069c 01       		.byte	0x1
 4243 069d 9C04     		.2byte	0x49c
 4244 069f 85000000 		.4byte	0x85
 4245 06a3 82030000 		.4byte	.LLST45
 4246 06a7 00       		.byte	0x0
 4247 06a8 21       		.uleb128 0x21
 4248 06a9 01       		.byte	0x1
ARM GAS  C:\Users\asha\AppData\Local\Temp\ccSrRbz4.s 			page 104


 4249 06aa 3A030000 		.4byte	.LASF54
 4250 06ae 01       		.byte	0x1
 4251 06af B604     		.2byte	0x4b6
 4252 06b1 01       		.byte	0x1
 4253 06b2 00000000 		.4byte	.LFB31
 4254 06b6 0C000000 		.4byte	.LFE31
 4255 06ba 01       		.byte	0x1
 4256 06bb 5D       		.byte	0x5d
 4257 06bc CF060000 		.4byte	0x6cf
 4258 06c0 18       		.uleb128 0x18
 4259 06c1 2E020000 		.4byte	.LASF55
 4260 06c5 01       		.byte	0x1
 4261 06c6 B604     		.2byte	0x4b6
 4262 06c8 85000000 		.4byte	0x85
 4263 06cc 01       		.byte	0x1
 4264 06cd 50       		.byte	0x50
 4265 06ce 00       		.byte	0x0
 4266 06cf 1E       		.uleb128 0x1e
 4267 06d0 01       		.byte	0x1
 4268 06d1 5C030000 		.4byte	.LASF56
 4269 06d5 01       		.byte	0x1
 4270 06d6 CC04     		.2byte	0x4cc
 4271 06d8 01       		.byte	0x1
 4272 06d9 A5000000 		.4byte	0xa5
 4273 06dd 00000000 		.4byte	.LFB32
 4274 06e1 16000000 		.4byte	.LFE32
 4275 06e5 95030000 		.4byte	.LLST47
 4276 06e9 3E070000 		.4byte	0x73e
 4277 06ed 17       		.uleb128 0x17
 4278 06ee 27020000 		.4byte	.LASF57
 4279 06f2 01       		.byte	0x1
 4280 06f3 CC04     		.2byte	0x4cc
 4281 06f5 6F000000 		.4byte	0x6f
 4282 06f9 B4030000 		.4byte	.LLST48
 4283 06fd 18       		.uleb128 0x18
 4284 06fe C1030000 		.4byte	.LASF58
 4285 0702 01       		.byte	0x1
 4286 0703 CC04     		.2byte	0x4cc
 4287 0705 A5000000 		.4byte	0xa5
 4288 0709 01       		.byte	0x1
 4289 070a 51       		.byte	0x51
 4290 070b 19       		.uleb128 0x19
 4291 070c 58000000 		.4byte	.LASF59
 4292 0710 01       		.byte	0x1
 4293 0711 CE04     		.2byte	0x4ce
 4294 0713 A5000000 		.4byte	0xa5
 4295 0717 C7030000 		.4byte	.LLST49
 4296 071b 1F       		.uleb128 0x1f
 4297 071c 14050000 		.4byte	.LASF61
 4298 0720 01       		.byte	0x1
 4299 0721 CF04     		.2byte	0x4cf
 4300 0723 3E070000 		.4byte	0x73e
 4301 0727 15       		.uleb128 0x15
 4302 0728 C5000000 		.4byte	0xc5
 4303 072c 06000000 		.4byte	.LBB122
 4304 0730 08000000 		.4byte	.LBE122
 4305 0734 01       		.byte	0x1
ARM GAS  C:\Users\asha\AppData\Local\Temp\ccSrRbz4.s 			page 105


 4306 0735 D104     		.2byte	0x4d1
 4307 0737 0D       		.uleb128 0xd
 4308 0738 D4000000 		.4byte	0xd4
 4309 073c 00       		.byte	0x0
 4310 073d 00       		.byte	0x0
 4311 073e 05       		.uleb128 0x5
 4312 073f 04       		.byte	0x4
 4313 0740 A5000000 		.4byte	0xa5
 4314 0744 1E       		.uleb128 0x1e
 4315 0745 01       		.byte	0x1
 4316 0746 C4040000 		.4byte	.LASF62
 4317 074a 01       		.byte	0x1
 4318 074b EC04     		.2byte	0x4ec
 4319 074d 01       		.byte	0x1
 4320 074e A5000000 		.4byte	0xa5
 4321 0752 00000000 		.4byte	.LFB33
 4322 0756 14000000 		.4byte	.LFE33
 4323 075a DA030000 		.4byte	.LLST50
 4324 075e 95070000 		.4byte	0x795
 4325 0762 17       		.uleb128 0x17
 4326 0763 27020000 		.4byte	.LASF57
 4327 0767 01       		.byte	0x1
 4328 0768 EC04     		.2byte	0x4ec
 4329 076a 6F000000 		.4byte	0x6f
 4330 076e F9030000 		.4byte	.LLST51
 4331 0772 1F       		.uleb128 0x1f
 4332 0773 14050000 		.4byte	.LASF61
 4333 0777 01       		.byte	0x1
 4334 0778 EE04     		.2byte	0x4ee
 4335 077a 3E070000 		.4byte	0x73e
 4336 077e 15       		.uleb128 0x15
 4337 077f C5000000 		.4byte	0xc5
 4338 0783 06000000 		.4byte	.LBB124
 4339 0787 12000000 		.4byte	.LBE124
 4340 078b 01       		.byte	0x1
 4341 078c F004     		.2byte	0x4f0
 4342 078e 0D       		.uleb128 0xd
 4343 078f D4000000 		.4byte	0xd4
 4344 0793 00       		.byte	0x0
 4345 0794 00       		.byte	0x0
 4346 0795 1E       		.uleb128 0x1e
 4347 0796 01       		.byte	0x1
 4348 0797 F9020000 		.4byte	.LASF63
 4349 079b 01       		.byte	0x1
 4350 079c 0505     		.2byte	0x505
 4351 079e 01       		.byte	0x1
 4352 079f A5000000 		.4byte	0xa5
 4353 07a3 00000000 		.4byte	.LFB34
 4354 07a7 18000000 		.4byte	.LFE34
 4355 07ab 0C040000 		.4byte	.LLST52
 4356 07af 04080000 		.4byte	0x804
 4357 07b3 17       		.uleb128 0x17
 4358 07b4 27020000 		.4byte	.LASF57
 4359 07b8 01       		.byte	0x1
 4360 07b9 0505     		.2byte	0x505
 4361 07bb 6F000000 		.4byte	0x6f
 4362 07bf 2B040000 		.4byte	.LLST53
ARM GAS  C:\Users\asha\AppData\Local\Temp\ccSrRbz4.s 			page 106


 4363 07c3 18       		.uleb128 0x18
 4364 07c4 C1030000 		.4byte	.LASF58
 4365 07c8 01       		.byte	0x1
 4366 07c9 0505     		.2byte	0x505
 4367 07cb A5000000 		.4byte	0xa5
 4368 07cf 01       		.byte	0x1
 4369 07d0 51       		.byte	0x51
 4370 07d1 19       		.uleb128 0x19
 4371 07d2 58000000 		.4byte	.LASF59
 4372 07d6 01       		.byte	0x1
 4373 07d7 0705     		.2byte	0x507
 4374 07d9 A5000000 		.4byte	0xa5
 4375 07dd 3E040000 		.4byte	.LLST54
 4376 07e1 1F       		.uleb128 0x1f
 4377 07e2 14050000 		.4byte	.LASF61
 4378 07e6 01       		.byte	0x1
 4379 07e7 0805     		.2byte	0x508
 4380 07e9 3E070000 		.4byte	0x73e
 4381 07ed 15       		.uleb128 0x15
 4382 07ee C5000000 		.4byte	0xc5
 4383 07f2 06000000 		.4byte	.LBB126
 4384 07f6 08000000 		.4byte	.LBE126
 4385 07fa 01       		.byte	0x1
 4386 07fb 0A05     		.2byte	0x50a
 4387 07fd 0D       		.uleb128 0xd
 4388 07fe D4000000 		.4byte	0xd4
 4389 0802 00       		.byte	0x0
 4390 0803 00       		.byte	0x0
 4391 0804 1E       		.uleb128 0x1e
 4392 0805 01       		.byte	0x1
 4393 0806 39040000 		.4byte	.LASF64
 4394 080a 01       		.byte	0x1
 4395 080b 2405     		.2byte	0x524
 4396 080d 01       		.byte	0x1
 4397 080e A5000000 		.4byte	0xa5
 4398 0812 00000000 		.4byte	.LFB35
 4399 0816 18000000 		.4byte	.LFE35
 4400 081a 51040000 		.4byte	.LLST55
 4401 081e 55080000 		.4byte	0x855
 4402 0822 17       		.uleb128 0x17
 4403 0823 27020000 		.4byte	.LASF57
 4404 0827 01       		.byte	0x1
 4405 0828 2405     		.2byte	0x524
 4406 082a 6F000000 		.4byte	0x6f
 4407 082e 70040000 		.4byte	.LLST56
 4408 0832 1F       		.uleb128 0x1f
 4409 0833 14050000 		.4byte	.LASF61
 4410 0837 01       		.byte	0x1
 4411 0838 2605     		.2byte	0x526
 4412 083a 3E070000 		.4byte	0x73e
 4413 083e 15       		.uleb128 0x15
 4414 083f C5000000 		.4byte	0xc5
 4415 0843 06000000 		.4byte	.LBB128
 4416 0847 10000000 		.4byte	.LBE128
 4417 084b 01       		.byte	0x1
 4418 084c 2805     		.2byte	0x528
 4419 084e 0D       		.uleb128 0xd
ARM GAS  C:\Users\asha\AppData\Local\Temp\ccSrRbz4.s 			page 107


 4420 084f D4000000 		.4byte	0xd4
 4421 0853 00       		.byte	0x0
 4422 0854 00       		.byte	0x0
 4423 0855 1E       		.uleb128 0x1e
 4424 0856 01       		.byte	0x1
 4425 0857 4B020000 		.4byte	.LASF65
 4426 085b 01       		.byte	0x1
 4427 085c 6005     		.2byte	0x560
 4428 085e 01       		.byte	0x1
 4429 085f 6F000000 		.4byte	0x6f
 4430 0863 00000000 		.4byte	.LFB37
 4431 0867 28000000 		.4byte	.LFE37
 4432 086b 83040000 		.4byte	.LLST57
 4433 086f A6080000 		.4byte	0x8a6
 4434 0873 17       		.uleb128 0x17
 4435 0874 27020000 		.4byte	.LASF57
 4436 0878 01       		.byte	0x1
 4437 0879 6005     		.2byte	0x560
 4438 087b 6F000000 		.4byte	0x6f
 4439 087f A2040000 		.4byte	.LLST58
 4440 0883 1F       		.uleb128 0x1f
 4441 0884 28050000 		.4byte	.LASF66
 4442 0888 01       		.byte	0x1
 4443 0889 6205     		.2byte	0x562
 4444 088b 6F000000 		.4byte	0x6f
 4445 088f 15       		.uleb128 0x15
 4446 0890 C5000000 		.4byte	0xc5
 4447 0894 06000000 		.4byte	.LBB130
 4448 0898 08000000 		.4byte	.LBE130
 4449 089c 01       		.byte	0x1
 4450 089d 6405     		.2byte	0x564
 4451 089f 0D       		.uleb128 0xd
 4452 08a0 D4000000 		.4byte	0xd4
 4453 08a4 00       		.byte	0x0
 4454 08a5 00       		.byte	0x0
 4455 08a6 21       		.uleb128 0x21
 4456 08a7 01       		.byte	0x1
 4457 08a8 B8040000 		.4byte	.LASF67
 4458 08ac 01       		.byte	0x1
 4459 08ad 7A05     		.2byte	0x57a
 4460 08af 01       		.byte	0x1
 4461 08b0 00000000 		.4byte	.LFB38
 4462 08b4 14000000 		.4byte	.LFE38
 4463 08b8 01       		.byte	0x1
 4464 08b9 5D       		.byte	0x5d
 4465 08ba CF080000 		.4byte	0x8cf
 4466 08be 17       		.uleb128 0x17
 4467 08bf 27020000 		.4byte	.LASF57
 4468 08c3 01       		.byte	0x1
 4469 08c4 7A05     		.2byte	0x57a
 4470 08c6 6F000000 		.4byte	0x6f
 4471 08ca B5040000 		.4byte	.LLST60
 4472 08ce 00       		.byte	0x0
 4473 08cf 1C       		.uleb128 0x1c
 4474 08d0 01       		.byte	0x1
 4475 08d1 10010000 		.4byte	.LASF68
 4476 08d5 01       		.byte	0x1
ARM GAS  C:\Users\asha\AppData\Local\Temp\ccSrRbz4.s 			page 108


 4477 08d6 8E05     		.2byte	0x58e
 4478 08d8 01       		.byte	0x1
 4479 08d9 6F000000 		.4byte	0x6f
 4480 08dd 00000000 		.4byte	.LFB39
 4481 08e1 18000000 		.4byte	.LFE39
 4482 08e5 01       		.byte	0x1
 4483 08e6 5D       		.byte	0x5d
 4484 08e7 FC080000 		.4byte	0x8fc
 4485 08eb 17       		.uleb128 0x17
 4486 08ec 27020000 		.4byte	.LASF57
 4487 08f0 01       		.byte	0x1
 4488 08f1 8E05     		.2byte	0x58e
 4489 08f3 6F000000 		.4byte	0x6f
 4490 08f7 C8040000 		.4byte	.LLST62
 4491 08fb 00       		.byte	0x0
 4492 08fc 21       		.uleb128 0x21
 4493 08fd 01       		.byte	0x1
 4494 08fe A1010000 		.4byte	.LASF69
 4495 0902 01       		.byte	0x1
 4496 0903 A305     		.2byte	0x5a3
 4497 0905 01       		.byte	0x1
 4498 0906 00000000 		.4byte	.LFB40
 4499 090a 14000000 		.4byte	.LFE40
 4500 090e 01       		.byte	0x1
 4501 090f 5D       		.byte	0x5d
 4502 0910 25090000 		.4byte	0x925
 4503 0914 17       		.uleb128 0x17
 4504 0915 27020000 		.4byte	.LASF57
 4505 0919 01       		.byte	0x1
 4506 091a A305     		.2byte	0x5a3
 4507 091c 6F000000 		.4byte	0x6f
 4508 0920 DB040000 		.4byte	.LLST64
 4509 0924 00       		.byte	0x0
 4510 0925 21       		.uleb128 0x21
 4511 0926 01       		.byte	0x1
 4512 0927 D6020000 		.4byte	.LASF70
 4513 092b 01       		.byte	0x1
 4514 092c B605     		.2byte	0x5b6
 4515 092e 01       		.byte	0x1
 4516 092f 00000000 		.4byte	.LFB41
 4517 0933 14000000 		.4byte	.LFE41
 4518 0937 01       		.byte	0x1
 4519 0938 5D       		.byte	0x5d
 4520 0939 4E090000 		.4byte	0x94e
 4521 093d 17       		.uleb128 0x17
 4522 093e 27020000 		.4byte	.LASF57
 4523 0942 01       		.byte	0x1
 4524 0943 B605     		.2byte	0x5b6
 4525 0945 6F000000 		.4byte	0x6f
 4526 0949 EE040000 		.4byte	.LLST66
 4527 094d 00       		.byte	0x0
 4528 094e 21       		.uleb128 0x21
 4529 094f 01       		.byte	0x1
 4530 0950 AF030000 		.4byte	.LASF71
 4531 0954 01       		.byte	0x1
 4532 0955 CA05     		.2byte	0x5ca
 4533 0957 01       		.byte	0x1
ARM GAS  C:\Users\asha\AppData\Local\Temp\ccSrRbz4.s 			page 109


 4534 0958 00000000 		.4byte	.LFB42
 4535 095c 14000000 		.4byte	.LFE42
 4536 0960 01       		.byte	0x1
 4537 0961 5D       		.byte	0x5d
 4538 0962 77090000 		.4byte	0x977
 4539 0966 17       		.uleb128 0x17
 4540 0967 27020000 		.4byte	.LASF57
 4541 096b 01       		.byte	0x1
 4542 096c CA05     		.2byte	0x5ca
 4543 096e 6F000000 		.4byte	0x6f
 4544 0972 01050000 		.4byte	.LLST68
 4545 0976 00       		.byte	0x0
 4546 0977 23       		.uleb128 0x23
 4547 0978 C5000000 		.4byte	0xc5
 4548 097c 00000000 		.4byte	.LFB43
 4549 0980 04000000 		.4byte	.LFE43
 4550 0984 01       		.byte	0x1
 4551 0985 5D       		.byte	0x5d
 4552 0986 92090000 		.4byte	0x992
 4553 098a 24       		.uleb128 0x24
 4554 098b D4000000 		.4byte	0xd4
 4555 098f 01       		.byte	0x1
 4556 0990 50       		.byte	0x50
 4557 0991 00       		.byte	0x0
 4558 0992 22       		.uleb128 0x22
 4559 0993 01       		.byte	0x1
 4560 0994 00010000 		.4byte	.LASF72
 4561 0998 01       		.byte	0x1
 4562 0999 FD05     		.2byte	0x5fd
 4563 099b 01       		.byte	0x1
 4564 099c 00000000 		.4byte	.LFB44
 4565 09a0 18000000 		.4byte	.LFE44
 4566 09a4 01       		.byte	0x1
 4567 09a5 5D       		.byte	0x5d
 4568 09a6 16       		.uleb128 0x16
 4569 09a7 01       		.byte	0x1
 4570 09a8 5B010000 		.4byte	.LASF73
 4571 09ac 01       		.byte	0x1
 4572 09ad 4506     		.2byte	0x645
 4573 09af 01       		.byte	0x1
 4574 09b0 00000000 		.4byte	.LFB47
 4575 09b4 58000000 		.4byte	.LFE47
 4576 09b8 14050000 		.4byte	.LLST71
 4577 09bc D1090000 		.4byte	0x9d1
 4578 09c0 17       		.uleb128 0x17
 4579 09c1 A9050000 		.4byte	.LASF74
 4580 09c5 01       		.byte	0x1
 4581 09c6 4506     		.2byte	0x645
 4582 09c8 85000000 		.4byte	0x85
 4583 09cc 33050000 		.4byte	.LLST72
 4584 09d0 00       		.byte	0x0
 4585 09d1 16       		.uleb128 0x16
 4586 09d2 01       		.byte	0x1
 4587 09d3 76010000 		.4byte	.LASF75
 4588 09d7 01       		.byte	0x1
 4589 09d8 3206     		.2byte	0x632
 4590 09da 01       		.byte	0x1
ARM GAS  C:\Users\asha\AppData\Local\Temp\ccSrRbz4.s 			page 110


 4591 09db 00000000 		.4byte	.LFB46
 4592 09df 14000000 		.4byte	.LFE46
 4593 09e3 67050000 		.4byte	.LLST73
 4594 09e7 FC090000 		.4byte	0x9fc
 4595 09eb 17       		.uleb128 0x17
 4596 09ec ED050000 		.4byte	.LASF76
 4597 09f0 01       		.byte	0x1
 4598 09f1 3206     		.2byte	0x632
 4599 09f3 7A000000 		.4byte	0x7a
 4600 09f7 86050000 		.4byte	.LLST74
 4601 09fb 00       		.byte	0x0
 4602 09fc 16       		.uleb128 0x16
 4603 09fd 01       		.byte	0x1
 4604 09fe 80010000 		.4byte	.LASF77
 4605 0a02 01       		.byte	0x1
 4606 0a03 FC02     		.2byte	0x2fc
 4607 0a05 01       		.byte	0x1
 4608 0a06 00000000 		.4byte	.LFB18
 4609 0a0a 48000000 		.4byte	.LFE18
 4610 0a0e 99050000 		.4byte	.LLST75
 4611 0a12 710A0000 		.4byte	0xa71
 4612 0a16 17       		.uleb128 0x17
 4613 0a17 5F000000 		.4byte	.LASF17
 4614 0a1b 01       		.byte	0x1
 4615 0a1c FC02     		.2byte	0x2fc
 4616 0a1e 85000000 		.4byte	0x85
 4617 0a22 B8050000 		.4byte	.LLST76
 4618 0a26 17       		.uleb128 0x17
 4619 0a27 D1030000 		.4byte	.LASF78
 4620 0a2b 01       		.byte	0x1
 4621 0a2c FC02     		.2byte	0x2fc
 4622 0a2e 85000000 		.4byte	0x85
 4623 0a32 D6050000 		.4byte	.LLST77
 4624 0a36 19       		.uleb128 0x19
 4625 0a37 33020000 		.4byte	.LASF43
 4626 0a3b 01       		.byte	0x1
 4627 0a3c FE02     		.2byte	0x2fe
 4628 0a3e 85000000 		.4byte	0x85
 4629 0a42 F4050000 		.4byte	.LLST78
 4630 0a46 1A       		.uleb128 0x1a
 4631 0a47 C5000000 		.4byte	0xc5
 4632 0a4b 0A000000 		.4byte	.LBB132
 4633 0a4f 0C000000 		.4byte	.LBE132
 4634 0a53 01       		.byte	0x1
 4635 0a54 0003     		.2byte	0x300
 4636 0a56 600A0000 		.4byte	0xa60
 4637 0a5a 0D       		.uleb128 0xd
 4638 0a5b 8A090000 		.4byte	0x98a
 4639 0a5f 00       		.byte	0x0
 4640 0a60 1B       		.uleb128 0x1b
 4641 0a61 BB000000 		.4byte	0xbb
 4642 0a65 14000000 		.4byte	.LBB134
 4643 0a69 1E000000 		.4byte	.LBE134
 4644 0a6d 01       		.byte	0x1
 4645 0a6e 0803     		.2byte	0x308
 4646 0a70 00       		.byte	0x0
 4647 0a71 16       		.uleb128 0x16
ARM GAS  C:\Users\asha\AppData\Local\Temp\ccSrRbz4.s 			page 111


 4648 0a72 01       		.byte	0x1
 4649 0a73 73050000 		.4byte	.LASF79
 4650 0a77 01       		.byte	0x1
 4651 0a78 1606     		.2byte	0x616
 4652 0a7a 01       		.byte	0x1
 4653 0a7b 00000000 		.4byte	.LFB45
 4654 0a7f 80000000 		.4byte	.LFE45
 4655 0a83 07060000 		.4byte	.LLST79
 4656 0a87 9C0A0000 		.4byte	0xa9c
 4657 0a8b 17       		.uleb128 0x17
 4658 0a8c 48040000 		.4byte	.LASF80
 4659 0a90 01       		.byte	0x1
 4660 0a91 1606     		.2byte	0x616
 4661 0a93 85000000 		.4byte	0x85
 4662 0a97 32060000 		.4byte	.LLST80
 4663 0a9b 00       		.byte	0x0
 4664 0a9c 16       		.uleb128 0x16
 4665 0a9d 01       		.byte	0x1
 4666 0a9e 0B040000 		.4byte	.LASF81
 4667 0aa2 01       		.byte	0x1
 4668 0aa3 3C05     		.2byte	0x53c
 4669 0aa5 01       		.byte	0x1
 4670 0aa6 00000000 		.4byte	.LFB36
 4671 0aaa 40000000 		.4byte	.LFE36
 4672 0aae 71060000 		.4byte	.LLST81
 4673 0ab2 2F0B0000 		.4byte	0xb2f
 4674 0ab6 17       		.uleb128 0x17
 4675 0ab7 27020000 		.4byte	.LASF57
 4676 0abb 01       		.byte	0x1
 4677 0abc 3C05     		.2byte	0x53c
 4678 0abe 6F000000 		.4byte	0x6f
 4679 0ac2 90060000 		.4byte	.LLST82
 4680 0ac6 17       		.uleb128 0x17
 4681 0ac7 28050000 		.4byte	.LASF66
 4682 0acb 01       		.byte	0x1
 4683 0acc 3C05     		.2byte	0x53c
 4684 0ace 6F000000 		.4byte	0x6f
 4685 0ad2 AE060000 		.4byte	.LLST83
 4686 0ad6 1F       		.uleb128 0x1f
 4687 0ad7 67010000 		.4byte	.LASF82
 4688 0adb 01       		.byte	0x1
 4689 0adc 3E05     		.2byte	0x53e
 4690 0ade 6F000000 		.4byte	0x6f
 4691 0ae2 1F       		.uleb128 0x1f
 4692 0ae3 F6010000 		.4byte	.LASF83
 4693 0ae7 01       		.byte	0x1
 4694 0ae8 3F05     		.2byte	0x53f
 4695 0aea 85000000 		.4byte	0x85
 4696 0aee 19       		.uleb128 0x19
 4697 0aef 2A000000 		.4byte	.LASF84
 4698 0af3 01       		.byte	0x1
 4699 0af4 4005     		.2byte	0x540
 4700 0af6 85000000 		.4byte	0x85
 4701 0afa CC060000 		.4byte	.LLST84
 4702 0afe 1A       		.uleb128 0x1a
 4703 0aff C5000000 		.4byte	0xc5
 4704 0b03 0A000000 		.4byte	.LBB136
ARM GAS  C:\Users\asha\AppData\Local\Temp\ccSrRbz4.s 			page 112


 4705 0b07 0C000000 		.4byte	.LBE136
 4706 0b0b 01       		.byte	0x1
 4707 0b0c 4205     		.2byte	0x542
 4708 0b0e 180B0000 		.4byte	0xb18
 4709 0b12 0D       		.uleb128 0xd
 4710 0b13 8A090000 		.4byte	0x98a
 4711 0b17 00       		.byte	0x0
 4712 0b18 15       		.uleb128 0x15
 4713 0b19 C5000000 		.4byte	0xc5
 4714 0b1d 10000000 		.4byte	.LBB138
 4715 0b21 12000000 		.4byte	.LBE138
 4716 0b25 01       		.byte	0x1
 4717 0b26 4305     		.2byte	0x543
 4718 0b28 0D       		.uleb128 0xd
 4719 0b29 8A090000 		.4byte	0x98a
 4720 0b2d 00       		.byte	0x0
 4721 0b2e 00       		.byte	0x0
 4722 0b2f 16       		.uleb128 0x16
 4723 0b30 01       		.byte	0x1
 4724 0b31 1C040000 		.4byte	.LASF85
 4725 0b35 01       		.byte	0x1
 4726 0b36 CD03     		.2byte	0x3cd
 4727 0b38 01       		.byte	0x1
 4728 0b39 00000000 		.4byte	.LFB24
 4729 0b3d 7C000000 		.4byte	.LFE24
 4730 0b41 EA060000 		.4byte	.LLST85
 4731 0b45 820B0000 		.4byte	0xb82
 4732 0b49 17       		.uleb128 0x17
 4733 0b4a 80020000 		.4byte	.LASF32
 4734 0b4e 01       		.byte	0x1
 4735 0b4f CD03     		.2byte	0x3cd
 4736 0b51 85000000 		.4byte	0x85
 4737 0b55 09070000 		.4byte	.LLST86
 4738 0b59 1F       		.uleb128 0x1f
 4739 0b5a 67010000 		.4byte	.LASF82
 4740 0b5e 01       		.byte	0x1
 4741 0b5f CF03     		.2byte	0x3cf
 4742 0b61 6F000000 		.4byte	0x6f
 4743 0b65 1F       		.uleb128 0x1f
 4744 0b66 E8030000 		.4byte	.LASF86
 4745 0b6a 01       		.byte	0x1
 4746 0b6b D003     		.2byte	0x3d0
 4747 0b6d 85000000 		.4byte	0x85
 4748 0b71 1B       		.uleb128 0x1b
 4749 0b72 BB000000 		.4byte	0xbb
 4750 0b76 10000000 		.4byte	.LBB140
 4751 0b7a 1A000000 		.4byte	.LBE140
 4752 0b7e 01       		.byte	0x1
 4753 0b7f D903     		.2byte	0x3d9
 4754 0b81 00       		.byte	0x0
 4755 0b82 16       		.uleb128 0x16
 4756 0b83 01       		.byte	0x1
 4757 0b84 49000000 		.4byte	.LASF87
 4758 0b88 01       		.byte	0x1
 4759 0b89 8901     		.2byte	0x189
 4760 0b8b 01       		.byte	0x1
 4761 0b8c 00000000 		.4byte	.LFB8
ARM GAS  C:\Users\asha\AppData\Local\Temp\ccSrRbz4.s 			page 113


 4762 0b90 48000000 		.4byte	.LFE8
 4763 0b94 32070000 		.4byte	.LLST87
 4764 0b98 B90B0000 		.4byte	0xbb9
 4765 0b9c 1F       		.uleb128 0x1f
 4766 0b9d 67010000 		.4byte	.LASF82
 4767 0ba1 01       		.byte	0x1
 4768 0ba2 8B01     		.2byte	0x18b
 4769 0ba4 6F000000 		.4byte	0x6f
 4770 0ba8 1B       		.uleb128 0x1b
 4771 0ba9 BB000000 		.4byte	0xbb
 4772 0bad 0E000000 		.4byte	.LBB142
 4773 0bb1 18000000 		.4byte	.LBE142
 4774 0bb5 01       		.byte	0x1
 4775 0bb6 9301     		.2byte	0x193
 4776 0bb8 00       		.byte	0x0
 4777 0bb9 16       		.uleb128 0x16
 4778 0bba 01       		.byte	0x1
 4779 0bbb 43050000 		.4byte	.LASF88
 4780 0bbf 01       		.byte	0x1
 4781 0bc0 6301     		.2byte	0x163
 4782 0bc2 01       		.byte	0x1
 4783 0bc3 00000000 		.4byte	.LFB7
 4784 0bc7 34000000 		.4byte	.LFE7
 4785 0bcb 51070000 		.4byte	.LLST88
 4786 0bcf F00B0000 		.4byte	0xbf0
 4787 0bd3 1F       		.uleb128 0x1f
 4788 0bd4 67010000 		.4byte	.LASF82
 4789 0bd8 01       		.byte	0x1
 4790 0bd9 6501     		.2byte	0x165
 4791 0bdb 6F000000 		.4byte	0x6f
 4792 0bdf 1B       		.uleb128 0x1b
 4793 0be0 BB000000 		.4byte	0xbb
 4794 0be4 0E000000 		.4byte	.LBB144
 4795 0be8 18000000 		.4byte	.LBE144
 4796 0bec 01       		.byte	0x1
 4797 0bed 6D01     		.2byte	0x16d
 4798 0bef 00       		.byte	0x0
 4799 0bf0 12       		.uleb128 0x12
 4800 0bf1 01       		.byte	0x1
 4801 0bf2 47030000 		.4byte	.LASF89
 4802 0bf6 01       		.byte	0x1
 4803 0bf7 D6       		.byte	0xd6
 4804 0bf8 01       		.byte	0x1
 4805 0bf9 00000000 		.4byte	.LFB6
 4806 0bfd 78010000 		.4byte	.LFE6
 4807 0c01 70070000 		.4byte	.LLST89
 4808 0c05 850C0000 		.4byte	0xc85
 4809 0c09 11       		.uleb128 0x11
 4810 0c0a A9050000 		.4byte	.LASF74
 4811 0c0e 01       		.byte	0x1
 4812 0c0f D6       		.byte	0xd6
 4813 0c10 85000000 		.4byte	0x85
 4814 0c14 9B070000 		.4byte	.LLST90
 4815 0c18 25       		.uleb128 0x25
 4816 0c19 12000000 		.4byte	.LASF90
 4817 0c1d 01       		.byte	0x1
 4818 0c1e D8       		.byte	0xd8
ARM GAS  C:\Users\asha\AppData\Local\Temp\ccSrRbz4.s 			page 114


 4819 0c1f 6F000000 		.4byte	0x6f
 4820 0c23 E5070000 		.4byte	.LLST91
 4821 0c27 25       		.uleb128 0x25
 4822 0c28 C9030000 		.4byte	.LASF91
 4823 0c2c 01       		.byte	0x1
 4824 0c2d D9       		.byte	0xd9
 4825 0c2e 6F000000 		.4byte	0x6f
 4826 0c32 2F080000 		.4byte	.LLST92
 4827 0c36 25       		.uleb128 0x25
 4828 0c37 50050000 		.4byte	.LASF92
 4829 0c3b 01       		.byte	0x1
 4830 0c3c DA       		.byte	0xda
 4831 0c3d 85000000 		.4byte	0x85
 4832 0c41 79080000 		.4byte	.LLST93
 4833 0c45 26       		.uleb128 0x26
 4834 0c46 67010000 		.4byte	.LASF82
 4835 0c4a 01       		.byte	0x1
 4836 0c4b DB       		.byte	0xdb
 4837 0c4c 6F000000 		.4byte	0x6f
 4838 0c50 27       		.uleb128 0x27
 4839 0c51 6900     		.ascii	"i\000"
 4840 0c53 01       		.byte	0x1
 4841 0c54 DC       		.byte	0xdc
 4842 0c55 85000000 		.4byte	0x85
 4843 0c59 B8080000 		.4byte	.LLST94
 4844 0c5d 28       		.uleb128 0x28
 4845 0c5e D7030000 		.4byte	.LASF93
 4846 0c62 01       		.byte	0x1
 4847 0c63 DF       		.byte	0xdf
 4848 0c64 950C0000 		.4byte	0xc95
 4849 0c68 05       		.byte	0x5
 4850 0c69 03       		.byte	0x3
 4851 0c6a 00000000 		.4byte	cyImoFreqMhz2Reg.1839
 4852 0c6e 15       		.uleb128 0x15
 4853 0c6f C5000000 		.4byte	0xc5
 4854 0c73 12000000 		.4byte	.LBB146
 4855 0c77 14000000 		.4byte	.LBE146
 4856 0c7b 01       		.byte	0x1
 4857 0c7c 4A01     		.2byte	0x14a
 4858 0c7e 0D       		.uleb128 0xd
 4859 0c7f 8A090000 		.4byte	0x98a
 4860 0c83 00       		.byte	0x0
 4861 0c84 00       		.byte	0x0
 4862 0c85 29       		.uleb128 0x29
 4863 0c86 6F000000 		.4byte	0x6f
 4864 0c8a 950C0000 		.4byte	0xc95
 4865 0c8e 2A       		.uleb128 0x2a
 4866 0c8f B8000000 		.4byte	0xb8
 4867 0c93 2D       		.byte	0x2d
 4868 0c94 00       		.byte	0x0
 4869 0c95 2B       		.uleb128 0x2b
 4870 0c96 850C0000 		.4byte	0xc85
 4871 0c9a 2C       		.uleb128 0x2c
 4872 0c9b A1030000 		.4byte	.LASF94
 4873 0c9f 01       		.byte	0x1
 4874 0ca0 17       		.byte	0x17
 4875 0ca1 85000000 		.4byte	0x85
ARM GAS  C:\Users\asha\AppData\Local\Temp\ccSrRbz4.s 			page 115


 4876 0ca5 01       		.byte	0x1
 4877 0ca6 05       		.byte	0x5
 4878 0ca7 03       		.byte	0x3
 4879 0ca8 00000000 		.4byte	cydelayFreqHz
 4880 0cac 2C       		.uleb128 0x2c
 4881 0cad B4010000 		.4byte	.LASF95
 4882 0cb1 01       		.byte	0x1
 4883 0cb2 18       		.byte	0x18
 4884 0cb3 85000000 		.4byte	0x85
 4885 0cb7 01       		.byte	0x1
 4886 0cb8 05       		.byte	0x5
 4887 0cb9 03       		.byte	0x3
 4888 0cba 00000000 		.4byte	cydelayFreqKhz
 4889 0cbe 2C       		.uleb128 0x2c
 4890 0cbf 9A050000 		.4byte	.LASF96
 4891 0cc3 01       		.byte	0x1
 4892 0cc4 19       		.byte	0x19
 4893 0cc5 6F000000 		.4byte	0x6f
 4894 0cc9 01       		.byte	0x1
 4895 0cca 05       		.byte	0x5
 4896 0ccb 03       		.byte	0x3
 4897 0ccc 00000000 		.4byte	cydelayFreqMhz
 4898 0cd0 2C       		.uleb128 0x2c
 4899 0cd1 78000000 		.4byte	.LASF97
 4900 0cd5 01       		.byte	0x1
 4901 0cd6 1A       		.byte	0x1a
 4902 0cd7 85000000 		.4byte	0x85
 4903 0cdb 01       		.byte	0x1
 4904 0cdc 05       		.byte	0x5
 4905 0cdd 03       		.byte	0x3
 4906 0cde 00000000 		.4byte	cydelay32kMs
 4907 0ce2 00       		.byte	0x0
 4908              		.section	.debug_abbrev
 4909 0000 01       		.uleb128 0x1
 4910 0001 11       		.uleb128 0x11
 4911 0002 01       		.byte	0x1
 4912 0003 25       		.uleb128 0x25
 4913 0004 0E       		.uleb128 0xe
 4914 0005 13       		.uleb128 0x13
 4915 0006 0B       		.uleb128 0xb
 4916 0007 03       		.uleb128 0x3
 4917 0008 0E       		.uleb128 0xe
 4918 0009 1B       		.uleb128 0x1b
 4919 000a 0E       		.uleb128 0xe
 4920 000b 11       		.uleb128 0x11
 4921 000c 01       		.uleb128 0x1
 4922 000d 52       		.uleb128 0x52
 4923 000e 01       		.uleb128 0x1
 4924 000f 55       		.uleb128 0x55
 4925 0010 06       		.uleb128 0x6
 4926 0011 10       		.uleb128 0x10
 4927 0012 06       		.uleb128 0x6
 4928 0013 00       		.byte	0x0
 4929 0014 00       		.byte	0x0
 4930 0015 02       		.uleb128 0x2
 4931 0016 24       		.uleb128 0x24
 4932 0017 00       		.byte	0x0
ARM GAS  C:\Users\asha\AppData\Local\Temp\ccSrRbz4.s 			page 116


 4933 0018 0B       		.uleb128 0xb
 4934 0019 0B       		.uleb128 0xb
 4935 001a 3E       		.uleb128 0x3e
 4936 001b 0B       		.uleb128 0xb
 4937 001c 03       		.uleb128 0x3
 4938 001d 0E       		.uleb128 0xe
 4939 001e 00       		.byte	0x0
 4940 001f 00       		.byte	0x0
 4941 0020 03       		.uleb128 0x3
 4942 0021 24       		.uleb128 0x24
 4943 0022 00       		.byte	0x0
 4944 0023 0B       		.uleb128 0xb
 4945 0024 0B       		.uleb128 0xb
 4946 0025 3E       		.uleb128 0x3e
 4947 0026 0B       		.uleb128 0xb
 4948 0027 03       		.uleb128 0x3
 4949 0028 08       		.uleb128 0x8
 4950 0029 00       		.byte	0x0
 4951 002a 00       		.byte	0x0
 4952 002b 04       		.uleb128 0x4
 4953 002c 16       		.uleb128 0x16
 4954 002d 00       		.byte	0x0
 4955 002e 03       		.uleb128 0x3
 4956 002f 0E       		.uleb128 0xe
 4957 0030 3A       		.uleb128 0x3a
 4958 0031 0B       		.uleb128 0xb
 4959 0032 3B       		.uleb128 0x3b
 4960 0033 0B       		.uleb128 0xb
 4961 0034 49       		.uleb128 0x49
 4962 0035 13       		.uleb128 0x13
 4963 0036 00       		.byte	0x0
 4964 0037 00       		.byte	0x0
 4965 0038 05       		.uleb128 0x5
 4966 0039 0F       		.uleb128 0xf
 4967 003a 00       		.byte	0x0
 4968 003b 0B       		.uleb128 0xb
 4969 003c 0B       		.uleb128 0xb
 4970 003d 49       		.uleb128 0x49
 4971 003e 13       		.uleb128 0x13
 4972 003f 00       		.byte	0x0
 4973 0040 00       		.byte	0x0
 4974 0041 06       		.uleb128 0x6
 4975 0042 15       		.uleb128 0x15
 4976 0043 00       		.byte	0x0
 4977 0044 27       		.uleb128 0x27
 4978 0045 0C       		.uleb128 0xc
 4979 0046 00       		.byte	0x0
 4980 0047 00       		.byte	0x0
 4981 0048 07       		.uleb128 0x7
 4982 0049 24       		.uleb128 0x24
 4983 004a 00       		.byte	0x0
 4984 004b 0B       		.uleb128 0xb
 4985 004c 0B       		.uleb128 0xb
 4986 004d 3E       		.uleb128 0x3e
 4987 004e 0B       		.uleb128 0xb
 4988 004f 00       		.byte	0x0
 4989 0050 00       		.byte	0x0
ARM GAS  C:\Users\asha\AppData\Local\Temp\ccSrRbz4.s 			page 117


 4990 0051 08       		.uleb128 0x8
 4991 0052 2E       		.uleb128 0x2e
 4992 0053 00       		.byte	0x0
 4993 0054 3F       		.uleb128 0x3f
 4994 0055 0C       		.uleb128 0xc
 4995 0056 03       		.uleb128 0x3
 4996 0057 0E       		.uleb128 0xe
 4997 0058 3A       		.uleb128 0x3a
 4998 0059 0B       		.uleb128 0xb
 4999 005a 3B       		.uleb128 0x3b
 5000 005b 0B       		.uleb128 0xb
 5001 005c 27       		.uleb128 0x27
 5002 005d 0C       		.uleb128 0xc
 5003 005e 20       		.uleb128 0x20
 5004 005f 0B       		.uleb128 0xb
 5005 0060 00       		.byte	0x0
 5006 0061 00       		.byte	0x0
 5007 0062 09       		.uleb128 0x9
 5008 0063 2E       		.uleb128 0x2e
 5009 0064 01       		.byte	0x1
 5010 0065 3F       		.uleb128 0x3f
 5011 0066 0C       		.uleb128 0xc
 5012 0067 03       		.uleb128 0x3
 5013 0068 0E       		.uleb128 0xe
 5014 0069 3A       		.uleb128 0x3a
 5015 006a 0B       		.uleb128 0xb
 5016 006b 3B       		.uleb128 0x3b
 5017 006c 05       		.uleb128 0x5
 5018 006d 27       		.uleb128 0x27
 5019 006e 0C       		.uleb128 0xc
 5020 006f 20       		.uleb128 0x20
 5021 0070 0B       		.uleb128 0xb
 5022 0071 01       		.uleb128 0x1
 5023 0072 13       		.uleb128 0x13
 5024 0073 00       		.byte	0x0
 5025 0074 00       		.byte	0x0
 5026 0075 0A       		.uleb128 0xa
 5027 0076 05       		.uleb128 0x5
 5028 0077 00       		.byte	0x0
 5029 0078 03       		.uleb128 0x3
 5030 0079 0E       		.uleb128 0xe
 5031 007a 3A       		.uleb128 0x3a
 5032 007b 0B       		.uleb128 0xb
 5033 007c 3B       		.uleb128 0x3b
 5034 007d 05       		.uleb128 0x5
 5035 007e 49       		.uleb128 0x49
 5036 007f 13       		.uleb128 0x13
 5037 0080 00       		.byte	0x0
 5038 0081 00       		.byte	0x0
 5039 0082 0B       		.uleb128 0xb
 5040 0083 2E       		.uleb128 0x2e
 5041 0084 01       		.byte	0x1
 5042 0085 3F       		.uleb128 0x3f
 5043 0086 0C       		.uleb128 0xc
 5044 0087 03       		.uleb128 0x3
 5045 0088 0E       		.uleb128 0xe
 5046 0089 3A       		.uleb128 0x3a
ARM GAS  C:\Users\asha\AppData\Local\Temp\ccSrRbz4.s 			page 118


 5047 008a 0B       		.uleb128 0xb
 5048 008b 3B       		.uleb128 0x3b
 5049 008c 05       		.uleb128 0x5
 5050 008d 27       		.uleb128 0x27
 5051 008e 0C       		.uleb128 0xc
 5052 008f 49       		.uleb128 0x49
 5053 0090 13       		.uleb128 0x13
 5054 0091 20       		.uleb128 0x20
 5055 0092 0B       		.uleb128 0xb
 5056 0093 01       		.uleb128 0x1
 5057 0094 13       		.uleb128 0x13
 5058 0095 00       		.byte	0x0
 5059 0096 00       		.byte	0x0
 5060 0097 0C       		.uleb128 0xc
 5061 0098 0B       		.uleb128 0xb
 5062 0099 01       		.byte	0x1
 5063 009a 00       		.byte	0x0
 5064 009b 00       		.byte	0x0
 5065 009c 0D       		.uleb128 0xd
 5066 009d 05       		.uleb128 0x5
 5067 009e 00       		.byte	0x0
 5068 009f 31       		.uleb128 0x31
 5069 00a0 13       		.uleb128 0x13
 5070 00a1 00       		.byte	0x0
 5071 00a2 00       		.byte	0x0
 5072 00a3 0E       		.uleb128 0xe
 5073 00a4 2E       		.uleb128 0x2e
 5074 00a5 00       		.byte	0x0
 5075 00a6 3F       		.uleb128 0x3f
 5076 00a7 0C       		.uleb128 0xc
 5077 00a8 03       		.uleb128 0x3
 5078 00a9 0E       		.uleb128 0xe
 5079 00aa 3A       		.uleb128 0x3a
 5080 00ab 0B       		.uleb128 0xb
 5081 00ac 3B       		.uleb128 0x3b
 5082 00ad 0B       		.uleb128 0xb
 5083 00ae 27       		.uleb128 0x27
 5084 00af 0C       		.uleb128 0xc
 5085 00b0 11       		.uleb128 0x11
 5086 00b1 01       		.uleb128 0x1
 5087 00b2 12       		.uleb128 0x12
 5088 00b3 01       		.uleb128 0x1
 5089 00b4 40       		.uleb128 0x40
 5090 00b5 0A       		.uleb128 0xa
 5091 00b6 00       		.byte	0x0
 5092 00b7 00       		.byte	0x0
 5093 00b8 0F       		.uleb128 0xf
 5094 00b9 2E       		.uleb128 0x2e
 5095 00ba 00       		.byte	0x0
 5096 00bb 31       		.uleb128 0x31
 5097 00bc 13       		.uleb128 0x13
 5098 00bd 11       		.uleb128 0x11
 5099 00be 01       		.uleb128 0x1
 5100 00bf 12       		.uleb128 0x12
 5101 00c0 01       		.uleb128 0x1
 5102 00c1 40       		.uleb128 0x40
 5103 00c2 0A       		.uleb128 0xa
ARM GAS  C:\Users\asha\AppData\Local\Temp\ccSrRbz4.s 			page 119


 5104 00c3 00       		.byte	0x0
 5105 00c4 00       		.byte	0x0
 5106 00c5 10       		.uleb128 0x10
 5107 00c6 2E       		.uleb128 0x2e
 5108 00c7 01       		.byte	0x1
 5109 00c8 3F       		.uleb128 0x3f
 5110 00c9 0C       		.uleb128 0xc
 5111 00ca 03       		.uleb128 0x3
 5112 00cb 0E       		.uleb128 0xe
 5113 00cc 3A       		.uleb128 0x3a
 5114 00cd 0B       		.uleb128 0xb
 5115 00ce 3B       		.uleb128 0x3b
 5116 00cf 0B       		.uleb128 0xb
 5117 00d0 27       		.uleb128 0x27
 5118 00d1 0C       		.uleb128 0xc
 5119 00d2 11       		.uleb128 0x11
 5120 00d3 01       		.uleb128 0x1
 5121 00d4 12       		.uleb128 0x12
 5122 00d5 01       		.uleb128 0x1
 5123 00d6 40       		.uleb128 0x40
 5124 00d7 0A       		.uleb128 0xa
 5125 00d8 01       		.uleb128 0x1
 5126 00d9 13       		.uleb128 0x13
 5127 00da 00       		.byte	0x0
 5128 00db 00       		.byte	0x0
 5129 00dc 11       		.uleb128 0x11
 5130 00dd 05       		.uleb128 0x5
 5131 00de 00       		.byte	0x0
 5132 00df 03       		.uleb128 0x3
 5133 00e0 0E       		.uleb128 0xe
 5134 00e1 3A       		.uleb128 0x3a
 5135 00e2 0B       		.uleb128 0xb
 5136 00e3 3B       		.uleb128 0x3b
 5137 00e4 0B       		.uleb128 0xb
 5138 00e5 49       		.uleb128 0x49
 5139 00e6 13       		.uleb128 0x13
 5140 00e7 02       		.uleb128 0x2
 5141 00e8 06       		.uleb128 0x6
 5142 00e9 00       		.byte	0x0
 5143 00ea 00       		.byte	0x0
 5144 00eb 12       		.uleb128 0x12
 5145 00ec 2E       		.uleb128 0x2e
 5146 00ed 01       		.byte	0x1
 5147 00ee 3F       		.uleb128 0x3f
 5148 00ef 0C       		.uleb128 0xc
 5149 00f0 03       		.uleb128 0x3
 5150 00f1 0E       		.uleb128 0xe
 5151 00f2 3A       		.uleb128 0x3a
 5152 00f3 0B       		.uleb128 0xb
 5153 00f4 3B       		.uleb128 0x3b
 5154 00f5 0B       		.uleb128 0xb
 5155 00f6 27       		.uleb128 0x27
 5156 00f7 0C       		.uleb128 0xc
 5157 00f8 11       		.uleb128 0x11
 5158 00f9 01       		.uleb128 0x1
 5159 00fa 12       		.uleb128 0x12
 5160 00fb 01       		.uleb128 0x1
ARM GAS  C:\Users\asha\AppData\Local\Temp\ccSrRbz4.s 			page 120


 5161 00fc 40       		.uleb128 0x40
 5162 00fd 06       		.uleb128 0x6
 5163 00fe 01       		.uleb128 0x1
 5164 00ff 13       		.uleb128 0x13
 5165 0100 00       		.byte	0x0
 5166 0101 00       		.byte	0x0
 5167 0102 13       		.uleb128 0x13
 5168 0103 2E       		.uleb128 0x2e
 5169 0104 01       		.byte	0x1
 5170 0105 31       		.uleb128 0x31
 5171 0106 13       		.uleb128 0x13
 5172 0107 11       		.uleb128 0x11
 5173 0108 01       		.uleb128 0x1
 5174 0109 12       		.uleb128 0x12
 5175 010a 01       		.uleb128 0x1
 5176 010b 40       		.uleb128 0x40
 5177 010c 06       		.uleb128 0x6
 5178 010d 01       		.uleb128 0x1
 5179 010e 13       		.uleb128 0x13
 5180 010f 00       		.byte	0x0
 5181 0110 00       		.byte	0x0
 5182 0111 14       		.uleb128 0x14
 5183 0112 05       		.uleb128 0x5
 5184 0113 00       		.byte	0x0
 5185 0114 31       		.uleb128 0x31
 5186 0115 13       		.uleb128 0x13
 5187 0116 02       		.uleb128 0x2
 5188 0117 06       		.uleb128 0x6
 5189 0118 00       		.byte	0x0
 5190 0119 00       		.byte	0x0
 5191 011a 15       		.uleb128 0x15
 5192 011b 1D       		.uleb128 0x1d
 5193 011c 01       		.byte	0x1
 5194 011d 31       		.uleb128 0x31
 5195 011e 13       		.uleb128 0x13
 5196 011f 11       		.uleb128 0x11
 5197 0120 01       		.uleb128 0x1
 5198 0121 12       		.uleb128 0x12
 5199 0122 01       		.uleb128 0x1
 5200 0123 58       		.uleb128 0x58
 5201 0124 0B       		.uleb128 0xb
 5202 0125 59       		.uleb128 0x59
 5203 0126 05       		.uleb128 0x5
 5204 0127 00       		.byte	0x0
 5205 0128 00       		.byte	0x0
 5206 0129 16       		.uleb128 0x16
 5207 012a 2E       		.uleb128 0x2e
 5208 012b 01       		.byte	0x1
 5209 012c 3F       		.uleb128 0x3f
 5210 012d 0C       		.uleb128 0xc
 5211 012e 03       		.uleb128 0x3
 5212 012f 0E       		.uleb128 0xe
 5213 0130 3A       		.uleb128 0x3a
 5214 0131 0B       		.uleb128 0xb
 5215 0132 3B       		.uleb128 0x3b
 5216 0133 05       		.uleb128 0x5
 5217 0134 27       		.uleb128 0x27
ARM GAS  C:\Users\asha\AppData\Local\Temp\ccSrRbz4.s 			page 121


 5218 0135 0C       		.uleb128 0xc
 5219 0136 11       		.uleb128 0x11
 5220 0137 01       		.uleb128 0x1
 5221 0138 12       		.uleb128 0x12
 5222 0139 01       		.uleb128 0x1
 5223 013a 40       		.uleb128 0x40
 5224 013b 06       		.uleb128 0x6
 5225 013c 01       		.uleb128 0x1
 5226 013d 13       		.uleb128 0x13
 5227 013e 00       		.byte	0x0
 5228 013f 00       		.byte	0x0
 5229 0140 17       		.uleb128 0x17
 5230 0141 05       		.uleb128 0x5
 5231 0142 00       		.byte	0x0
 5232 0143 03       		.uleb128 0x3
 5233 0144 0E       		.uleb128 0xe
 5234 0145 3A       		.uleb128 0x3a
 5235 0146 0B       		.uleb128 0xb
 5236 0147 3B       		.uleb128 0x3b
 5237 0148 05       		.uleb128 0x5
 5238 0149 49       		.uleb128 0x49
 5239 014a 13       		.uleb128 0x13
 5240 014b 02       		.uleb128 0x2
 5241 014c 06       		.uleb128 0x6
 5242 014d 00       		.byte	0x0
 5243 014e 00       		.byte	0x0
 5244 014f 18       		.uleb128 0x18
 5245 0150 05       		.uleb128 0x5
 5246 0151 00       		.byte	0x0
 5247 0152 03       		.uleb128 0x3
 5248 0153 0E       		.uleb128 0xe
 5249 0154 3A       		.uleb128 0x3a
 5250 0155 0B       		.uleb128 0xb
 5251 0156 3B       		.uleb128 0x3b
 5252 0157 05       		.uleb128 0x5
 5253 0158 49       		.uleb128 0x49
 5254 0159 13       		.uleb128 0x13
 5255 015a 02       		.uleb128 0x2
 5256 015b 0A       		.uleb128 0xa
 5257 015c 00       		.byte	0x0
 5258 015d 00       		.byte	0x0
 5259 015e 19       		.uleb128 0x19
 5260 015f 34       		.uleb128 0x34
 5261 0160 00       		.byte	0x0
 5262 0161 03       		.uleb128 0x3
 5263 0162 0E       		.uleb128 0xe
 5264 0163 3A       		.uleb128 0x3a
 5265 0164 0B       		.uleb128 0xb
 5266 0165 3B       		.uleb128 0x3b
 5267 0166 05       		.uleb128 0x5
 5268 0167 49       		.uleb128 0x49
 5269 0168 13       		.uleb128 0x13
 5270 0169 02       		.uleb128 0x2
 5271 016a 06       		.uleb128 0x6
 5272 016b 00       		.byte	0x0
 5273 016c 00       		.byte	0x0
 5274 016d 1A       		.uleb128 0x1a
ARM GAS  C:\Users\asha\AppData\Local\Temp\ccSrRbz4.s 			page 122


 5275 016e 1D       		.uleb128 0x1d
 5276 016f 01       		.byte	0x1
 5277 0170 31       		.uleb128 0x31
 5278 0171 13       		.uleb128 0x13
 5279 0172 11       		.uleb128 0x11
 5280 0173 01       		.uleb128 0x1
 5281 0174 12       		.uleb128 0x12
 5282 0175 01       		.uleb128 0x1
 5283 0176 58       		.uleb128 0x58
 5284 0177 0B       		.uleb128 0xb
 5285 0178 59       		.uleb128 0x59
 5286 0179 05       		.uleb128 0x5
 5287 017a 01       		.uleb128 0x1
 5288 017b 13       		.uleb128 0x13
 5289 017c 00       		.byte	0x0
 5290 017d 00       		.byte	0x0
 5291 017e 1B       		.uleb128 0x1b
 5292 017f 1D       		.uleb128 0x1d
 5293 0180 00       		.byte	0x0
 5294 0181 31       		.uleb128 0x31
 5295 0182 13       		.uleb128 0x13
 5296 0183 11       		.uleb128 0x11
 5297 0184 01       		.uleb128 0x1
 5298 0185 12       		.uleb128 0x12
 5299 0186 01       		.uleb128 0x1
 5300 0187 58       		.uleb128 0x58
 5301 0188 0B       		.uleb128 0xb
 5302 0189 59       		.uleb128 0x59
 5303 018a 05       		.uleb128 0x5
 5304 018b 00       		.byte	0x0
 5305 018c 00       		.byte	0x0
 5306 018d 1C       		.uleb128 0x1c
 5307 018e 2E       		.uleb128 0x2e
 5308 018f 01       		.byte	0x1
 5309 0190 3F       		.uleb128 0x3f
 5310 0191 0C       		.uleb128 0xc
 5311 0192 03       		.uleb128 0x3
 5312 0193 0E       		.uleb128 0xe
 5313 0194 3A       		.uleb128 0x3a
 5314 0195 0B       		.uleb128 0xb
 5315 0196 3B       		.uleb128 0x3b
 5316 0197 05       		.uleb128 0x5
 5317 0198 27       		.uleb128 0x27
 5318 0199 0C       		.uleb128 0xc
 5319 019a 49       		.uleb128 0x49
 5320 019b 13       		.uleb128 0x13
 5321 019c 11       		.uleb128 0x11
 5322 019d 01       		.uleb128 0x1
 5323 019e 12       		.uleb128 0x12
 5324 019f 01       		.uleb128 0x1
 5325 01a0 40       		.uleb128 0x40
 5326 01a1 0A       		.uleb128 0xa
 5327 01a2 01       		.uleb128 0x1
 5328 01a3 13       		.uleb128 0x13
 5329 01a4 00       		.byte	0x0
 5330 01a5 00       		.byte	0x0
 5331 01a6 1D       		.uleb128 0x1d
ARM GAS  C:\Users\asha\AppData\Local\Temp\ccSrRbz4.s 			page 123


 5332 01a7 1D       		.uleb128 0x1d
 5333 01a8 01       		.byte	0x1
 5334 01a9 31       		.uleb128 0x31
 5335 01aa 13       		.uleb128 0x13
 5336 01ab 52       		.uleb128 0x52
 5337 01ac 01       		.uleb128 0x1
 5338 01ad 55       		.uleb128 0x55
 5339 01ae 06       		.uleb128 0x6
 5340 01af 58       		.uleb128 0x58
 5341 01b0 0B       		.uleb128 0xb
 5342 01b1 59       		.uleb128 0x59
 5343 01b2 05       		.uleb128 0x5
 5344 01b3 00       		.byte	0x0
 5345 01b4 00       		.byte	0x0
 5346 01b5 1E       		.uleb128 0x1e
 5347 01b6 2E       		.uleb128 0x2e
 5348 01b7 01       		.byte	0x1
 5349 01b8 3F       		.uleb128 0x3f
 5350 01b9 0C       		.uleb128 0xc
 5351 01ba 03       		.uleb128 0x3
 5352 01bb 0E       		.uleb128 0xe
 5353 01bc 3A       		.uleb128 0x3a
 5354 01bd 0B       		.uleb128 0xb
 5355 01be 3B       		.uleb128 0x3b
 5356 01bf 05       		.uleb128 0x5
 5357 01c0 27       		.uleb128 0x27
 5358 01c1 0C       		.uleb128 0xc
 5359 01c2 49       		.uleb128 0x49
 5360 01c3 13       		.uleb128 0x13
 5361 01c4 11       		.uleb128 0x11
 5362 01c5 01       		.uleb128 0x1
 5363 01c6 12       		.uleb128 0x12
 5364 01c7 01       		.uleb128 0x1
 5365 01c8 40       		.uleb128 0x40
 5366 01c9 06       		.uleb128 0x6
 5367 01ca 01       		.uleb128 0x1
 5368 01cb 13       		.uleb128 0x13
 5369 01cc 00       		.byte	0x0
 5370 01cd 00       		.byte	0x0
 5371 01ce 1F       		.uleb128 0x1f
 5372 01cf 34       		.uleb128 0x34
 5373 01d0 00       		.byte	0x0
 5374 01d1 03       		.uleb128 0x3
 5375 01d2 0E       		.uleb128 0xe
 5376 01d3 3A       		.uleb128 0x3a
 5377 01d4 0B       		.uleb128 0xb
 5378 01d5 3B       		.uleb128 0x3b
 5379 01d6 05       		.uleb128 0x5
 5380 01d7 49       		.uleb128 0x49
 5381 01d8 13       		.uleb128 0x13
 5382 01d9 00       		.byte	0x0
 5383 01da 00       		.byte	0x0
 5384 01db 20       		.uleb128 0x20
 5385 01dc 2E       		.uleb128 0x2e
 5386 01dd 00       		.byte	0x0
 5387 01de 3F       		.uleb128 0x3f
 5388 01df 0C       		.uleb128 0xc
ARM GAS  C:\Users\asha\AppData\Local\Temp\ccSrRbz4.s 			page 124


 5389 01e0 03       		.uleb128 0x3
 5390 01e1 0E       		.uleb128 0xe
 5391 01e2 3A       		.uleb128 0x3a
 5392 01e3 0B       		.uleb128 0xb
 5393 01e4 3B       		.uleb128 0x3b
 5394 01e5 05       		.uleb128 0x5
 5395 01e6 27       		.uleb128 0x27
 5396 01e7 0C       		.uleb128 0xc
 5397 01e8 49       		.uleb128 0x49
 5398 01e9 13       		.uleb128 0x13
 5399 01ea 11       		.uleb128 0x11
 5400 01eb 01       		.uleb128 0x1
 5401 01ec 12       		.uleb128 0x12
 5402 01ed 01       		.uleb128 0x1
 5403 01ee 40       		.uleb128 0x40
 5404 01ef 0A       		.uleb128 0xa
 5405 01f0 00       		.byte	0x0
 5406 01f1 00       		.byte	0x0
 5407 01f2 21       		.uleb128 0x21
 5408 01f3 2E       		.uleb128 0x2e
 5409 01f4 01       		.byte	0x1
 5410 01f5 3F       		.uleb128 0x3f
 5411 01f6 0C       		.uleb128 0xc
 5412 01f7 03       		.uleb128 0x3
 5413 01f8 0E       		.uleb128 0xe
 5414 01f9 3A       		.uleb128 0x3a
 5415 01fa 0B       		.uleb128 0xb
 5416 01fb 3B       		.uleb128 0x3b
 5417 01fc 05       		.uleb128 0x5
 5418 01fd 27       		.uleb128 0x27
 5419 01fe 0C       		.uleb128 0xc
 5420 01ff 11       		.uleb128 0x11
 5421 0200 01       		.uleb128 0x1
 5422 0201 12       		.uleb128 0x12
 5423 0202 01       		.uleb128 0x1
 5424 0203 40       		.uleb128 0x40
 5425 0204 0A       		.uleb128 0xa
 5426 0205 01       		.uleb128 0x1
 5427 0206 13       		.uleb128 0x13
 5428 0207 00       		.byte	0x0
 5429 0208 00       		.byte	0x0
 5430 0209 22       		.uleb128 0x22
 5431 020a 2E       		.uleb128 0x2e
 5432 020b 00       		.byte	0x0
 5433 020c 3F       		.uleb128 0x3f
 5434 020d 0C       		.uleb128 0xc
 5435 020e 03       		.uleb128 0x3
 5436 020f 0E       		.uleb128 0xe
 5437 0210 3A       		.uleb128 0x3a
 5438 0211 0B       		.uleb128 0xb
 5439 0212 3B       		.uleb128 0x3b
 5440 0213 05       		.uleb128 0x5
 5441 0214 27       		.uleb128 0x27
 5442 0215 0C       		.uleb128 0xc
 5443 0216 11       		.uleb128 0x11
 5444 0217 01       		.uleb128 0x1
 5445 0218 12       		.uleb128 0x12
ARM GAS  C:\Users\asha\AppData\Local\Temp\ccSrRbz4.s 			page 125


 5446 0219 01       		.uleb128 0x1
 5447 021a 40       		.uleb128 0x40
 5448 021b 0A       		.uleb128 0xa
 5449 021c 00       		.byte	0x0
 5450 021d 00       		.byte	0x0
 5451 021e 23       		.uleb128 0x23
 5452 021f 2E       		.uleb128 0x2e
 5453 0220 01       		.byte	0x1
 5454 0221 31       		.uleb128 0x31
 5455 0222 13       		.uleb128 0x13
 5456 0223 11       		.uleb128 0x11
 5457 0224 01       		.uleb128 0x1
 5458 0225 12       		.uleb128 0x12
 5459 0226 01       		.uleb128 0x1
 5460 0227 40       		.uleb128 0x40
 5461 0228 0A       		.uleb128 0xa
 5462 0229 01       		.uleb128 0x1
 5463 022a 13       		.uleb128 0x13
 5464 022b 00       		.byte	0x0
 5465 022c 00       		.byte	0x0
 5466 022d 24       		.uleb128 0x24
 5467 022e 05       		.uleb128 0x5
 5468 022f 00       		.byte	0x0
 5469 0230 31       		.uleb128 0x31
 5470 0231 13       		.uleb128 0x13
 5471 0232 02       		.uleb128 0x2
 5472 0233 0A       		.uleb128 0xa
 5473 0234 00       		.byte	0x0
 5474 0235 00       		.byte	0x0
 5475 0236 25       		.uleb128 0x25
 5476 0237 34       		.uleb128 0x34
 5477 0238 00       		.byte	0x0
 5478 0239 03       		.uleb128 0x3
 5479 023a 0E       		.uleb128 0xe
 5480 023b 3A       		.uleb128 0x3a
 5481 023c 0B       		.uleb128 0xb
 5482 023d 3B       		.uleb128 0x3b
 5483 023e 0B       		.uleb128 0xb
 5484 023f 49       		.uleb128 0x49
 5485 0240 13       		.uleb128 0x13
 5486 0241 02       		.uleb128 0x2
 5487 0242 06       		.uleb128 0x6
 5488 0243 00       		.byte	0x0
 5489 0244 00       		.byte	0x0
 5490 0245 26       		.uleb128 0x26
 5491 0246 34       		.uleb128 0x34
 5492 0247 00       		.byte	0x0
 5493 0248 03       		.uleb128 0x3
 5494 0249 0E       		.uleb128 0xe
 5495 024a 3A       		.uleb128 0x3a
 5496 024b 0B       		.uleb128 0xb
 5497 024c 3B       		.uleb128 0x3b
 5498 024d 0B       		.uleb128 0xb
 5499 024e 49       		.uleb128 0x49
 5500 024f 13       		.uleb128 0x13
 5501 0250 00       		.byte	0x0
 5502 0251 00       		.byte	0x0
ARM GAS  C:\Users\asha\AppData\Local\Temp\ccSrRbz4.s 			page 126


 5503 0252 27       		.uleb128 0x27
 5504 0253 34       		.uleb128 0x34
 5505 0254 00       		.byte	0x0
 5506 0255 03       		.uleb128 0x3
 5507 0256 08       		.uleb128 0x8
 5508 0257 3A       		.uleb128 0x3a
 5509 0258 0B       		.uleb128 0xb
 5510 0259 3B       		.uleb128 0x3b
 5511 025a 0B       		.uleb128 0xb
 5512 025b 49       		.uleb128 0x49
 5513 025c 13       		.uleb128 0x13
 5514 025d 02       		.uleb128 0x2
 5515 025e 06       		.uleb128 0x6
 5516 025f 00       		.byte	0x0
 5517 0260 00       		.byte	0x0
 5518 0261 28       		.uleb128 0x28
 5519 0262 34       		.uleb128 0x34
 5520 0263 00       		.byte	0x0
 5521 0264 03       		.uleb128 0x3
 5522 0265 0E       		.uleb128 0xe
 5523 0266 3A       		.uleb128 0x3a
 5524 0267 0B       		.uleb128 0xb
 5525 0268 3B       		.uleb128 0x3b
 5526 0269 0B       		.uleb128 0xb
 5527 026a 49       		.uleb128 0x49
 5528 026b 13       		.uleb128 0x13
 5529 026c 02       		.uleb128 0x2
 5530 026d 0A       		.uleb128 0xa
 5531 026e 00       		.byte	0x0
 5532 026f 00       		.byte	0x0
 5533 0270 29       		.uleb128 0x29
 5534 0271 01       		.uleb128 0x1
 5535 0272 01       		.byte	0x1
 5536 0273 49       		.uleb128 0x49
 5537 0274 13       		.uleb128 0x13
 5538 0275 01       		.uleb128 0x1
 5539 0276 13       		.uleb128 0x13
 5540 0277 00       		.byte	0x0
 5541 0278 00       		.byte	0x0
 5542 0279 2A       		.uleb128 0x2a
 5543 027a 21       		.uleb128 0x21
 5544 027b 00       		.byte	0x0
 5545 027c 49       		.uleb128 0x49
 5546 027d 13       		.uleb128 0x13
 5547 027e 2F       		.uleb128 0x2f
 5548 027f 0B       		.uleb128 0xb
 5549 0280 00       		.byte	0x0
 5550 0281 00       		.byte	0x0
 5551 0282 2B       		.uleb128 0x2b
 5552 0283 26       		.uleb128 0x26
 5553 0284 00       		.byte	0x0
 5554 0285 49       		.uleb128 0x49
 5555 0286 13       		.uleb128 0x13
 5556 0287 00       		.byte	0x0
 5557 0288 00       		.byte	0x0
 5558 0289 2C       		.uleb128 0x2c
 5559 028a 34       		.uleb128 0x34
ARM GAS  C:\Users\asha\AppData\Local\Temp\ccSrRbz4.s 			page 127


 5560 028b 00       		.byte	0x0
 5561 028c 03       		.uleb128 0x3
 5562 028d 0E       		.uleb128 0xe
 5563 028e 3A       		.uleb128 0x3a
 5564 028f 0B       		.uleb128 0xb
 5565 0290 3B       		.uleb128 0x3b
 5566 0291 0B       		.uleb128 0xb
 5567 0292 49       		.uleb128 0x49
 5568 0293 13       		.uleb128 0x13
 5569 0294 3F       		.uleb128 0x3f
 5570 0295 0C       		.uleb128 0xc
 5571 0296 02       		.uleb128 0x2
 5572 0297 0A       		.uleb128 0xa
 5573 0298 00       		.byte	0x0
 5574 0299 00       		.byte	0x0
 5575 029a 00       		.byte	0x0
 5576              		.section	.debug_pubnames,"",%progbits
 5577 0000 6C040000 		.4byte	0x46c
 5578 0004 0200     		.2byte	0x2
 5579 0006 00000000 		.4byte	.Ldebug_info0
 5580 000a E30C0000 		.4byte	0xce3
 5581 000e 08010000 		.4byte	0x108
 5582 0012 43795379 		.ascii	"CySysClkImoStart\000"
 5582      73436C6B 
 5582      496D6F53 
 5582      74617274 
 5582      00
 5583 0023 1B010000 		.4byte	0x11b
 5584 0027 43795379 		.ascii	"CySysClkImoStop\000"
 5584      73436C6B 
 5584      496D6F53 
 5584      746F7000 
 5585 0037 2E010000 		.4byte	0x12e
 5586 003b 43795379 		.ascii	"CySysClkIloStart\000"
 5586      73436C6B 
 5586      496C6F53 
 5586      74617274 
 5586      00
 5587 004c 3D010000 		.4byte	0x13d
 5588 0050 43795379 		.ascii	"CySysClkIloStop\000"
 5588      73436C6B 
 5588      496C6F53 
 5588      746F7000 
 5589 0060 50010000 		.4byte	0x150
 5590 0064 43795379 		.ascii	"CySysClkWriteHfclkDirect\000"
 5590      73436C6B 
 5590      57726974 
 5590      65486663 
 5590      6C6B4469 
 5591 007d 77010000 		.4byte	0x177
 5592 0081 43795379 		.ascii	"CySysClkWriteSysclkDiv\000"
 5592      73436C6B 
 5592      57726974 
 5592      65537973 
 5592      636C6B44 
 5593 0098 A0010000 		.4byte	0x1a0
 5594 009c 43795379 		.ascii	"CySysWdtReadEnabledStatus\000"
ARM GAS  C:\Users\asha\AppData\Local\Temp\ccSrRbz4.s 			page 128


 5594      73576474 
 5594      52656164 
 5594      456E6162 
 5594      6C656453 
 5595 00b6 D5010000 		.4byte	0x1d5
 5596 00ba 43795379 		.ascii	"CySysWdtWriteMode\000"
 5596      73576474 
 5596      57726974 
 5596      654D6F64 
 5596      6500
 5597 00cc 74020000 		.4byte	0x274
 5598 00d0 43795379 		.ascii	"CySysWdtReadMode\000"
 5598      73576474 
 5598      52656164 
 5598      4D6F6465 
 5598      00
 5599 00e1 A1020000 		.4byte	0x2a1
 5600 00e5 43795379 		.ascii	"CySysWdtWriteClearOnMatch\000"
 5600      73576474 
 5600      57726974 
 5600      65436C65 
 5600      61724F6E 
 5601 00ff 32030000 		.4byte	0x332
 5602 0103 43795379 		.ascii	"CySysWdtReadClearOnMatch\000"
 5602      73576474 
 5602      52656164 
 5602      436C6561 
 5602      724F6E4D 
 5603 011c 77030000 		.4byte	0x377
 5604 0120 43795379 		.ascii	"CySysWdtEnable\000"
 5604      73576474 
 5604      456E6162 
 5604      6C6500
 5605 012f B2030000 		.4byte	0x3b2
 5606 0133 43795379 		.ascii	"CySysWdtDisable\000"
 5606      73576474 
 5606      44697361 
 5606      626C6500 
 5607 0143 EB030000 		.4byte	0x3eb
 5608 0147 43795379 		.ascii	"CySysWdtWriteCascade\000"
 5608      73576474 
 5608      57726974 
 5608      65436173 
 5608      63616465 
 5609 015c 90040000 		.4byte	0x490
 5610 0160 43795379 		.ascii	"CySysWdtReadCascade\000"
 5610      73576474 
 5610      52656164 
 5610      43617363 
 5610      61646500 
 5611 0174 A8040000 		.4byte	0x4a8
 5612 0178 43795379 		.ascii	"CySysWdtWriteToggleBit\000"
 5612      73576474 
 5612      57726974 
 5612      65546F67 
 5612      676C6542 
 5613 018f 0D050000 		.4byte	0x50d
ARM GAS  C:\Users\asha\AppData\Local\Temp\ccSrRbz4.s 			page 129


 5614 0193 43795379 		.ascii	"CySysWdtReadToggleBit\000"
 5614      73576474 
 5614      52656164 
 5614      546F6767 
 5614      6C654269 
 5615 01a9 25050000 		.4byte	0x525
 5616 01ad 43795379 		.ascii	"CySysWdtReadMatch\000"
 5616      73576474 
 5616      52656164 
 5616      4D617463 
 5616      6800
 5617 01bf 6A050000 		.4byte	0x56a
 5618 01c3 43795379 		.ascii	"CySysWdtReadCount\000"
 5618      73576474 
 5618      52656164 
 5618      436F756E 
 5618      7400
 5619 01d5 BF050000 		.4byte	0x5bf
 5620 01d9 43795379 		.ascii	"CySysWdtGetInterruptSource\000"
 5620      73576474 
 5620      47657449 
 5620      6E746572 
 5620      72757074 
 5621 01f4 D7050000 		.4byte	0x5d7
 5622 01f8 43795379 		.ascii	"CySysWdtResetCounters\000"
 5622      73576474 
 5622      52657365 
 5622      74436F75 
 5622      6E746572 
 5623 020e 12060000 		.4byte	0x612
 5624 0212 43795379 		.ascii	"CySysLvdEnable\000"
 5624      734C7664 
 5624      456E6162 
 5624      6C6500
 5625 0221 3B060000 		.4byte	0x63b
 5626 0225 43795379 		.ascii	"CySysLvdDisable\000"
 5626      734C7664 
 5626      44697361 
 5626      626C6500 
 5627 0235 4F060000 		.4byte	0x64f
 5628 0239 43795379 		.ascii	"CySysLvdGetInterruptSource\000"
 5628      734C7664 
 5628      47657449 
 5628      6E746572 
 5628      72757074 
 5629 0254 67060000 		.4byte	0x667
 5630 0258 43795379 		.ascii	"CySysLvdClearInterrupt\000"
 5630      734C7664 
 5630      436C6561 
 5630      72496E74 
 5630      65727275 
 5631 026f 7B060000 		.4byte	0x67b
 5632 0273 43794469 		.ascii	"CyDisableInts\000"
 5632      7361626C 
 5632      65496E74 
 5632      7300
 5633 0281 A8060000 		.4byte	0x6a8
ARM GAS  C:\Users\asha\AppData\Local\Temp\ccSrRbz4.s 			page 130


 5634 0285 4379456E 		.ascii	"CyEnableInts\000"
 5634      61626C65 
 5634      496E7473 
 5634      00
 5635 0292 CF060000 		.4byte	0x6cf
 5636 0296 4379496E 		.ascii	"CyIntSetSysVector\000"
 5636      74536574 
 5636      53797356 
 5636      6563746F 
 5636      7200
 5637 02a8 44070000 		.4byte	0x744
 5638 02ac 4379496E 		.ascii	"CyIntGetSysVector\000"
 5638      74476574 
 5638      53797356 
 5638      6563746F 
 5638      7200
 5639 02be 95070000 		.4byte	0x795
 5640 02c2 4379496E 		.ascii	"CyIntSetVector\000"
 5640      74536574 
 5640      56656374 
 5640      6F7200
 5641 02d1 04080000 		.4byte	0x804
 5642 02d5 4379496E 		.ascii	"CyIntGetVector\000"
 5642      74476574 
 5642      56656374 
 5642      6F7200
 5643 02e4 55080000 		.4byte	0x855
 5644 02e8 4379496E 		.ascii	"CyIntGetPriority\000"
 5644      74476574 
 5644      5072696F 
 5644      72697479 
 5644      00
 5645 02f9 A6080000 		.4byte	0x8a6
 5646 02fd 4379496E 		.ascii	"CyIntEnable\000"
 5646      74456E61 
 5646      626C6500 
 5647 0309 CF080000 		.4byte	0x8cf
 5648 030d 4379496E 		.ascii	"CyIntGetState\000"
 5648      74476574 
 5648      53746174 
 5648      6500
 5649 031b FC080000 		.4byte	0x8fc
 5650 031f 4379496E 		.ascii	"CyIntDisable\000"
 5650      74446973 
 5650      61626C65 
 5650      00
 5651 032c 25090000 		.4byte	0x925
 5652 0330 4379496E 		.ascii	"CyIntSetPending\000"
 5652      74536574 
 5652      50656E64 
 5652      696E6700 
 5653 0340 4E090000 		.4byte	0x94e
 5654 0344 4379496E 		.ascii	"CyIntClearPending\000"
 5654      74436C65 
 5654      61725065 
 5654      6E64696E 
 5654      6700
ARM GAS  C:\Users\asha\AppData\Local\Temp\ccSrRbz4.s 			page 131


 5655 0356 77090000 		.4byte	0x977
 5656 035a 43794861 		.ascii	"CyHalt\000"
 5656      6C7400
 5657 0361 92090000 		.4byte	0x992
 5658 0365 4379536F 		.ascii	"CySoftwareReset\000"
 5658      66747761 
 5658      72655265 
 5658      73657400 
 5659 0375 A6090000 		.4byte	0x9a6
 5660 0379 43794465 		.ascii	"CyDelayFreq\000"
 5660      6C617946 
 5660      72657100 
 5661 0385 D1090000 		.4byte	0x9d1
 5662 0389 43794465 		.ascii	"CyDelayUs\000"
 5662      6C617955 
 5662      7300
 5663 0393 FC090000 		.4byte	0x9fc
 5664 0397 43795379 		.ascii	"CySysWdtWriteMatch\000"
 5664      73576474 
 5664      57726974 
 5664      654D6174 
 5664      636800
 5665 03aa 710A0000 		.4byte	0xa71
 5666 03ae 43794465 		.ascii	"CyDelay\000"
 5666      6C617900 
 5667 03b6 9C0A0000 		.4byte	0xa9c
 5668 03ba 4379496E 		.ascii	"CyIntSetPriority\000"
 5668      74536574 
 5668      5072696F 
 5668      72697479 
 5668      00
 5669 03cb 2F0B0000 		.4byte	0xb2f
 5670 03cf 43795379 		.ascii	"CySysWdtClearInterrupt\000"
 5670      73576474 
 5670      436C6561 
 5670      72496E74 
 5670      65727275 
 5671 03e6 820B0000 		.4byte	0xb82
 5672 03ea 43795379 		.ascii	"CySysWdtUnlock\000"
 5672      73576474 
 5672      556E6C6F 
 5672      636B00
 5673 03f9 B90B0000 		.4byte	0xbb9
 5674 03fd 43795379 		.ascii	"CySysWdtLock\000"
 5674      73576474 
 5674      4C6F636B 
 5674      00
 5675 040a F00B0000 		.4byte	0xbf0
 5676 040e 43795379 		.ascii	"CySysClkWriteImoFreq\000"
 5676      73436C6B 
 5676      57726974 
 5676      65496D6F 
 5676      46726571 
 5677 0423 9A0C0000 		.4byte	0xc9a
 5678 0427 63796465 		.ascii	"cydelayFreqHz\000"
 5678      6C617946 
 5678      72657148 
ARM GAS  C:\Users\asha\AppData\Local\Temp\ccSrRbz4.s 			page 132


 5678      7A00
 5679 0435 AC0C0000 		.4byte	0xcac
 5680 0439 63796465 		.ascii	"cydelayFreqKhz\000"
 5680      6C617946 
 5680      7265714B 
 5680      687A00
 5681 0448 BE0C0000 		.4byte	0xcbe
 5682 044c 63796465 		.ascii	"cydelayFreqMhz\000"
 5682      6C617946 
 5682      7265714D 
 5682      687A00
 5683 045b D00C0000 		.4byte	0xcd0
 5684 045f 63796465 		.ascii	"cydelay32kMs\000"
 5684      6C617933 
 5684      326B4D73 
 5684      00
 5685 046c 00000000 		.4byte	0x0
 5686              		.section	.debug_aranges,"",%progbits
 5687 0000 94010000 		.4byte	0x194
 5688 0004 0200     		.2byte	0x2
 5689 0006 00000000 		.4byte	.Ldebug_info0
 5690 000a 04       		.byte	0x4
 5691 000b 00       		.byte	0x0
 5692 000c 0000     		.2byte	0x0
 5693 000e 0000     		.2byte	0x0
 5694 0010 00000000 		.4byte	.LFB0
 5695 0014 14000000 		.4byte	.LFE0-.LFB0
 5696 0018 00000000 		.4byte	.LFB1
 5697 001c 14000000 		.4byte	.LFE1-.LFB1
 5698 0020 00000000 		.4byte	.LFB2
 5699 0024 14000000 		.4byte	.LFE2-.LFB2
 5700 0028 00000000 		.4byte	.LFB3
 5701 002c 14000000 		.4byte	.LFE3-.LFB3
 5702 0030 00000000 		.4byte	.LFB4
 5703 0034 18000000 		.4byte	.LFE4-.LFB4
 5704 0038 00000000 		.4byte	.LFB5
 5705 003c 20000000 		.4byte	.LFE5-.LFB5
 5706 0040 00000000 		.4byte	.LFB9
 5707 0044 20000000 		.4byte	.LFE9-.LFB9
 5708 0048 00000000 		.4byte	.LFB10
 5709 004c 54000000 		.4byte	.LFE10-.LFB10
 5710 0050 00000000 		.4byte	.LFB11
 5711 0054 14000000 		.4byte	.LFE11-.LFB11
 5712 0058 00000000 		.4byte	.LFB12
 5713 005c 4C000000 		.4byte	.LFE12-.LFB12
 5714 0060 00000000 		.4byte	.LFB13
 5715 0064 20000000 		.4byte	.LFE13-.LFB13
 5716 0068 00000000 		.4byte	.LFB14
 5717 006c 28000000 		.4byte	.LFE14-.LFB14
 5718 0070 00000000 		.4byte	.LFB15
 5719 0074 28000000 		.4byte	.LFE15-.LFB15
 5720 0078 00000000 		.4byte	.LFB16
 5721 007c 48000000 		.4byte	.LFE16-.LFB16
 5722 0080 00000000 		.4byte	.LFB17
 5723 0084 14000000 		.4byte	.LFE17-.LFB17
 5724 0088 00000000 		.4byte	.LFB19
 5725 008c 40000000 		.4byte	.LFE19-.LFB19
ARM GAS  C:\Users\asha\AppData\Local\Temp\ccSrRbz4.s 			page 133


 5726 0090 00000000 		.4byte	.LFB20
 5727 0094 10000000 		.4byte	.LFE20-.LFB20
 5728 0098 00000000 		.4byte	.LFB21
 5729 009c 18000000 		.4byte	.LFE21-.LFB21
 5730 00a0 00000000 		.4byte	.LFB22
 5731 00a4 34000000 		.4byte	.LFE22-.LFB22
 5732 00a8 00000000 		.4byte	.LFB23
 5733 00ac 14000000 		.4byte	.LFE23-.LFB23
 5734 00b0 00000000 		.4byte	.LFB25
 5735 00b4 30000000 		.4byte	.LFE25-.LFB25
 5736 00b8 00000000 		.4byte	.LFB26
 5737 00bc 2C000000 		.4byte	.LFE26-.LFB26
 5738 00c0 00000000 		.4byte	.LFB27
 5739 00c4 1C000000 		.4byte	.LFE27-.LFB27
 5740 00c8 00000000 		.4byte	.LFB28
 5741 00cc 10000000 		.4byte	.LFE28-.LFB28
 5742 00d0 00000000 		.4byte	.LFB29
 5743 00d4 0C000000 		.4byte	.LFE29-.LFB29
 5744 00d8 00000000 		.4byte	.LFB30
 5745 00dc 10000000 		.4byte	.LFE30-.LFB30
 5746 00e0 00000000 		.4byte	.LFB31
 5747 00e4 0C000000 		.4byte	.LFE31-.LFB31
 5748 00e8 00000000 		.4byte	.LFB32
 5749 00ec 16000000 		.4byte	.LFE32-.LFB32
 5750 00f0 00000000 		.4byte	.LFB33
 5751 00f4 14000000 		.4byte	.LFE33-.LFB33
 5752 00f8 00000000 		.4byte	.LFB34
 5753 00fc 18000000 		.4byte	.LFE34-.LFB34
 5754 0100 00000000 		.4byte	.LFB35
 5755 0104 18000000 		.4byte	.LFE35-.LFB35
 5756 0108 00000000 		.4byte	.LFB37
 5757 010c 28000000 		.4byte	.LFE37-.LFB37
 5758 0110 00000000 		.4byte	.LFB38
 5759 0114 14000000 		.4byte	.LFE38-.LFB38
 5760 0118 00000000 		.4byte	.LFB39
 5761 011c 18000000 		.4byte	.LFE39-.LFB39
 5762 0120 00000000 		.4byte	.LFB40
 5763 0124 14000000 		.4byte	.LFE40-.LFB40
 5764 0128 00000000 		.4byte	.LFB41
 5765 012c 14000000 		.4byte	.LFE41-.LFB41
 5766 0130 00000000 		.4byte	.LFB42
 5767 0134 14000000 		.4byte	.LFE42-.LFB42
 5768 0138 00000000 		.4byte	.LFB43
 5769 013c 04000000 		.4byte	.LFE43-.LFB43
 5770 0140 00000000 		.4byte	.LFB44
 5771 0144 18000000 		.4byte	.LFE44-.LFB44
 5772 0148 00000000 		.4byte	.LFB47
 5773 014c 58000000 		.4byte	.LFE47-.LFB47
 5774 0150 00000000 		.4byte	.LFB46
 5775 0154 14000000 		.4byte	.LFE46-.LFB46
 5776 0158 00000000 		.4byte	.LFB18
 5777 015c 48000000 		.4byte	.LFE18-.LFB18
 5778 0160 00000000 		.4byte	.LFB45
 5779 0164 80000000 		.4byte	.LFE45-.LFB45
 5780 0168 00000000 		.4byte	.LFB36
 5781 016c 40000000 		.4byte	.LFE36-.LFB36
 5782 0170 00000000 		.4byte	.LFB24
ARM GAS  C:\Users\asha\AppData\Local\Temp\ccSrRbz4.s 			page 134


 5783 0174 7C000000 		.4byte	.LFE24-.LFB24
 5784 0178 00000000 		.4byte	.LFB8
 5785 017c 48000000 		.4byte	.LFE8-.LFB8
 5786 0180 00000000 		.4byte	.LFB7
 5787 0184 34000000 		.4byte	.LFE7-.LFB7
 5788 0188 00000000 		.4byte	.LFB6
 5789 018c 78010000 		.4byte	.LFE6-.LFB6
 5790 0190 00000000 		.4byte	0x0
 5791 0194 00000000 		.4byte	0x0
 5792              		.section	.debug_ranges,"",%progbits
 5793              	.Ldebug_ranges0:
 5794 0000 1A000000 		.4byte	.LBB92
 5795 0004 22000000 		.4byte	.LBE92
 5796 0008 24000000 		.4byte	.LBB97
 5797 000c 26000000 		.4byte	.LBE97
 5798 0010 00000000 		.4byte	0x0
 5799 0014 00000000 		.4byte	0x0
 5800 0018 00000000 		.4byte	.Ltext0
 5801 001c 00000000 		.4byte	.Letext0
 5802 0020 00000000 		.4byte	.LFB0
 5803 0024 14000000 		.4byte	.LFE0
 5804 0028 00000000 		.4byte	.LFB1
 5805 002c 14000000 		.4byte	.LFE1
 5806 0030 00000000 		.4byte	.LFB2
 5807 0034 14000000 		.4byte	.LFE2
 5808 0038 00000000 		.4byte	.LFB3
 5809 003c 14000000 		.4byte	.LFE3
 5810 0040 00000000 		.4byte	.LFB4
 5811 0044 18000000 		.4byte	.LFE4
 5812 0048 00000000 		.4byte	.LFB5
 5813 004c 20000000 		.4byte	.LFE5
 5814 0050 00000000 		.4byte	.LFB9
 5815 0054 20000000 		.4byte	.LFE9
 5816 0058 00000000 		.4byte	.LFB10
 5817 005c 54000000 		.4byte	.LFE10
 5818 0060 00000000 		.4byte	.LFB11
 5819 0064 14000000 		.4byte	.LFE11
 5820 0068 00000000 		.4byte	.LFB12
 5821 006c 4C000000 		.4byte	.LFE12
 5822 0070 00000000 		.4byte	.LFB13
 5823 0074 20000000 		.4byte	.LFE13
 5824 0078 00000000 		.4byte	.LFB14
 5825 007c 28000000 		.4byte	.LFE14
 5826 0080 00000000 		.4byte	.LFB15
 5827 0084 28000000 		.4byte	.LFE15
 5828 0088 00000000 		.4byte	.LFB16
 5829 008c 48000000 		.4byte	.LFE16
 5830 0090 00000000 		.4byte	.LFB17
 5831 0094 14000000 		.4byte	.LFE17
 5832 0098 00000000 		.4byte	.LFB19
 5833 009c 40000000 		.4byte	.LFE19
 5834 00a0 00000000 		.4byte	.LFB20
 5835 00a4 10000000 		.4byte	.LFE20
 5836 00a8 00000000 		.4byte	.LFB21
 5837 00ac 18000000 		.4byte	.LFE21
 5838 00b0 00000000 		.4byte	.LFB22
 5839 00b4 34000000 		.4byte	.LFE22
ARM GAS  C:\Users\asha\AppData\Local\Temp\ccSrRbz4.s 			page 135


 5840 00b8 00000000 		.4byte	.LFB23
 5841 00bc 14000000 		.4byte	.LFE23
 5842 00c0 00000000 		.4byte	.LFB25
 5843 00c4 30000000 		.4byte	.LFE25
 5844 00c8 00000000 		.4byte	.LFB26
 5845 00cc 2C000000 		.4byte	.LFE26
 5846 00d0 00000000 		.4byte	.LFB27
 5847 00d4 1C000000 		.4byte	.LFE27
 5848 00d8 00000000 		.4byte	.LFB28
 5849 00dc 10000000 		.4byte	.LFE28
 5850 00e0 00000000 		.4byte	.LFB29
 5851 00e4 0C000000 		.4byte	.LFE29
 5852 00e8 00000000 		.4byte	.LFB30
 5853 00ec 10000000 		.4byte	.LFE30
 5854 00f0 00000000 		.4byte	.LFB31
 5855 00f4 0C000000 		.4byte	.LFE31
 5856 00f8 00000000 		.4byte	.LFB32
 5857 00fc 16000000 		.4byte	.LFE32
 5858 0100 00000000 		.4byte	.LFB33
 5859 0104 14000000 		.4byte	.LFE33
 5860 0108 00000000 		.4byte	.LFB34
 5861 010c 18000000 		.4byte	.LFE34
 5862 0110 00000000 		.4byte	.LFB35
 5863 0114 18000000 		.4byte	.LFE35
 5864 0118 00000000 		.4byte	.LFB37
 5865 011c 28000000 		.4byte	.LFE37
 5866 0120 00000000 		.4byte	.LFB38
 5867 0124 14000000 		.4byte	.LFE38
 5868 0128 00000000 		.4byte	.LFB39
 5869 012c 18000000 		.4byte	.LFE39
 5870 0130 00000000 		.4byte	.LFB40
 5871 0134 14000000 		.4byte	.LFE40
 5872 0138 00000000 		.4byte	.LFB41
 5873 013c 14000000 		.4byte	.LFE41
 5874 0140 00000000 		.4byte	.LFB42
 5875 0144 14000000 		.4byte	.LFE42
 5876 0148 00000000 		.4byte	.LFB43
 5877 014c 04000000 		.4byte	.LFE43
 5878 0150 00000000 		.4byte	.LFB44
 5879 0154 18000000 		.4byte	.LFE44
 5880 0158 00000000 		.4byte	.LFB47
 5881 015c 58000000 		.4byte	.LFE47
 5882 0160 00000000 		.4byte	.LFB46
 5883 0164 14000000 		.4byte	.LFE46
 5884 0168 00000000 		.4byte	.LFB18
 5885 016c 48000000 		.4byte	.LFE18
 5886 0170 00000000 		.4byte	.LFB45
 5887 0174 80000000 		.4byte	.LFE45
 5888 0178 00000000 		.4byte	.LFB36
 5889 017c 40000000 		.4byte	.LFE36
 5890 0180 00000000 		.4byte	.LFB24
 5891 0184 7C000000 		.4byte	.LFE24
 5892 0188 00000000 		.4byte	.LFB8
 5893 018c 48000000 		.4byte	.LFE8
 5894 0190 00000000 		.4byte	.LFB7
 5895 0194 34000000 		.4byte	.LFE7
 5896 0198 00000000 		.4byte	.LFB6
ARM GAS  C:\Users\asha\AppData\Local\Temp\ccSrRbz4.s 			page 136


 5897 019c 78010000 		.4byte	.LFE6
 5898 01a0 00000000 		.4byte	0x0
 5899 01a4 00000000 		.4byte	0x0
 5900              		.section	.debug_str,"MS",%progbits,1
 5901              	.LASF25:
 5902 0000 43795379 		.ascii	"CySysWdtWriteMode\000"
 5902      73576474 
 5902      57726974 
 5902      654D6F64 
 5902      6500
 5903              	.LASF90:
 5904 0012 62675472 		.ascii	"bgTrim4\000"
 5904      696D3400 
 5905              	.LASF10:
 5906 001a 75696E74 		.ascii	"uint16\000"
 5906      313600
 5907              	.LASF53:
 5908 0021 696E7453 		.ascii	"intState\000"
 5908      74617465 
 5908      00
 5909              	.LASF84:
 5910 002a 76616C75 		.ascii	"value\000"
 5910      6500
 5911              	.LASF21:
 5912 0030 43795379 		.ascii	"CySysClkWriteHfclkDirect\000"
 5912      73436C6B 
 5912      57726974 
 5912      65486663 
 5912      6C6B4469 
 5913              	.LASF87:
 5914 0049 43795379 		.ascii	"CySysWdtUnlock\000"
 5914      73576474 
 5914      556E6C6F 
 5914      636B00
 5915              	.LASF59:
 5916 0058 6F6C6449 		.ascii	"oldIsr\000"
 5916      737200
 5917              	.LASF17:
 5918 005f 636F756E 		.ascii	"counterNum\000"
 5918      7465724E 
 5918      756D00
 5919              	.LASF52:
 5920 006a 43794469 		.ascii	"CyDisableInts\000"
 5920      7361626C 
 5920      65496E74 
 5920      7300
 5921              	.LASF97:
 5922 0078 63796465 		.ascii	"cydelay32kMs\000"
 5922      6C617933 
 5922      326B4D73 
 5922      00
 5923              	.LASF100:
 5924 0085 433A5C55 		.ascii	"C:\\Users\\asha\\Documents\\PSoC3 training and proj"
 5924      73657273 
 5924      5C617368 
 5924      615C446F 
 5924      63756D65 
ARM GAS  C:\Users\asha\AppData\Local\Temp\ccSrRbz4.s 			page 137


 5925 00b4 65637473 		.ascii	"ects\\Q2-13\\Alfonso_FFT\\Alfonso_FFT.cydsn\000"
 5925      5C51322D 
 5925      31335C41 
 5925      6C666F6E 
 5925      736F5F46 
 5926              	.LASF7:
 5927 00dd 6C6F6E67 		.ascii	"long long unsigned int\000"
 5927      206C6F6E 
 5927      6720756E 
 5927      7369676E 
 5927      65642069 
 5928              	.LASF98:
 5929 00f4 474E5520 		.ascii	"GNU C 4.4.1\000"
 5929      4320342E 
 5929      342E3100 
 5930              	.LASF72:
 5931 0100 4379536F 		.ascii	"CySoftwareReset\000"
 5931      66747761 
 5931      72655265 
 5931      73657400 
 5932              	.LASF68:
 5933 0110 4379496E 		.ascii	"CyIntGetState\000"
 5933      74476574 
 5933      53746174 
 5933      6500
 5934              	.LASF6:
 5935 011e 6C6F6E67 		.ascii	"long long int\000"
 5935      206C6F6E 
 5935      6720696E 
 5935      7400
 5936              	.LASF0:
 5937 012c 7369676E 		.ascii	"signed char\000"
 5937      65642063 
 5937      68617200 
 5938              	.LASF29:
 5939 0138 43795379 		.ascii	"CySysWdtReadMode\000"
 5939      73576474 
 5939      52656164 
 5939      4D6F6465 
 5939      00
 5940              	.LASF42:
 5941 0149 43795379 		.ascii	"CySysWdtReadCount\000"
 5941      73576474 
 5941      52656164 
 5941      436F756E 
 5941      7400
 5942              	.LASF73:
 5943 015b 43794465 		.ascii	"CyDelayFreq\000"
 5943      6C617946 
 5943      72657100 
 5944              	.LASF82:
 5945 0167 696E7465 		.ascii	"interruptState\000"
 5945      72727570 
 5945      74537461 
 5945      746500
 5946              	.LASF75:
 5947 0176 43794465 		.ascii	"CyDelayUs\000"
ARM GAS  C:\Users\asha\AppData\Local\Temp\ccSrRbz4.s 			page 138


 5947      6C617955 
 5947      7300
 5948              	.LASF77:
 5949 0180 43795379 		.ascii	"CySysWdtWriteMatch\000"
 5949      73576474 
 5949      57726974 
 5949      654D6174 
 5949      636800
 5950              	.LASF38:
 5951 0193 62697473 		.ascii	"bits\000"
 5951      00
 5952              	.LASF4:
 5953 0198 6C6F6E67 		.ascii	"long int\000"
 5953      20696E74 
 5953      00
 5954              	.LASF69:
 5955 01a1 4379496E 		.ascii	"CyIntDisable\000"
 5955      74446973 
 5955      61626C65 
 5955      00
 5956              	.LASF9:
 5957 01ae 75696E74 		.ascii	"uint8\000"
 5957      3800
 5958              	.LASF95:
 5959 01b4 63796465 		.ascii	"cydelayFreqKhz\000"
 5959      6C617946 
 5959      7265714B 
 5959      687A00
 5960              	.LASF28:
 5961 01c3 656E6162 		.ascii	"enable\000"
 5961      6C6500
 5962              	.LASF13:
 5963 01ca 646F7562 		.ascii	"double\000"
 5963      6C6500
 5964              	.LASF20:
 5965 01d1 43795379 		.ascii	"CySysClkIloStop\000"
 5965      73436C6B 
 5965      496C6F53 
 5965      746F7000 
 5966              	.LASF34:
 5967 01e1 43795379 		.ascii	"CySysWdtWriteCascade\000"
 5967      73576474 
 5967      57726974 
 5967      65436173 
 5967      63616465 
 5968              	.LASF83:
 5969 01f6 73686966 		.ascii	"shift\000"
 5969      7400
 5970              	.LASF46:
 5971 01fc 636F756E 		.ascii	"countersMask\000"
 5971      74657273 
 5971      4D61736B 
 5971      00
 5972              	.LASF51:
 5973 0209 43795379 		.ascii	"CySysLvdClearInterrupt\000"
 5973      734C7664 
 5973      436C6561 
ARM GAS  C:\Users\asha\AppData\Local\Temp\ccSrRbz4.s 			page 139


 5973      72496E74 
 5973      65727275 
 5974              	.LASF11:
 5975 0220 75696E74 		.ascii	"uint32\000"
 5975      333200
 5976              	.LASF57:
 5977 0227 6E756D62 		.ascii	"number\000"
 5977      657200
 5978              	.LASF55:
 5979 022e 6D61736B 		.ascii	"mask\000"
 5979      00
 5980              	.LASF43:
 5981 0233 72656756 		.ascii	"regValue\000"
 5981      616C7565 
 5981      00
 5982              	.LASF47:
 5983 023c 43795379 		.ascii	"CySysLvdEnable\000"
 5983      734C7664 
 5983      456E6162 
 5983      6C6500
 5984              	.LASF65:
 5985 024b 4379496E 		.ascii	"CyIntGetPriority\000"
 5985      74476574 
 5985      5072696F 
 5985      72697479 
 5985      00
 5986              	.LASF60:
 5987 025c 636F756E 		.ascii	"countersEnableStatus\000"
 5987      74657273 
 5987      456E6162 
 5987      6C655374 
 5987      61747573 
 5988              	.LASF31:
 5989 0271 43795379 		.ascii	"CySysWdtEnable\000"
 5989      73576474 
 5989      456E6162 
 5989      6C6500
 5990              	.LASF32:
 5991 0280 636F756E 		.ascii	"counterMask\000"
 5991      7465724D 
 5991      61736B00 
 5992              	.LASF8:
 5993 028c 756E7369 		.ascii	"unsigned int\000"
 5993      676E6564 
 5993      20696E74 
 5993      00
 5994              	.LASF5:
 5995 0299 6C6F6E67 		.ascii	"long unsigned int\000"
 5995      20756E73 
 5995      69676E65 
 5995      6420696E 
 5995      7400
 5996              	.LASF50:
 5997 02ab 43795379 		.ascii	"CySysLvdGetInterruptSource\000"
 5997      734C7664 
 5997      47657449 
 5997      6E746572 
ARM GAS  C:\Users\asha\AppData\Local\Temp\ccSrRbz4.s 			page 140


 5997      72757074 
 5998              	.LASF19:
 5999 02c6 43795379 		.ascii	"CySysClkImoStop\000"
 5999      73436C6B 
 5999      496D6F53 
 5999      746F7000 
 6000              	.LASF70:
 6001 02d6 4379496E 		.ascii	"CyIntSetPending\000"
 6001      74536574 
 6001      50656E64 
 6001      696E6700 
 6002              	.LASF3:
 6003 02e6 73686F72 		.ascii	"short unsigned int\000"
 6003      7420756E 
 6003      7369676E 
 6003      65642069 
 6003      6E7400
 6004              	.LASF63:
 6005 02f9 4379496E 		.ascii	"CyIntSetVector\000"
 6005      74536574 
 6005      56656374 
 6005      6F7200
 6006              	.LASF99:
 6007 0308 2E5C4765 		.ascii	".\\Generated_Source\\PSoC4\\CyLib.c\000"
 6007      6E657261 
 6007      7465645F 
 6007      536F7572 
 6007      63655C50 
 6008              	.LASF101:
 6009 0329 43795379 		.ascii	"CySysClkIloStart\000"
 6009      73436C6B 
 6009      496C6F53 
 6009      74617274 
 6009      00
 6010              	.LASF54:
 6011 033a 4379456E 		.ascii	"CyEnableInts\000"
 6011      61626C65 
 6011      496E7473 
 6011      00
 6012              	.LASF89:
 6013 0347 43795379 		.ascii	"CySysClkWriteImoFreq\000"
 6013      73436C6B 
 6013      57726974 
 6013      65496D6F 
 6013      46726571 
 6014              	.LASF56:
 6015 035c 4379496E 		.ascii	"CyIntSetSysVector\000"
 6015      74536574 
 6015      53797356 
 6015      6563746F 
 6015      7200
 6016              	.LASF27:
 6017 036e 43795379 		.ascii	"CySysWdtWriteClearOnMatch\000"
 6017      73576474 
 6017      57726974 
 6017      65436C65 
 6017      61724F6E 
ARM GAS  C:\Users\asha\AppData\Local\Temp\ccSrRbz4.s 			page 141


 6018              	.LASF30:
 6019 0388 43795379 		.ascii	"CySysWdtReadClearOnMatch\000"
 6019      73576474 
 6019      52656164 
 6019      436C6561 
 6019      724F6E4D 
 6020              	.LASF94:
 6021 03a1 63796465 		.ascii	"cydelayFreqHz\000"
 6021      6C617946 
 6021      72657148 
 6021      7A00
 6022              	.LASF71:
 6023 03af 4379496E 		.ascii	"CyIntClearPending\000"
 6023      74436C65 
 6023      61725065 
 6023      6E64696E 
 6023      6700
 6024              	.LASF58:
 6025 03c1 61646472 		.ascii	"address\000"
 6025      65737300 
 6026              	.LASF91:
 6027 03c9 62675472 		.ascii	"bgTrim5\000"
 6027      696D3500 
 6028              	.LASF78:
 6029 03d1 6D617463 		.ascii	"match\000"
 6029      6800
 6030              	.LASF93:
 6031 03d7 6379496D 		.ascii	"cyImoFreqMhz2Reg\000"
 6031      6F467265 
 6031      714D687A 
 6031      32526567 
 6031      00
 6032              	.LASF86:
 6033 03e8 7764744C 		.ascii	"wdtLockState\000"
 6033      6F636B53 
 6033      74617465 
 6033      00
 6034              	.LASF45:
 6035 03f5 43795379 		.ascii	"CySysWdtResetCounters\000"
 6035      73576474 
 6035      52657365 
 6035      74436F75 
 6035      6E746572 
 6036              	.LASF81:
 6037 040b 4379496E 		.ascii	"CyIntSetPriority\000"
 6037      74536574 
 6037      5072696F 
 6037      72697479 
 6037      00
 6038              	.LASF85:
 6039 041c 43795379 		.ascii	"CySysWdtClearInterrupt\000"
 6039      73576474 
 6039      436C6561 
 6039      72496E74 
 6039      65727275 
 6040              	.LASF12:
 6041 0433 666C6F61 		.ascii	"float\000"
ARM GAS  C:\Users\asha\AppData\Local\Temp\ccSrRbz4.s 			page 142


 6041      7400
 6042              	.LASF64:
 6043 0439 4379496E 		.ascii	"CyIntGetVector\000"
 6043      74476574 
 6043      56656374 
 6043      6F7200
 6044              	.LASF80:
 6045 0448 6D696C6C 		.ascii	"milliseconds\000"
 6045      69736563 
 6045      6F6E6473 
 6045      00
 6046              	.LASF40:
 6047 0455 43795379 		.ascii	"CySysWdtReadToggleBit\000"
 6047      73576474 
 6047      52656164 
 6047      546F6767 
 6047      6C654269 
 6048              	.LASF48:
 6049 046b 74687265 		.ascii	"threshold\000"
 6049      73686F6C 
 6049      6400
 6050              	.LASF102:
 6051 0475 43794861 		.ascii	"CyHalt\000"
 6051      6C7400
 6052              	.LASF1:
 6053 047c 756E7369 		.ascii	"unsigned char\000"
 6053      676E6564 
 6053      20636861 
 6053      7200
 6054              	.LASF2:
 6055 048a 73686F72 		.ascii	"short int\000"
 6055      7420696E 
 6055      7400
 6056              	.LASF39:
 6057 0494 43795379 		.ascii	"CySysWdtReadCascade\000"
 6057      73576474 
 6057      52656164 
 6057      43617363 
 6057      61646500 
 6058              	.LASF33:
 6059 04a8 43795379 		.ascii	"CySysWdtDisable\000"
 6059      73576474 
 6059      44697361 
 6059      626C6500 
 6060              	.LASF67:
 6061 04b8 4379496E 		.ascii	"CyIntEnable\000"
 6061      74456E61 
 6061      626C6500 
 6062              	.LASF62:
 6063 04c4 4379496E 		.ascii	"CyIntGetSysVector\000"
 6063      74476574 
 6063      53797356 
 6063      6563746F 
 6063      7200
 6064              	.LASF41:
 6065 04d6 43795379 		.ascii	"CySysWdtReadMatch\000"
 6065      73576474 
ARM GAS  C:\Users\asha\AppData\Local\Temp\ccSrRbz4.s 			page 143


 6065      52656164 
 6065      4D617463 
 6065      6800
 6066              	.LASF23:
 6067 04e8 636C6B53 		.ascii	"clkSelect\000"
 6067      656C6563 
 6067      7400
 6068              	.LASF44:
 6069 04f2 43795379 		.ascii	"CySysWdtGetInterruptSource\000"
 6069      73576474 
 6069      47657449 
 6069      6E746572 
 6069      72757074 
 6070              	.LASF16:
 6071 050d 72656173 		.ascii	"reason\000"
 6071      6F6E00
 6072              	.LASF61:
 6073 0514 72616D56 		.ascii	"ramVectorTable\000"
 6073      6563746F 
 6073      72546162 
 6073      6C6500
 6074              	.LASF14:
 6075 0523 63686172 		.ascii	"char\000"
 6075      00
 6076              	.LASF66:
 6077 0528 7072696F 		.ascii	"priority\000"
 6077      72697479 
 6077      00
 6078              	.LASF26:
 6079 0531 6D6F6465 		.ascii	"mode\000"
 6079      00
 6080              	.LASF15:
 6081 0536 63796973 		.ascii	"cyisraddress\000"
 6081      72616464 
 6081      72657373 
 6081      00
 6082              	.LASF88:
 6083 0543 43795379 		.ascii	"CySysWdtLock\000"
 6083      73576474 
 6083      4C6F636B 
 6083      00
 6084              	.LASF92:
 6085 0550 63757272 		.ascii	"currentFreq\000"
 6085      656E7446 
 6085      72657100 
 6086              	.LASF22:
 6087 055c 43795379 		.ascii	"CySysClkWriteSysclkDiv\000"
 6087      73436C6B 
 6087      57726974 
 6087      65537973 
 6087      636C6B44 
 6088              	.LASF79:
 6089 0573 43794465 		.ascii	"CyDelay\000"
 6089      6C617900 
 6090              	.LASF49:
 6091 057b 43795379 		.ascii	"CySysLvdDisable\000"
 6091      734C7664 
ARM GAS  C:\Users\asha\AppData\Local\Temp\ccSrRbz4.s 			page 144


 6091      44697361 
 6091      626C6500 
 6092              	.LASF36:
 6093 058b 636F6E66 		.ascii	"configRegValue\000"
 6093      69675265 
 6093      6756616C 
 6093      756500
 6094              	.LASF96:
 6095 059a 63796465 		.ascii	"cydelayFreqMhz\000"
 6095      6C617946 
 6095      7265714D 
 6095      687A00
 6096              	.LASF74:
 6097 05a9 66726571 		.ascii	"freq\000"
 6097      00
 6098              	.LASF35:
 6099 05ae 63617363 		.ascii	"cascadeMask\000"
 6099      6164654D 
 6099      61736B00 
 6100              	.LASF24:
 6101 05ba 64697669 		.ascii	"divider\000"
 6101      64657200 
 6102              	.LASF18:
 6103 05c2 43795379 		.ascii	"CySysClkImoStart\000"
 6103      73436C6B 
 6103      496D6F53 
 6103      74617274 
 6103      00
 6104              	.LASF103:
 6105 05d3 43795379 		.ascii	"CySysWdtReadEnabledStatus\000"
 6105      73576474 
 6105      52656164 
 6105      456E6162 
 6105      6C656453 
 6106              	.LASF76:
 6107 05ed 6D696372 		.ascii	"microseconds\000"
 6107      6F736563 
 6107      6F6E6473 
 6107      00
 6108              	.LASF37:
 6109 05fa 43795379 		.ascii	"CySysWdtWriteToggleBit\000"
 6109      73576474 
 6109      57726974 
 6109      65546F67 
 6109      676C6542 
 6110              		.ident	"GCC: (Sourcery G++ Lite 2010q1-188) 4.4.1"
