ARM GAS  C:\Users\asha\AppData\Local\Temp\ccSrRbz4.s 			page 1


   1              		.cpu cortex-m0
   2              		.fpu softvfp
   3              		.eabi_attribute 20, 1
   4              		.eabi_attribute 21, 1
   5              		.eabi_attribute 23, 3
   6              		.eabi_attribute 24, 1
   7              		.eabi_attribute 25, 1
   8              		.eabi_attribute 26, 1
   9              		.eabi_attribute 30, 2
  10              		.eabi_attribute 18, 4
  11              		.code	16
  12              		.file	"CyLib.c"
  19 0000 A5050000 		.text
  19      02005E00 
  19      00000201 
  19      FB0E0D00 
  19      01010101 
  20              	.Ltext0:
  21              		.cfi_sections	.debug_frame
  22              		.section	.text.CySysClkImoStart,"ax",%progbits
  23              		.align	2
  24              		.global	CySysClkImoStart
  25              		.code	16
  26              		.thumb_func
  27              		.type	CySysClkImoStart, %function
  28              	CySysClkImoStart:
  29              	.LFB0:
  30              		.file 1 ".\\Generated_Source\\PSoC4\\CyLib.c"
   1:.\Generated_Source\PSoC4/CyLib.c **** /*******************************************************************************
   2:.\Generated_Source\PSoC4/CyLib.c **** * File Name: CyLib.c
   3:.\Generated_Source\PSoC4/CyLib.c **** * Version 3.40
   4:.\Generated_Source\PSoC4/CyLib.c **** *
   5:.\Generated_Source\PSoC4/CyLib.c **** *  Description:
   6:.\Generated_Source\PSoC4/CyLib.c **** *   Provides system API for the clocking, interrupts and watchdog timer.
   7:.\Generated_Source\PSoC4/CyLib.c **** *
   8:.\Generated_Source\PSoC4/CyLib.c **** *  Note:
   9:.\Generated_Source\PSoC4/CyLib.c **** *   Documentation of the API's in this file is located in the
  10:.\Generated_Source\PSoC4/CyLib.c **** *   System Reference Guide provided with PSoC Creator.
  11:.\Generated_Source\PSoC4/CyLib.c **** *
  12:.\Generated_Source\PSoC4/CyLib.c **** ********************************************************************************
  13:.\Generated_Source\PSoC4/CyLib.c **** * Copyright 2010-2013, Cypress Semiconductor Corporation.  All rights reserved.
  14:.\Generated_Source\PSoC4/CyLib.c **** * You may use this file only in accordance with the license, terms, conditions,
  15:.\Generated_Source\PSoC4/CyLib.c **** * disclaimers, and limitations in the end user license agreement accompanying
  16:.\Generated_Source\PSoC4/CyLib.c **** * the software package with which this file was provided.
  17:.\Generated_Source\PSoC4/CyLib.c **** *******************************************************************************/
  18:.\Generated_Source\PSoC4/CyLib.c **** 
  19:.\Generated_Source\PSoC4/CyLib.c **** #include "CyLib.h"
  20:.\Generated_Source\PSoC4/CyLib.c **** 
  21:.\Generated_Source\PSoC4/CyLib.c **** 
  22:.\Generated_Source\PSoC4/CyLib.c **** /* Do not use these definitions directly in your application */
  23:.\Generated_Source\PSoC4/CyLib.c **** uint32 cydelayFreqHz  = CYDEV_BCLK__SYSCLK__HZ;
ARM GAS  C:\Users\asha\AppData\Local\Temp\ccSrRbz4.s 			page 2


  24:.\Generated_Source\PSoC4/CyLib.c **** uint32 cydelayFreqKhz = (CYDEV_BCLK__SYSCLK__HZ + CY_DELAY_1K_MINUS_1_THRESHOLD) / CY_DELAY_1K_THRE
  25:.\Generated_Source\PSoC4/CyLib.c **** uint8  cydelayFreqMhz = (uint8)((CYDEV_BCLK__SYSCLK__HZ + CY_DELAY_1M_MINUS_1_THRESHOLD) / CY_DELAY
  26:.\Generated_Source\PSoC4/CyLib.c **** uint32 cydelay32kMs   = CY_DELAY_MS_OVERFLOW * ((CYDEV_BCLK__SYSCLK__HZ + CY_DELAY_1K_MINUS_1_THRES
  27:.\Generated_Source\PSoC4/CyLib.c ****                         CY_DELAY_1K_THRESHOLD);
  28:.\Generated_Source\PSoC4/CyLib.c **** 
  29:.\Generated_Source\PSoC4/CyLib.c **** 
  30:.\Generated_Source\PSoC4/CyLib.c **** /*******************************************************************************
  31:.\Generated_Source\PSoC4/CyLib.c **** * Function Name: CySysClkImoStart
  32:.\Generated_Source\PSoC4/CyLib.c **** ********************************************************************************
  33:.\Generated_Source\PSoC4/CyLib.c **** *
  34:.\Generated_Source\PSoC4/CyLib.c **** * Summary:
  35:.\Generated_Source\PSoC4/CyLib.c **** *  Enables the IMO.
  36:.\Generated_Source\PSoC4/CyLib.c **** *
  37:.\Generated_Source\PSoC4/CyLib.c **** * Parameters:
  38:.\Generated_Source\PSoC4/CyLib.c **** *  None
  39:.\Generated_Source\PSoC4/CyLib.c **** *
  40:.\Generated_Source\PSoC4/CyLib.c **** * Return:
  41:.\Generated_Source\PSoC4/CyLib.c **** *  None
  42:.\Generated_Source\PSoC4/CyLib.c **** *
  43:.\Generated_Source\PSoC4/CyLib.c **** *******************************************************************************/
  44:.\Generated_Source\PSoC4/CyLib.c **** void CySysClkImoStart(void)
  45:.\Generated_Source\PSoC4/CyLib.c **** {
  31              		.loc 1 45 0
  32              		.cfi_startproc
  46:.\Generated_Source\PSoC4/CyLib.c ****     CY_SYS_CLK_IMO_CONFIG_REG |= CY_SYS_CLK_IMO_CONFIG_ENABLE;
  33              		.loc 1 46 0
  34 0000 034A     		ldr	r2, .L3
  35 0002 8020     		mov	r0, #128
  36 0004 1168     		ldr	r1, [r2]
  37 0006 0306     		lsl	r3, r0, #24
  38 0008 0B43     		orr	r3, r3, r1
  39 000a 1360     		str	r3, [r2]
  47:.\Generated_Source\PSoC4/CyLib.c **** }
  40              		.loc 1 47 0
  41              		@ sp needed for prologue
  42 000c 7047     		bx	lr
  43              	.L4:
  44 000e C046     		.align	2
  45              	.L3:
  46 0010 08010B40 		.word	1074462984
  47              		.cfi_endproc
  48              	.LFE0:
  49              		.size	CySysClkImoStart, .-CySysClkImoStart
  50              		.section	.text.CySysClkImoStop,"ax",%progbits
  51              		.align	2
  52              		.global	CySysClkImoStop
  53              		.code	16
  54              		.thumb_func
  55              		.type	CySysClkImoStop, %function
  56              	CySysClkImoStop:
  57              	.LFB1:
  48:.\Generated_Source\PSoC4/CyLib.c **** 
  49:.\Generated_Source\PSoC4/CyLib.c **** 
  50:.\Generated_Source\PSoC4/CyLib.c **** /*******************************************************************************
  51:.\Generated_Source\PSoC4/CyLib.c **** * Function Name: CySysClkImoStop
  52:.\Generated_Source\PSoC4/CyLib.c **** ********************************************************************************
  53:.\Generated_Source\PSoC4/CyLib.c **** *
ARM GAS  C:\Users\asha\AppData\Local\Temp\ccSrRbz4.s 			page 3


  54:.\Generated_Source\PSoC4/CyLib.c **** * Summary:
  55:.\Generated_Source\PSoC4/CyLib.c **** *  Disables the IMO.
  56:.\Generated_Source\PSoC4/CyLib.c **** *
  57:.\Generated_Source\PSoC4/CyLib.c **** * Parameters:
  58:.\Generated_Source\PSoC4/CyLib.c **** *  None
  59:.\Generated_Source\PSoC4/CyLib.c **** *
  60:.\Generated_Source\PSoC4/CyLib.c **** * Return:
  61:.\Generated_Source\PSoC4/CyLib.c **** *  None
  62:.\Generated_Source\PSoC4/CyLib.c **** *
  63:.\Generated_Source\PSoC4/CyLib.c **** *******************************************************************************/
  64:.\Generated_Source\PSoC4/CyLib.c **** void CySysClkImoStop(void)
  65:.\Generated_Source\PSoC4/CyLib.c **** {
  58              		.loc 1 65 0
  59              		.cfi_startproc
  66:.\Generated_Source\PSoC4/CyLib.c ****     CY_SYS_CLK_IMO_CONFIG_REG &= ( uint32 ) ( ~( uint32 )CY_SYS_CLK_IMO_CONFIG_ENABLE);
  60              		.loc 1 66 0
  61 0000 024B     		ldr	r3, .L7
  62 0002 034A     		ldr	r2, .L7+4
  63 0004 1968     		ldr	r1, [r3]
  67:.\Generated_Source\PSoC4/CyLib.c **** }
  64              		.loc 1 67 0
  65              		@ sp needed for prologue
  66              		.loc 1 66 0
  67 0006 0A40     		and	r2, r2, r1
  68 0008 1A60     		str	r2, [r3]
  69              		.loc 1 67 0
  70 000a 7047     		bx	lr
  71              	.L8:
  72              		.align	2
  73              	.L7:
  74 000c 08010B40 		.word	1074462984
  75 0010 FFFFFF7F 		.word	2147483647
  76              		.cfi_endproc
  77              	.LFE1:
  78              		.size	CySysClkImoStop, .-CySysClkImoStop
  79              		.section	.text.CySysClkIloStart,"ax",%progbits
  80              		.align	2
  81              		.global	CySysClkIloStart
  82              		.code	16
  83              		.thumb_func
  84              		.type	CySysClkIloStart, %function
  85              	CySysClkIloStart:
  86              	.LFB2:
  68:.\Generated_Source\PSoC4/CyLib.c **** 
  69:.\Generated_Source\PSoC4/CyLib.c **** 
  70:.\Generated_Source\PSoC4/CyLib.c **** /*******************************************************************************
  71:.\Generated_Source\PSoC4/CyLib.c **** * Function Name: CySysClkIloStart
  72:.\Generated_Source\PSoC4/CyLib.c **** ********************************************************************************
  73:.\Generated_Source\PSoC4/CyLib.c **** *
  74:.\Generated_Source\PSoC4/CyLib.c **** * Summary:
  75:.\Generated_Source\PSoC4/CyLib.c **** *  Enables the ILO.
  76:.\Generated_Source\PSoC4/CyLib.c **** *
  77:.\Generated_Source\PSoC4/CyLib.c **** * Parameters:
  78:.\Generated_Source\PSoC4/CyLib.c **** *  None
  79:.\Generated_Source\PSoC4/CyLib.c **** *
  80:.\Generated_Source\PSoC4/CyLib.c **** * Return:
  81:.\Generated_Source\PSoC4/CyLib.c **** *  None
ARM GAS  C:\Users\asha\AppData\Local\Temp\ccSrRbz4.s 			page 4


  82:.\Generated_Source\PSoC4/CyLib.c **** *
  83:.\Generated_Source\PSoC4/CyLib.c **** *******************************************************************************/
  84:.\Generated_Source\PSoC4/CyLib.c **** void CySysClkIloStart(void)
  85:.\Generated_Source\PSoC4/CyLib.c **** {
  87              		.loc 1 85 0
  88              		.cfi_startproc
  86:.\Generated_Source\PSoC4/CyLib.c ****     CY_SYS_CLK_ILO_CONFIG_REG |= CY_SYS_CLK_ILO_CONFIG_ENABLE;
  89              		.loc 1 86 0
  90 0000 034A     		ldr	r2, .L11
  91 0002 8020     		mov	r0, #128
  92 0004 1168     		ldr	r1, [r2]
  93 0006 0306     		lsl	r3, r0, #24
  94 0008 0B43     		orr	r3, r3, r1
  95 000a 1360     		str	r3, [r2]
  87:.\Generated_Source\PSoC4/CyLib.c **** }
  96              		.loc 1 87 0
  97              		@ sp needed for prologue
  98 000c 7047     		bx	lr
  99              	.L12:
 100 000e C046     		.align	2
 101              	.L11:
 102 0010 04010B40 		.word	1074462980
 103              		.cfi_endproc
 104              	.LFE2:
 105              		.size	CySysClkIloStart, .-CySysClkIloStart
 106              		.section	.text.CySysClkIloStop,"ax",%progbits
 107              		.align	2
 108              		.global	CySysClkIloStop
 109              		.code	16
 110              		.thumb_func
 111              		.type	CySysClkIloStop, %function
 112              	CySysClkIloStop:
 113              	.LFB3:
  88:.\Generated_Source\PSoC4/CyLib.c **** 
  89:.\Generated_Source\PSoC4/CyLib.c **** 
  90:.\Generated_Source\PSoC4/CyLib.c **** /*******************************************************************************
  91:.\Generated_Source\PSoC4/CyLib.c **** * Function Name: CySysClkIloStop
  92:.\Generated_Source\PSoC4/CyLib.c **** ********************************************************************************
  93:.\Generated_Source\PSoC4/CyLib.c **** *
  94:.\Generated_Source\PSoC4/CyLib.c **** * Summary:
  95:.\Generated_Source\PSoC4/CyLib.c **** *  Disables the ILO.
  96:.\Generated_Source\PSoC4/CyLib.c **** *
  97:.\Generated_Source\PSoC4/CyLib.c **** * Parameters:
  98:.\Generated_Source\PSoC4/CyLib.c **** *  None
  99:.\Generated_Source\PSoC4/CyLib.c **** *
 100:.\Generated_Source\PSoC4/CyLib.c **** * Return:
 101:.\Generated_Source\PSoC4/CyLib.c **** *  None
 102:.\Generated_Source\PSoC4/CyLib.c **** *
 103:.\Generated_Source\PSoC4/CyLib.c **** * Side Effects:
 104:.\Generated_Source\PSoC4/CyLib.c **** *  This function will have no effect if WDT is locked (CySysWdtLock() is
 105:.\Generated_Source\PSoC4/CyLib.c **** *  called). Call CySysWdtUnlock() to unlock WDT and be able to stop ILO.
 106:.\Generated_Source\PSoC4/CyLib.c **** *  Note that ILO is required for WDT's operation.
 107:.\Generated_Source\PSoC4/CyLib.c **** *
 108:.\Generated_Source\PSoC4/CyLib.c **** *******************************************************************************/
 109:.\Generated_Source\PSoC4/CyLib.c **** void CySysClkIloStop(void)
 110:.\Generated_Source\PSoC4/CyLib.c **** {
 114              		.loc 1 110 0
ARM GAS  C:\Users\asha\AppData\Local\Temp\ccSrRbz4.s 			page 5


 115              		.cfi_startproc
 111:.\Generated_Source\PSoC4/CyLib.c ****     CY_SYS_CLK_ILO_CONFIG_REG &= ( uint32 ) ( ~( uint32 )CY_SYS_CLK_ILO_CONFIG_ENABLE);
 116              		.loc 1 111 0
 117 0000 024B     		ldr	r3, .L15
 118 0002 034A     		ldr	r2, .L15+4
 119 0004 1968     		ldr	r1, [r3]
 112:.\Generated_Source\PSoC4/CyLib.c **** }
 120              		.loc 1 112 0
 121              		@ sp needed for prologue
 122              		.loc 1 111 0
 123 0006 0A40     		and	r2, r2, r1
 124 0008 1A60     		str	r2, [r3]
 125              		.loc 1 112 0
 126 000a 7047     		bx	lr
 127              	.L16:
 128              		.align	2
 129              	.L15:
 130 000c 04010B40 		.word	1074462980
 131 0010 FFFFFF7F 		.word	2147483647
 132              		.cfi_endproc
 133              	.LFE3:
 134              		.size	CySysClkIloStop, .-CySysClkIloStop
 135              		.section	.text.CySysClkWriteHfclkDirect,"ax",%progbits
 136              		.align	2
 137              		.global	CySysClkWriteHfclkDirect
 138              		.code	16
 139              		.thumb_func
 140              		.type	CySysClkWriteHfclkDirect, %function
 141              	CySysClkWriteHfclkDirect:
 142              	.LFB4:
 113:.\Generated_Source\PSoC4/CyLib.c **** 
 114:.\Generated_Source\PSoC4/CyLib.c **** 
 115:.\Generated_Source\PSoC4/CyLib.c **** /*******************************************************************************
 116:.\Generated_Source\PSoC4/CyLib.c **** * Function Name: CySysClkWriteHfclkDirect
 117:.\Generated_Source\PSoC4/CyLib.c **** ********************************************************************************
 118:.\Generated_Source\PSoC4/CyLib.c **** *
 119:.\Generated_Source\PSoC4/CyLib.c **** * Summary:
 120:.\Generated_Source\PSoC4/CyLib.c **** *  Selects the direct source for the HFCLK.
 121:.\Generated_Source\PSoC4/CyLib.c **** *
 122:.\Generated_Source\PSoC4/CyLib.c **** * Parameters:
 123:.\Generated_Source\PSoC4/CyLib.c **** *  clkSelect: One of the available HFCLK direct sources:
 124:.\Generated_Source\PSoC4/CyLib.c **** *   Value        Define                    Source
 125:.\Generated_Source\PSoC4/CyLib.c **** *    0            CY_SYS_CLK_HFCLK_IMO      IMO
 126:.\Generated_Source\PSoC4/CyLib.c **** *    1            CY_SYS_CLK_HFCLK_EXTCLK   External clock pin
 127:.\Generated_Source\PSoC4/CyLib.c **** *
 128:.\Generated_Source\PSoC4/CyLib.c **** * Return:
 129:.\Generated_Source\PSoC4/CyLib.c **** *  None
 130:.\Generated_Source\PSoC4/CyLib.c **** *
 131:.\Generated_Source\PSoC4/CyLib.c **** * Side Effects:
 132:.\Generated_Source\PSoC4/CyLib.c **** *  The new source must be running and stable before calling this function.
 133:.\Generated_Source\PSoC4/CyLib.c **** *  Direct source is default option for HFCLK.
 134:.\Generated_Source\PSoC4/CyLib.c **** *
 135:.\Generated_Source\PSoC4/CyLib.c **** *  If the SYSCLK clock frequency increases during device operation, call
 136:.\Generated_Source\PSoC4/CyLib.c **** *  CySysFlashSetWaitCycles() with the appropriate parameter to adjust the number
 137:.\Generated_Source\PSoC4/CyLib.c **** *  of clock cycles cache will wait before sampling data coming back from Flash.
 138:.\Generated_Source\PSoC4/CyLib.c **** *  If the SYSCLK clock frequency decreases, you can call CyFlash_SetWaitCycles()
 139:.\Generated_Source\PSoC4/CyLib.c **** *  to improve CPU performance. See CySysFlashSetWaitCycles() for more
ARM GAS  C:\Users\asha\AppData\Local\Temp\ccSrRbz4.s 			page 6


 140:.\Generated_Source\PSoC4/CyLib.c **** *  information.
 141:.\Generated_Source\PSoC4/CyLib.c **** *
 142:.\Generated_Source\PSoC4/CyLib.c **** *******************************************************************************/
 143:.\Generated_Source\PSoC4/CyLib.c **** void CySysClkWriteHfclkDirect(uint32 clkSelect)
 144:.\Generated_Source\PSoC4/CyLib.c **** {
 143              		.loc 1 144 0
 144              		.cfi_startproc
 145              	.LVL0:
 145:.\Generated_Source\PSoC4/CyLib.c ****     CY_SYS_CLK_SELECT_REG = ((CY_SYS_CLK_SELECT_REG & (( uint32 ) ~(( uint32 )CY_SYS_CLK_SELECT_DIR
 146              		.loc 1 145 0
 147 0000 044B     		ldr	r3, .L19
 148 0002 0121     		mov	r1, #1
 149 0004 1A68     		ldr	r2, [r3]
 150 0006 0840     		and	r0, r0, r1
 151              	.LVL1:
 152 0008 0721     		mov	r1, #7
 153 000a 8A43     		bic	r2, r2, r1
 154 000c 1043     		orr	r0, r0, r2
 155 000e 1860     		str	r0, [r3]
 146:.\Generated_Source\PSoC4/CyLib.c ****                         (( uint32 ) ( ( uint32 )clkSelect & ( uint32 )CY_SYS_CLK_SELECT_DIRECT_SEL_
 147:.\Generated_Source\PSoC4/CyLib.c **** }
 156              		.loc 1 147 0
 157              		@ sp needed for prologue
 158 0010 7047     		bx	lr
 159              	.L20:
 160 0012 C046     		.align	2
 161              	.L19:
 162 0014 00010B40 		.word	1074462976
 163              		.cfi_endproc
 164              	.LFE4:
 165              		.size	CySysClkWriteHfclkDirect, .-CySysClkWriteHfclkDirect
 166              		.section	.text.CySysClkWriteSysclkDiv,"ax",%progbits
 167              		.align	2
 168              		.global	CySysClkWriteSysclkDiv
 169              		.code	16
 170              		.thumb_func
 171              		.type	CySysClkWriteSysclkDiv, %function
 172              	CySysClkWriteSysclkDiv:
 173              	.LFB5:
 148:.\Generated_Source\PSoC4/CyLib.c **** 
 149:.\Generated_Source\PSoC4/CyLib.c **** 
 150:.\Generated_Source\PSoC4/CyLib.c **** /*******************************************************************************
 151:.\Generated_Source\PSoC4/CyLib.c **** * Function Name: CySysClkWriteSysclkDiv
 152:.\Generated_Source\PSoC4/CyLib.c **** ********************************************************************************
 153:.\Generated_Source\PSoC4/CyLib.c **** *
 154:.\Generated_Source\PSoC4/CyLib.c **** * Summary:
 155:.\Generated_Source\PSoC4/CyLib.c **** *  Selects SYSCLK from HFCLK pre-scaler value.
 156:.\Generated_Source\PSoC4/CyLib.c **** *
 157:.\Generated_Source\PSoC4/CyLib.c **** * Parameters:
 158:.\Generated_Source\PSoC4/CyLib.c **** *  divider: Power of 2 prescaler selection
 159:.\Generated_Source\PSoC4/CyLib.c **** *
 160:.\Generated_Source\PSoC4/CyLib.c **** *   Value    Define                        Description
 161:.\Generated_Source\PSoC4/CyLib.c **** *   0        CY_SYS_CLK_SYSCLK_DIV1        SYSCLK = HFCLK / 1
 162:.\Generated_Source\PSoC4/CyLib.c **** *   1        CY_SYS_CLK_SYSCLK_DIV2        SYSCLK = HFCLK / 2
 163:.\Generated_Source\PSoC4/CyLib.c **** *   2        CY_SYS_CLK_SYSCLK_DIV4        SYSCLK = HFCLK / 4
 164:.\Generated_Source\PSoC4/CyLib.c **** *   3        CY_SYS_CLK_SYSCLK_DIV8        SYSCLK = HFCLK / 8
 165:.\Generated_Source\PSoC4/CyLib.c **** *   4        CY_SYS_CLK_SYSCLK_DIV16       SYSCLK = HFCLK / 16
ARM GAS  C:\Users\asha\AppData\Local\Temp\ccSrRbz4.s 			page 7


 166:.\Generated_Source\PSoC4/CyLib.c **** *   5        CY_SYS_CLK_SYSCLK_DIV32       SYSCLK = HFCLK / 32
 167:.\Generated_Source\PSoC4/CyLib.c **** *   6        CY_SYS_CLK_SYSCLK_DIV64       SYSCLK = HFCLK / 64
 168:.\Generated_Source\PSoC4/CyLib.c **** *   7        CY_SYS_CLK_SYSCLK_DIV128      SYSCLK = HFCLK / 128
 169:.\Generated_Source\PSoC4/CyLib.c **** *
 170:.\Generated_Source\PSoC4/CyLib.c **** * Return:
 171:.\Generated_Source\PSoC4/CyLib.c **** *  None
 172:.\Generated_Source\PSoC4/CyLib.c **** *
 173:.\Generated_Source\PSoC4/CyLib.c **** * Side Effects:
 174:.\Generated_Source\PSoC4/CyLib.c **** *  If the SYSCLK clock frequency increases during device operation, call
 175:.\Generated_Source\PSoC4/CyLib.c **** *  CySysFlashSetWaitCycles() with the appropriate parameter to adjust the number
 176:.\Generated_Source\PSoC4/CyLib.c **** *  of clock cycles cache will wait before sampling data coming back from Flash.
 177:.\Generated_Source\PSoC4/CyLib.c **** *  If the SYSCLK clock frequency decreases, you can call CyFlash_SetWaitCycles()
 178:.\Generated_Source\PSoC4/CyLib.c **** *  to improve CPU performance. See CySysFlashSetWaitCycles() for more
 179:.\Generated_Source\PSoC4/CyLib.c **** *  information.
 180:.\Generated_Source\PSoC4/CyLib.c **** *
 181:.\Generated_Source\PSoC4/CyLib.c **** *******************************************************************************/
 182:.\Generated_Source\PSoC4/CyLib.c **** void CySysClkWriteSysclkDiv(uint32 divider)
 183:.\Generated_Source\PSoC4/CyLib.c **** {
 174              		.loc 1 183 0
 175              		.cfi_startproc
 176 0000 10B5     		push	{r4, lr}
 177              	.LCFI0:
 178              		.cfi_def_cfa_offset 8
 179              		.cfi_offset 4, -8
 180              		.cfi_offset 14, -4
 181              	.LVL2:
 184:.\Generated_Source\PSoC4/CyLib.c ****     CY_SYS_CLK_SELECT_REG = ((uint32)(((uint32)divider & CY_SYS_CLK_SELECT_SYSCLK_DIV_MASK) <<
 185:.\Generated_Source\PSoC4/CyLib.c ****                                     CY_SYS_CLK_SELECT_SYSCLK_DIV_SHIFT)) |
 186:.\Generated_Source\PSoC4/CyLib.c ****                             (CY_SYS_CLK_SELECT_REG & ((uint32)(~(uint32)(CY_SYS_CLK_SELECT_SYSCLK_D
 182              		.loc 1 186 0
 183 0002 054B     		ldr	r3, .L23
 184              		.loc 1 184 0
 185 0004 0722     		mov	r2, #7
 186              		.loc 1 186 0
 187 0006 1C68     		ldr	r4, [r3]
 188              		.loc 1 184 0
 189 0008 1040     		and	r0, r0, r2
 190              	.LVL3:
 191 000a 0449     		ldr	r1, .L23+4
 192 000c C204     		lsl	r2, r0, #19
 193 000e 201C     		mov	r0, r4
 194 0010 0840     		and	r0, r0, r1
 195 0012 1043     		orr	r0, r0, r2
 196 0014 1860     		str	r0, [r3]
 187:.\Generated_Source\PSoC4/CyLib.c ****                                     CY_SYS_CLK_SELECT_SYSCLK_DIV_SHIFT))));
 188:.\Generated_Source\PSoC4/CyLib.c **** }
 197              		.loc 1 188 0
 198              		@ sp needed for prologue
 199 0016 10BD     		pop	{r4, pc}
 200              	.L24:
 201              		.align	2
 202              	.L23:
 203 0018 00010B40 		.word	1074462976
 204 001c FFFFC7FF 		.word	-3670017
 205              		.cfi_endproc
 206              	.LFE5:
 207              		.size	CySysClkWriteSysclkDiv, .-CySysClkWriteSysclkDiv
ARM GAS  C:\Users\asha\AppData\Local\Temp\ccSrRbz4.s 			page 8


 208              		.section	.text.CySysWdtReadEnabledStatus,"ax",%progbits
 209              		.align	2
 210              		.global	CySysWdtReadEnabledStatus
 211              		.code	16
 212              		.thumb_func
 213              		.type	CySysWdtReadEnabledStatus, %function
 214              	CySysWdtReadEnabledStatus:
 215              	.LFB9:
 189:.\Generated_Source\PSoC4/CyLib.c **** 
 190:.\Generated_Source\PSoC4/CyLib.c **** 
 191:.\Generated_Source\PSoC4/CyLib.c **** /*******************************************************************************
 192:.\Generated_Source\PSoC4/CyLib.c **** * Function Name: CySysClkWriteImoFreq
 193:.\Generated_Source\PSoC4/CyLib.c **** ********************************************************************************
 194:.\Generated_Source\PSoC4/CyLib.c **** *
 195:.\Generated_Source\PSoC4/CyLib.c **** * Summary:
 196:.\Generated_Source\PSoC4/CyLib.c **** *  Sets the frequency of the IMO.
 197:.\Generated_Source\PSoC4/CyLib.c **** *
 198:.\Generated_Source\PSoC4/CyLib.c **** * Parameters:
 199:.\Generated_Source\PSoC4/CyLib.c **** *  freq: Valid range [3-48].  Frequency for operation of the IMO.
 200:.\Generated_Source\PSoC4/CyLib.c **** *  Note: Invalid frequency will be ignored.
 201:.\Generated_Source\PSoC4/CyLib.c **** *
 202:.\Generated_Source\PSoC4/CyLib.c **** * Return:
 203:.\Generated_Source\PSoC4/CyLib.c **** *  None
 204:.\Generated_Source\PSoC4/CyLib.c **** *
 205:.\Generated_Source\PSoC4/CyLib.c **** * Side Effects:
 206:.\Generated_Source\PSoC4/CyLib.c **** *  If the SYSCLK clock frequency increases during device operation, call
 207:.\Generated_Source\PSoC4/CyLib.c **** *  CySysFlashSetWaitCycles() with the appropriate parameter to adjust the number
 208:.\Generated_Source\PSoC4/CyLib.c **** *  of clock cycles cache will wait before sampling data coming back from Flash.
 209:.\Generated_Source\PSoC4/CyLib.c **** *  If the SYSCLK clock frequency decreases, you can call CyFlash_SetWaitCycles()
 210:.\Generated_Source\PSoC4/CyLib.c **** *  to improve CPU performance. See CySysFlashSetWaitCycles() for more
 211:.\Generated_Source\PSoC4/CyLib.c **** *  information.
 212:.\Generated_Source\PSoC4/CyLib.c **** *
 213:.\Generated_Source\PSoC4/CyLib.c **** *******************************************************************************/
 214:.\Generated_Source\PSoC4/CyLib.c **** void CySysClkWriteImoFreq(uint32 freq)
 215:.\Generated_Source\PSoC4/CyLib.c **** {
 216:.\Generated_Source\PSoC4/CyLib.c ****     uint8  bgTrim4;
 217:.\Generated_Source\PSoC4/CyLib.c ****     uint8  bgTrim5;
 218:.\Generated_Source\PSoC4/CyLib.c ****     uint32 currentFreq = CY_SYS_CLK_IMO_MAX_FREQ_MHZ;
 219:.\Generated_Source\PSoC4/CyLib.c ****     uint8  interruptState;
 220:.\Generated_Source\PSoC4/CyLib.c ****     uint32 i;
 221:.\Generated_Source\PSoC4/CyLib.c **** 
 222:.\Generated_Source\PSoC4/CyLib.c ****     /* Convertion between CySysClkWriteImoFreq() parameter and register's value */
 223:.\Generated_Source\PSoC4/CyLib.c ****     static const uint8 cyImoFreqMhz2Reg[CY_SYS_CLK_IMO_FREQ_TABLE_SIZE] = {
 224:.\Generated_Source\PSoC4/CyLib.c ****         /*  3 MHz */ 0x03u,  /*  4 MHz */ 0x04u,  /*  5 MHz */ 0x05u,  /*  6 MHz */ 0x06u,
 225:.\Generated_Source\PSoC4/CyLib.c ****         /*  7 MHz */ 0x07u,  /*  8 MHz */ 0x08u,  /*  9 MHz */ 0x09u,  /* 10 MHz */ 0x0Au,
 226:.\Generated_Source\PSoC4/CyLib.c ****         /* 11 MHz */ 0x0Bu,  /* 12 MHz */ 0x0Cu,  /* 13 MHz */ 0x0Eu,  /* 14 MHz */ 0x0Fu,
 227:.\Generated_Source\PSoC4/CyLib.c ****         /* 15 MHz */ 0x10u,  /* 16 MHz */ 0x11u,  /* 17 MHz */ 0x12u,  /* 18 MHz */ 0x13u,
 228:.\Generated_Source\PSoC4/CyLib.c ****         /* 19 MHz */ 0x14u,  /* 20 MHz */ 0x15u,  /* 21 MHz */ 0x16u,  /* 22 MHz */ 0x17u,
 229:.\Generated_Source\PSoC4/CyLib.c ****         /* 23 MHz */ 0x18u,  /* 24 MHz */ 0x19u,  /* 25 MHz */ 0x1Bu,  /* 26 MHz */ 0x1Cu,
 230:.\Generated_Source\PSoC4/CyLib.c ****         /* 27 MHz */ 0x1Du,  /* 28 MHz */ 0x1Eu,  /* 29 MHz */ 0x1Fu,  /* 30 MHz */ 0x20u,
 231:.\Generated_Source\PSoC4/CyLib.c ****         /* 31 MHz */ 0x21u,  /* 32 MHz */ 0x22u,  /* 33 MHz */ 0x23u,  /* 34 MHz */ 0x25u,
 232:.\Generated_Source\PSoC4/CyLib.c ****         /* 35 MHz */ 0x26u,  /* 36 MHz */ 0x27u,  /* 37 MHz */ 0x28u,  /* 38 MHz */ 0x29u,
 233:.\Generated_Source\PSoC4/CyLib.c ****         /* 39 MHz */ 0x2Au,  /* 40 MHz */ 0x2Bu,  /* 41 MHz */ 0x2Eu,  /* 42 MHz */ 0x2Fu,
 234:.\Generated_Source\PSoC4/CyLib.c ****         /* 43 MHz */ 0x30u,  /* 44 MHz */ 0x31u,  /* 45 MHz */ 0x32u,  /* 46 MHz */ 0x33u,
 235:.\Generated_Source\PSoC4/CyLib.c ****         /* 47 MHz */ 0x34u,  /* 48 MHz */ 0x35u };
 236:.\Generated_Source\PSoC4/CyLib.c **** 
 237:.\Generated_Source\PSoC4/CyLib.c **** 
ARM GAS  C:\Users\asha\AppData\Local\Temp\ccSrRbz4.s 			page 9


 238:.\Generated_Source\PSoC4/CyLib.c ****     if ((freq >= CY_SYS_CLK_IMO_MIN_FREQ_MHZ) && (freq <= CY_SYS_CLK_IMO_MAX_FREQ_MHZ))
 239:.\Generated_Source\PSoC4/CyLib.c ****     {
 240:.\Generated_Source\PSoC4/CyLib.c ****         interruptState = CyEnterCriticalSection();
 241:.\Generated_Source\PSoC4/CyLib.c **** 
 242:.\Generated_Source\PSoC4/CyLib.c ****         /* Get current IMO frequency */
 243:.\Generated_Source\PSoC4/CyLib.c ****         for (i = 0u; i < CY_SYS_CLK_IMO_FREQ_TABLE_SIZE; i++)
 244:.\Generated_Source\PSoC4/CyLib.c ****         {
 245:.\Generated_Source\PSoC4/CyLib.c ****             if (cyImoFreqMhz2Reg[i] == (CY_SYS_CLK_IMO_TRIM2_REG & CY_SYS_CLK_IMO_FREQ_BITS_MASK))
 246:.\Generated_Source\PSoC4/CyLib.c ****             {
 247:.\Generated_Source\PSoC4/CyLib.c ****                 currentFreq = i + CY_SYS_CLK_IMO_FREQ_TABLE_OFFSET;
 248:.\Generated_Source\PSoC4/CyLib.c ****                 break;
 249:.\Generated_Source\PSoC4/CyLib.c ****             }
 250:.\Generated_Source\PSoC4/CyLib.c ****         }
 251:.\Generated_Source\PSoC4/CyLib.c **** 
 252:.\Generated_Source\PSoC4/CyLib.c ****         if(freq <= CY_SFLASH_IMO_MAXF0_REG)
 253:.\Generated_Source\PSoC4/CyLib.c ****         {
 254:.\Generated_Source\PSoC4/CyLib.c ****             bgTrim4 = CY_SFLASH_IMO_ABS0_REG;
 255:.\Generated_Source\PSoC4/CyLib.c ****             bgTrim5 = CY_SFLASH_IMO_TMPCO0_REG;
 256:.\Generated_Source\PSoC4/CyLib.c ****         }
 257:.\Generated_Source\PSoC4/CyLib.c ****         else if(freq <= CY_SFLASH_IMO_MAXF1_REG)
 258:.\Generated_Source\PSoC4/CyLib.c ****         {
 259:.\Generated_Source\PSoC4/CyLib.c ****             bgTrim4 = CY_SFLASH_IMO_ABS1_REG;
 260:.\Generated_Source\PSoC4/CyLib.c ****             bgTrim5 = CY_SFLASH_IMO_TMPCO1_REG;
 261:.\Generated_Source\PSoC4/CyLib.c ****         }
 262:.\Generated_Source\PSoC4/CyLib.c ****         else if(freq <= CY_SFLASH_IMO_MAXF2_REG)
 263:.\Generated_Source\PSoC4/CyLib.c ****         {
 264:.\Generated_Source\PSoC4/CyLib.c ****             bgTrim4 = CY_SFLASH_IMO_ABS2_REG;
 265:.\Generated_Source\PSoC4/CyLib.c ****             bgTrim5 = CY_SFLASH_IMO_TMPCO2_REG;
 266:.\Generated_Source\PSoC4/CyLib.c ****         }
 267:.\Generated_Source\PSoC4/CyLib.c ****         else if(freq <= CY_SFLASH_IMO_MAXF3_REG)
 268:.\Generated_Source\PSoC4/CyLib.c ****         {
 269:.\Generated_Source\PSoC4/CyLib.c ****             bgTrim4 = CY_SFLASH_IMO_ABS3_REG;
 270:.\Generated_Source\PSoC4/CyLib.c ****             bgTrim5 = CY_SFLASH_IMO_TMPCO3_REG;
 271:.\Generated_Source\PSoC4/CyLib.c ****         }
 272:.\Generated_Source\PSoC4/CyLib.c ****         else
 273:.\Generated_Source\PSoC4/CyLib.c ****         {
 274:.\Generated_Source\PSoC4/CyLib.c ****             bgTrim4 = CY_SFLASH_IMO_ABS4_REG;
 275:.\Generated_Source\PSoC4/CyLib.c ****             bgTrim5 = CY_SFLASH_IMO_TMPCO4_REG;
 276:.\Generated_Source\PSoC4/CyLib.c ****         }
 277:.\Generated_Source\PSoC4/CyLib.c **** 
 278:.\Generated_Source\PSoC4/CyLib.c **** 
 279:.\Generated_Source\PSoC4/CyLib.c ****         /***************************************************************************
 280:.\Generated_Source\PSoC4/CyLib.c ****         * The IMO can have a different trim per frequency. To avoid possible corner
 281:.\Generated_Source\PSoC4/CyLib.c ****         * cases where a trim change can exceed the maximum frequency, the trim must
 282:.\Generated_Source\PSoC4/CyLib.c ****         * be applied at a frequency that is low enough.
 283:.\Generated_Source\PSoC4/CyLib.c ****         ***************************************************************************/
 284:.\Generated_Source\PSoC4/CyLib.c ****         if ((currentFreq >= CY_SYS_CLK_IMO_BOUNDARY_FREQ_MHZ) && (freq >= CY_SYS_CLK_IMO_BOUNDARY_F
 285:.\Generated_Source\PSoC4/CyLib.c ****         {
 286:.\Generated_Source\PSoC4/CyLib.c ****             /* Set boundary IMO frequency: safe for IMO above 48 MHZ trimming */
 287:.\Generated_Source\PSoC4/CyLib.c ****             CY_SYS_CLK_IMO_TRIM2_REG = (uint32) cyImoFreqMhz2Reg[CY_SYS_CLK_IMO_TEMP_FREQ_MHZ -
 288:.\Generated_Source\PSoC4/CyLib.c ****                                                                  CY_SYS_CLK_IMO_FREQ_TABLE_OFFSET];
 289:.\Generated_Source\PSoC4/CyLib.c **** 
 290:.\Generated_Source\PSoC4/CyLib.c ****             CyDelayCycles(CY_SYS_CLK_IMO_FREQ_TIMEOUT_CYCLES);
 291:.\Generated_Source\PSoC4/CyLib.c **** 
 292:.\Generated_Source\PSoC4/CyLib.c ****             currentFreq = CY_SYS_CLK_IMO_TEMP_FREQ_MHZ;
 293:.\Generated_Source\PSoC4/CyLib.c ****         }
 294:.\Generated_Source\PSoC4/CyLib.c **** 
ARM GAS  C:\Users\asha\AppData\Local\Temp\ccSrRbz4.s 			page 10


 295:.\Generated_Source\PSoC4/CyLib.c **** 
 296:.\Generated_Source\PSoC4/CyLib.c ****         /***************************************************************************
 297:.\Generated_Source\PSoC4/CyLib.c ****         * Trim change need to allowed to settle (within 5us) before the Freq can be
 298:.\Generated_Source\PSoC4/CyLib.c ****         * changed to the new frequency.
 299:.\Generated_Source\PSoC4/CyLib.c ****         ***************************************************************************/
 300:.\Generated_Source\PSoC4/CyLib.c ****         if (freq > currentFreq)
 301:.\Generated_Source\PSoC4/CyLib.c ****         {
 302:.\Generated_Source\PSoC4/CyLib.c ****             /* Set trims for the new IMO frequency */
 303:.\Generated_Source\PSoC4/CyLib.c ****             CY_SYS_CLK_IMO_TRIM1_REG = (uint32) CY_SFLASH_IMO_TRIM_REG(freq - CY_SYS_CLK_IMO_FREQ_T
 304:.\Generated_Source\PSoC4/CyLib.c ****             CY_PWR_BG_TRIM4_REG  = bgTrim4;
 305:.\Generated_Source\PSoC4/CyLib.c ****             CY_PWR_BG_TRIM5_REG  = bgTrim5;
 306:.\Generated_Source\PSoC4/CyLib.c ****             CyDelayUs(CY_SYS_CLK_IMO_TRIM_TIMEOUT_US);
 307:.\Generated_Source\PSoC4/CyLib.c **** 
 308:.\Generated_Source\PSoC4/CyLib.c ****             /* Set new IMO frequency */
 309:.\Generated_Source\PSoC4/CyLib.c ****             CY_SYS_CLK_IMO_TRIM2_REG = cyImoFreqMhz2Reg[freq - CY_SYS_CLK_IMO_FREQ_TABLE_OFFSET];
 310:.\Generated_Source\PSoC4/CyLib.c ****             CyDelayCycles(CY_SYS_CLK_IMO_FREQ_TIMEOUT_CYCLES);
 311:.\Generated_Source\PSoC4/CyLib.c ****         }
 312:.\Generated_Source\PSoC4/CyLib.c ****         else
 313:.\Generated_Source\PSoC4/CyLib.c ****         {
 314:.\Generated_Source\PSoC4/CyLib.c ****             /* Set new IMO frequency */
 315:.\Generated_Source\PSoC4/CyLib.c ****             CY_SYS_CLK_IMO_TRIM2_REG = cyImoFreqMhz2Reg[freq - CY_SYS_CLK_IMO_FREQ_TABLE_OFFSET];
 316:.\Generated_Source\PSoC4/CyLib.c ****             CyDelayCycles(CY_SYS_CLK_IMO_FREQ_TIMEOUT_CYCLES);
 317:.\Generated_Source\PSoC4/CyLib.c **** 
 318:.\Generated_Source\PSoC4/CyLib.c ****             /* Set trims for the new IMO frequency */
 319:.\Generated_Source\PSoC4/CyLib.c ****             CY_SYS_CLK_IMO_TRIM1_REG = CY_SFLASH_IMO_TRIM_REG(freq - CY_SYS_CLK_IMO_FREQ_TABLE_OFFS
 320:.\Generated_Source\PSoC4/CyLib.c ****             CY_PWR_BG_TRIM4_REG  = bgTrim4;
 321:.\Generated_Source\PSoC4/CyLib.c ****             CY_PWR_BG_TRIM5_REG  = bgTrim5;
 322:.\Generated_Source\PSoC4/CyLib.c ****             CyDelayUs(CY_SYS_CLK_IMO_TRIM_TIMEOUT_US);
 323:.\Generated_Source\PSoC4/CyLib.c ****         }
 324:.\Generated_Source\PSoC4/CyLib.c **** 
 325:.\Generated_Source\PSoC4/CyLib.c ****         CyExitCriticalSection(interruptState);
 326:.\Generated_Source\PSoC4/CyLib.c ****     }
 327:.\Generated_Source\PSoC4/CyLib.c ****     else
 328:.\Generated_Source\PSoC4/CyLib.c ****     {
 329:.\Generated_Source\PSoC4/CyLib.c ****         /* Halt CPU in debug mode if new frequency is invalid */
 330:.\Generated_Source\PSoC4/CyLib.c ****         CYASSERT(0u != 0u);
 331:.\Generated_Source\PSoC4/CyLib.c ****     }
 332:.\Generated_Source\PSoC4/CyLib.c **** }
 333:.\Generated_Source\PSoC4/CyLib.c **** 
 334:.\Generated_Source\PSoC4/CyLib.c **** 
 335:.\Generated_Source\PSoC4/CyLib.c **** /*******************************************************************************
 336:.\Generated_Source\PSoC4/CyLib.c **** * Function Name: CySysWdtLock
 337:.\Generated_Source\PSoC4/CyLib.c **** ********************************************************************************
 338:.\Generated_Source\PSoC4/CyLib.c **** *
 339:.\Generated_Source\PSoC4/CyLib.c **** * Summary:
 340:.\Generated_Source\PSoC4/CyLib.c **** *  Locks out configuration changes to the Watchdog timer registers and ILO
 341:.\Generated_Source\PSoC4/CyLib.c **** *  config register.
 342:.\Generated_Source\PSoC4/CyLib.c **** *
 343:.\Generated_Source\PSoC4/CyLib.c **** * Parameters:
 344:.\Generated_Source\PSoC4/CyLib.c **** *  None
 345:.\Generated_Source\PSoC4/CyLib.c **** *
 346:.\Generated_Source\PSoC4/CyLib.c **** * Return:
 347:.\Generated_Source\PSoC4/CyLib.c **** *  None
 348:.\Generated_Source\PSoC4/CyLib.c **** *
 349:.\Generated_Source\PSoC4/CyLib.c **** * Side effects:
 350:.\Generated_Source\PSoC4/CyLib.c **** *  This API enables ILO, if it was disabled.
 351:.\Generated_Source\PSoC4/CyLib.c **** *  After this API was called, ILO clock can't be disabled untill calling of
ARM GAS  C:\Users\asha\AppData\Local\Temp\ccSrRbz4.s 			page 11


 352:.\Generated_Source\PSoC4/CyLib.c **** *  CySysWdtUnlock().
 353:.\Generated_Source\PSoC4/CyLib.c **** *
 354:.\Generated_Source\PSoC4/CyLib.c **** *******************************************************************************/
 355:.\Generated_Source\PSoC4/CyLib.c **** void CySysWdtLock(void)
 356:.\Generated_Source\PSoC4/CyLib.c **** {
 357:.\Generated_Source\PSoC4/CyLib.c ****     uint8 interruptState;
 358:.\Generated_Source\PSoC4/CyLib.c ****     interruptState = CyEnterCriticalSection();
 359:.\Generated_Source\PSoC4/CyLib.c **** 
 360:.\Generated_Source\PSoC4/CyLib.c ****     /* Configuring the WDT involves passing control signals between clock domains,
 361:.\Generated_Source\PSoC4/CyLib.c ****     * which requires the ILO to be enabled.
 362:.\Generated_Source\PSoC4/CyLib.c ****     */
 363:.\Generated_Source\PSoC4/CyLib.c ****     if (0u == (CY_SYS_CLK_ILO_CONFIG_REG & CY_SYS_CLK_ILO_CONFIG_ENABLE))
 364:.\Generated_Source\PSoC4/CyLib.c ****     {
 365:.\Generated_Source\PSoC4/CyLib.c ****         CySysClkIloStart();
 366:.\Generated_Source\PSoC4/CyLib.c ****     }
 367:.\Generated_Source\PSoC4/CyLib.c **** 
 368:.\Generated_Source\PSoC4/CyLib.c ****     /* CLK_SELECT register's bits 15:14 are WDT_LOCK */
 369:.\Generated_Source\PSoC4/CyLib.c ****     CY_SYS_CLK_SELECT_REG = (CY_SYS_CLK_SELECT_REG & (uint32)(~CY_SYS_WDT_CLK_LOCK_BITS_MASK)) |
 370:.\Generated_Source\PSoC4/CyLib.c ****              CY_SYS_WDT_CLK_LOCK_BITS_MASK;
 371:.\Generated_Source\PSoC4/CyLib.c **** 
 372:.\Generated_Source\PSoC4/CyLib.c ****     CyExitCriticalSection(interruptState);
 373:.\Generated_Source\PSoC4/CyLib.c **** }
 374:.\Generated_Source\PSoC4/CyLib.c **** 
 375:.\Generated_Source\PSoC4/CyLib.c **** 
 376:.\Generated_Source\PSoC4/CyLib.c **** /*******************************************************************************
 377:.\Generated_Source\PSoC4/CyLib.c **** * Function Name: CySysWdtUnlock
 378:.\Generated_Source\PSoC4/CyLib.c **** ********************************************************************************
 379:.\Generated_Source\PSoC4/CyLib.c **** *
 380:.\Generated_Source\PSoC4/CyLib.c **** * Summary:
 381:.\Generated_Source\PSoC4/CyLib.c **** *  Unlocks the Watchdog Timer configuration register.
 382:.\Generated_Source\PSoC4/CyLib.c **** *
 383:.\Generated_Source\PSoC4/CyLib.c **** * Parameters:
 384:.\Generated_Source\PSoC4/CyLib.c **** *  None
 385:.\Generated_Source\PSoC4/CyLib.c **** *
 386:.\Generated_Source\PSoC4/CyLib.c **** * Return:
 387:.\Generated_Source\PSoC4/CyLib.c **** *  None
 388:.\Generated_Source\PSoC4/CyLib.c **** *
 389:.\Generated_Source\PSoC4/CyLib.c **** * Side effects:
 390:.\Generated_Source\PSoC4/CyLib.c **** *  This API enables ILO, if it was disabled.
 391:.\Generated_Source\PSoC4/CyLib.c **** *
 392:.\Generated_Source\PSoC4/CyLib.c **** *******************************************************************************/
 393:.\Generated_Source\PSoC4/CyLib.c **** void CySysWdtUnlock(void)
 394:.\Generated_Source\PSoC4/CyLib.c **** {
 395:.\Generated_Source\PSoC4/CyLib.c ****     uint8 interruptState;
 396:.\Generated_Source\PSoC4/CyLib.c ****     interruptState = CyEnterCriticalSection();
 397:.\Generated_Source\PSoC4/CyLib.c **** 
 398:.\Generated_Source\PSoC4/CyLib.c ****     /* Configuring the WDT involves passing control signals between clock domains,
 399:.\Generated_Source\PSoC4/CyLib.c ****     * which requires the ILO to be enabled.
 400:.\Generated_Source\PSoC4/CyLib.c ****     */
 401:.\Generated_Source\PSoC4/CyLib.c ****     if (0u == (CY_SYS_CLK_ILO_CONFIG_REG & CY_SYS_CLK_ILO_CONFIG_ENABLE))
 402:.\Generated_Source\PSoC4/CyLib.c ****     {
 403:.\Generated_Source\PSoC4/CyLib.c ****         CySysClkIloStart();
 404:.\Generated_Source\PSoC4/CyLib.c ****     }
 405:.\Generated_Source\PSoC4/CyLib.c **** 
 406:.\Generated_Source\PSoC4/CyLib.c ****     /* Removing WDT lock requires two writes */
 407:.\Generated_Source\PSoC4/CyLib.c ****     CY_SYS_CLK_SELECT_REG = ((CY_SYS_CLK_SELECT_REG & (uint32)(~CY_SYS_WDT_CLK_LOCK_BITS_MASK)) |
 408:.\Generated_Source\PSoC4/CyLib.c ****             CY_SYS_WDT_CLK_LOCK_BIT0);
ARM GAS  C:\Users\asha\AppData\Local\Temp\ccSrRbz4.s 			page 12


 409:.\Generated_Source\PSoC4/CyLib.c **** 
 410:.\Generated_Source\PSoC4/CyLib.c ****     CY_SYS_CLK_SELECT_REG = ((CY_SYS_CLK_SELECT_REG & (uint32)(~CY_SYS_WDT_CLK_LOCK_BITS_MASK)) |
 411:.\Generated_Source\PSoC4/CyLib.c ****             CY_SYS_WDT_CLK_LOCK_BIT1);
 412:.\Generated_Source\PSoC4/CyLib.c **** 
 413:.\Generated_Source\PSoC4/CyLib.c ****     CyExitCriticalSection(interruptState);
 414:.\Generated_Source\PSoC4/CyLib.c **** }
 415:.\Generated_Source\PSoC4/CyLib.c **** 
 416:.\Generated_Source\PSoC4/CyLib.c **** 
 417:.\Generated_Source\PSoC4/CyLib.c **** /*******************************************************************************
 418:.\Generated_Source\PSoC4/CyLib.c **** * Function Name: CySysWdtReadEnabledStatus
 419:.\Generated_Source\PSoC4/CyLib.c **** ********************************************************************************
 420:.\Generated_Source\PSoC4/CyLib.c **** *
 421:.\Generated_Source\PSoC4/CyLib.c **** * Summary:
 422:.\Generated_Source\PSoC4/CyLib.c **** *  Reads the enabled staus of one of the three WDT counters.
 423:.\Generated_Source\PSoC4/CyLib.c **** *
 424:.\Generated_Source\PSoC4/CyLib.c **** * Parameters:
 425:.\Generated_Source\PSoC4/CyLib.c **** *  counterNum: Valid range [0-2].  Number of the WDT counter.
 426:.\Generated_Source\PSoC4/CyLib.c **** *
 427:.\Generated_Source\PSoC4/CyLib.c **** * Return:
 428:.\Generated_Source\PSoC4/CyLib.c **** *  Status of WDT counter:
 429:.\Generated_Source\PSoC4/CyLib.c **** *   0 - counter is disabled
 430:.\Generated_Source\PSoC4/CyLib.c **** *   1 - counter is enabled
 431:.\Generated_Source\PSoC4/CyLib.c **** *
 432:.\Generated_Source\PSoC4/CyLib.c **** * Side Effects:
 433:.\Generated_Source\PSoC4/CyLib.c **** *  This API returns actual WDT counter status from status register.
 434:.\Generated_Source\PSoC4/CyLib.c **** *  It may take up to 3 LFCLK cycles since WDT counter was enabled for WDT status
 435:.\Generated_Source\PSoC4/CyLib.c **** *  register to contain actual data.
 436:.\Generated_Source\PSoC4/CyLib.c **** *
 437:.\Generated_Source\PSoC4/CyLib.c **** *******************************************************************************/
 438:.\Generated_Source\PSoC4/CyLib.c **** uint32 CySysWdtReadEnabledStatus(uint32 counterNum)
 439:.\Generated_Source\PSoC4/CyLib.c **** {
 216              		.loc 1 439 0
 217              		.cfi_startproc
 218 0000 00B5     		push	{lr}
 219              	.LCFI1:
 220              		.cfi_def_cfa_offset 4
 221              		.cfi_offset 14, -4
 222              	.LVL4:
 440:.\Generated_Source\PSoC4/CyLib.c ****     CYASSERT(counterNum < CY_SYS_WDT_COUNTERS_MAX);
 223              		.loc 1 440 0
 224 0002 0228     		cmp	r0, #2
 225 0004 00D9     		bls	.L26
 226              	.LBB78:
 227              	.LBB79:
 441:.\Generated_Source\PSoC4/CyLib.c **** 
 442:.\Generated_Source\PSoC4/CyLib.c ****     return ((CY_SYS_WDT_CONTROL_REG >> ((CY_SYS_WDT_CNT_SHIFT * counterNum) + CY_SYS_WDT_CNT_STTS_S
 443:.\Generated_Source\PSoC4/CyLib.c **** }
 444:.\Generated_Source\PSoC4/CyLib.c **** 
 445:.\Generated_Source\PSoC4/CyLib.c **** 
 446:.\Generated_Source\PSoC4/CyLib.c **** /*******************************************************************************
 447:.\Generated_Source\PSoC4/CyLib.c **** * Function Name: CySysWdtWriteMode
 448:.\Generated_Source\PSoC4/CyLib.c **** ********************************************************************************
 449:.\Generated_Source\PSoC4/CyLib.c **** *
 450:.\Generated_Source\PSoC4/CyLib.c **** * Summary:
 451:.\Generated_Source\PSoC4/CyLib.c **** *   Writes the mode of one of the three WDT counters.
 452:.\Generated_Source\PSoC4/CyLib.c **** *
 453:.\Generated_Source\PSoC4/CyLib.c **** * Parameters:
ARM GAS  C:\Users\asha\AppData\Local\Temp\ccSrRbz4.s 			page 13


 454:.\Generated_Source\PSoC4/CyLib.c **** *   counterNum: Valid range [0-2].  Number of the WDT counter.
 455:.\Generated_Source\PSoC4/CyLib.c **** *   mode:       Mode of operation for the counter
 456:.\Generated_Source\PSoC4/CyLib.c **** *   Value    Define                   Mode
 457:.\Generated_Source\PSoC4/CyLib.c **** *   0     CY_SYS_WDT_MODE_NONE       Free running
 458:.\Generated_Source\PSoC4/CyLib.c **** *   1     CY_SYS_WDT_MODE_INT        Interrupt generated on match for counter 0
 459:.\Generated_Source\PSoC4/CyLib.c **** *                                    and 1, and on bit toggle for counter 2.
 460:.\Generated_Source\PSoC4/CyLib.c **** *   2     CY_SYS_WDT_MODE_RESET      Reset on match (valid for counter 0 and 1
 461:.\Generated_Source\PSoC4/CyLib.c **** *                                    only)
 462:.\Generated_Source\PSoC4/CyLib.c **** *   3     CY_SYS_WDT_MODE_INT_RESET  Generate an interrupt.  Generate a reset on
 463:.\Generated_Source\PSoC4/CyLib.c **** *                                    the 3rd unhandled interrupt.
 464:.\Generated_Source\PSoC4/CyLib.c **** *                                    (valid for counter 0 and 1 only)
 465:.\Generated_Source\PSoC4/CyLib.c **** * Return:
 466:.\Generated_Source\PSoC4/CyLib.c **** *   None
 467:.\Generated_Source\PSoC4/CyLib.c **** *
 468:.\Generated_Source\PSoC4/CyLib.c **** * Side Effects:
 469:.\Generated_Source\PSoC4/CyLib.c **** *   WDT counter counterNum should be disabled to set mode. Othetwise function
 470:.\Generated_Source\PSoC4/CyLib.c **** *   call will have no effect.
 471:.\Generated_Source\PSoC4/CyLib.c **** *   This API enables ILO, if it was disabled.
 472:.\Generated_Source\PSoC4/CyLib.c **** *
 473:.\Generated_Source\PSoC4/CyLib.c **** *******************************************************************************/
 474:.\Generated_Source\PSoC4/CyLib.c **** void CySysWdtWriteMode(uint32 counterNum, uint32 mode)
 475:.\Generated_Source\PSoC4/CyLib.c **** {
 476:.\Generated_Source\PSoC4/CyLib.c ****     uint32 configRegValue;
 477:.\Generated_Source\PSoC4/CyLib.c **** 
 478:.\Generated_Source\PSoC4/CyLib.c ****     CYASSERT(counterNum < CY_SYS_WDT_COUNTERS_MAX);
 479:.\Generated_Source\PSoC4/CyLib.c **** 
 480:.\Generated_Source\PSoC4/CyLib.c ****     /* Configuring the WDT involves passing control signals between clock domains,
 481:.\Generated_Source\PSoC4/CyLib.c ****     * which requires the ILO to be enabled.
 482:.\Generated_Source\PSoC4/CyLib.c ****     */
 483:.\Generated_Source\PSoC4/CyLib.c ****     if (0u == (CY_SYS_CLK_ILO_CONFIG_REG & CY_SYS_CLK_ILO_CONFIG_ENABLE))
 484:.\Generated_Source\PSoC4/CyLib.c ****     {
 485:.\Generated_Source\PSoC4/CyLib.c ****         CySysClkIloStart();
 486:.\Generated_Source\PSoC4/CyLib.c ****     }
 487:.\Generated_Source\PSoC4/CyLib.c **** 
 488:.\Generated_Source\PSoC4/CyLib.c ****     if(0u == CySysWdtReadEnabledStatus(counterNum))
 489:.\Generated_Source\PSoC4/CyLib.c ****     {
 490:.\Generated_Source\PSoC4/CyLib.c ****         configRegValue = CY_SYS_WDT_CONFIG_REG &
 491:.\Generated_Source\PSoC4/CyLib.c ****                             (uint32)~((uint32)(CY_SYS_WDT_MODE_MASK << (counterNum * CY_SYS_WDT_CNT
 492:.\Generated_Source\PSoC4/CyLib.c ****         configRegValue |= (uint32)((mode & CY_SYS_WDT_MODE_MASK) << (counterNum * CY_SYS_WDT_CNT_SH
 493:.\Generated_Source\PSoC4/CyLib.c ****         CY_SYS_WDT_CONFIG_REG = configRegValue;
 494:.\Generated_Source\PSoC4/CyLib.c ****     }
 495:.\Generated_Source\PSoC4/CyLib.c **** }
 496:.\Generated_Source\PSoC4/CyLib.c **** 
 497:.\Generated_Source\PSoC4/CyLib.c **** 
 498:.\Generated_Source\PSoC4/CyLib.c **** /*******************************************************************************
 499:.\Generated_Source\PSoC4/CyLib.c **** * Function Name: CySysWdtReadMode
 500:.\Generated_Source\PSoC4/CyLib.c **** ********************************************************************************
 501:.\Generated_Source\PSoC4/CyLib.c **** *
 502:.\Generated_Source\PSoC4/CyLib.c **** * Summary:
 503:.\Generated_Source\PSoC4/CyLib.c **** *  Reads the mode of one of the three WDT counters.
 504:.\Generated_Source\PSoC4/CyLib.c **** *
 505:.\Generated_Source\PSoC4/CyLib.c **** * Parameters:
 506:.\Generated_Source\PSoC4/CyLib.c **** *  counterNum: Valid range [0-2].  Number of the WDT counter.
 507:.\Generated_Source\PSoC4/CyLib.c **** *
 508:.\Generated_Source\PSoC4/CyLib.c **** * Return:
 509:.\Generated_Source\PSoC4/CyLib.c **** *  Mode of the counter.  Same enumerated values as mode parameter used in
 510:.\Generated_Source\PSoC4/CyLib.c **** *  CySysWdtWriteMode().
ARM GAS  C:\Users\asha\AppData\Local\Temp\ccSrRbz4.s 			page 14


 511:.\Generated_Source\PSoC4/CyLib.c **** *
 512:.\Generated_Source\PSoC4/CyLib.c **** *******************************************************************************/
 513:.\Generated_Source\PSoC4/CyLib.c **** uint32 CySysWdtReadMode(uint32 counterNum)
 514:.\Generated_Source\PSoC4/CyLib.c **** {
 515:.\Generated_Source\PSoC4/CyLib.c ****     return ((CY_SYS_WDT_CONFIG_REG >> (counterNum * CY_SYS_WDT_CNT_SHIFT)) & CY_SYS_WDT_MODE_MASK);
 516:.\Generated_Source\PSoC4/CyLib.c **** }
 517:.\Generated_Source\PSoC4/CyLib.c **** 
 518:.\Generated_Source\PSoC4/CyLib.c **** 
 519:.\Generated_Source\PSoC4/CyLib.c **** /*******************************************************************************
 520:.\Generated_Source\PSoC4/CyLib.c **** * Function Name: CySysWdtWriteClearOnMatch
 521:.\Generated_Source\PSoC4/CyLib.c **** ********************************************************************************
 522:.\Generated_Source\PSoC4/CyLib.c **** *
 523:.\Generated_Source\PSoC4/CyLib.c **** * Summary:
 524:.\Generated_Source\PSoC4/CyLib.c **** *  Configures the WDT counter clear on a match setting.  If configured to clear
 525:.\Generated_Source\PSoC4/CyLib.c **** *  on match the counter will count from 0 to the MatchValue giving it a
 526:.\Generated_Source\PSoC4/CyLib.c **** *  period of (MatchValue + 1).
 527:.\Generated_Source\PSoC4/CyLib.c **** *
 528:.\Generated_Source\PSoC4/CyLib.c **** * Parameters:
 529:.\Generated_Source\PSoC4/CyLib.c **** *  counterNum:
 530:.\Generated_Source\PSoC4/CyLib.c **** *   Valid range [0-1].  Number of the WDT counter.  Match values are not
 531:.\Generated_Source\PSoC4/CyLib.c **** *   supported by counter 2.
 532:.\Generated_Source\PSoC4/CyLib.c **** *
 533:.\Generated_Source\PSoC4/CyLib.c **** * enable:
 534:.\Generated_Source\PSoC4/CyLib.c **** *   0 to disable, 1 to enable
 535:.\Generated_Source\PSoC4/CyLib.c **** *
 536:.\Generated_Source\PSoC4/CyLib.c **** * Return:
 537:.\Generated_Source\PSoC4/CyLib.c **** *   None
 538:.\Generated_Source\PSoC4/CyLib.c **** *
 539:.\Generated_Source\PSoC4/CyLib.c **** * Side Effects:
 540:.\Generated_Source\PSoC4/CyLib.c **** *   WDT counter counterNum should be disabled. Othetwise function
 541:.\Generated_Source\PSoC4/CyLib.c **** *   call will have no effect.
 542:.\Generated_Source\PSoC4/CyLib.c **** *   This API enables ILO, if it was disabled.
 543:.\Generated_Source\PSoC4/CyLib.c **** *
 544:.\Generated_Source\PSoC4/CyLib.c **** *
 545:.\Generated_Source\PSoC4/CyLib.c **** *******************************************************************************/
 546:.\Generated_Source\PSoC4/CyLib.c **** void CySysWdtWriteClearOnMatch(uint32 counterNum, uint32 enable)
 547:.\Generated_Source\PSoC4/CyLib.c **** {
 548:.\Generated_Source\PSoC4/CyLib.c ****     CYASSERT((counterNum == CY_SYS_WDT_COUNTER0) ||
 549:.\Generated_Source\PSoC4/CyLib.c ****                                          (counterNum == CY_SYS_WDT_COUNTER1));
 550:.\Generated_Source\PSoC4/CyLib.c **** 
 551:.\Generated_Source\PSoC4/CyLib.c ****     /* Configuring the WDT involves passing control signals between clock domains,
 552:.\Generated_Source\PSoC4/CyLib.c ****     * which requires the ILO to be enabled.
 553:.\Generated_Source\PSoC4/CyLib.c ****     */
 554:.\Generated_Source\PSoC4/CyLib.c ****     if (0u == (CY_SYS_CLK_ILO_CONFIG_REG & CY_SYS_CLK_ILO_CONFIG_ENABLE))
 555:.\Generated_Source\PSoC4/CyLib.c ****     {
 556:.\Generated_Source\PSoC4/CyLib.c ****         CySysClkIloStart();
 557:.\Generated_Source\PSoC4/CyLib.c ****     }
 558:.\Generated_Source\PSoC4/CyLib.c **** 
 559:.\Generated_Source\PSoC4/CyLib.c ****     if(0u == CySysWdtReadEnabledStatus(counterNum))
 560:.\Generated_Source\PSoC4/CyLib.c ****     {
 561:.\Generated_Source\PSoC4/CyLib.c ****         CY_SYS_WDT_CONFIG_REG |= (uint32)(enable << ((counterNum * CY_SYS_WDT_CNT_SHIFT) +
 562:.\Generated_Source\PSoC4/CyLib.c ****                                                         CY_SYS_WDT_CNT_MATCH_CLR_SHIFT));
 563:.\Generated_Source\PSoC4/CyLib.c ****     }
 564:.\Generated_Source\PSoC4/CyLib.c **** }
 565:.\Generated_Source\PSoC4/CyLib.c **** 
 566:.\Generated_Source\PSoC4/CyLib.c **** 
 567:.\Generated_Source\PSoC4/CyLib.c **** /*******************************************************************************
ARM GAS  C:\Users\asha\AppData\Local\Temp\ccSrRbz4.s 			page 15


 568:.\Generated_Source\PSoC4/CyLib.c **** * Function Name: CySysWdtReadClearOnMatch
 569:.\Generated_Source\PSoC4/CyLib.c **** ********************************************************************************
 570:.\Generated_Source\PSoC4/CyLib.c **** *
 571:.\Generated_Source\PSoC4/CyLib.c **** * Summary:
 572:.\Generated_Source\PSoC4/CyLib.c **** *  Reads the clear on match setting for the specified counter.
 573:.\Generated_Source\PSoC4/CyLib.c **** *
 574:.\Generated_Source\PSoC4/CyLib.c **** * Parameters:
 575:.\Generated_Source\PSoC4/CyLib.c **** *   counterNum: Valid range [0-1].  Number of the WDT counter.  Match values are
 576:.\Generated_Source\PSoC4/CyLib.c **** *               not supported by counter 2.
 577:.\Generated_Source\PSoC4/CyLib.c **** *
 578:.\Generated_Source\PSoC4/CyLib.c **** * Return:
 579:.\Generated_Source\PSoC4/CyLib.c **** *   Clear on Match status: 1 if enabled, 0 if disabled
 580:.\Generated_Source\PSoC4/CyLib.c **** *
 581:.\Generated_Source\PSoC4/CyLib.c **** *******************************************************************************/
 582:.\Generated_Source\PSoC4/CyLib.c **** uint32 CySysWdtReadClearOnMatch(uint32 counterNum)
 583:.\Generated_Source\PSoC4/CyLib.c **** {
 584:.\Generated_Source\PSoC4/CyLib.c ****     CYASSERT((counterNum == CY_SYS_WDT_COUNTER0) ||
 585:.\Generated_Source\PSoC4/CyLib.c ****                                          (counterNum == CY_SYS_WDT_COUNTER1));
 586:.\Generated_Source\PSoC4/CyLib.c **** 
 587:.\Generated_Source\PSoC4/CyLib.c ****     return (uint32)((CY_SYS_WDT_CONFIG_REG >>
 588:.\Generated_Source\PSoC4/CyLib.c ****                         ((counterNum * CY_SYS_WDT_CNT_SHIFT) + CY_SYS_WDT_CNT_MATCH_CLR_SHIFT)) & 0
 589:.\Generated_Source\PSoC4/CyLib.c **** }
 590:.\Generated_Source\PSoC4/CyLib.c **** 
 591:.\Generated_Source\PSoC4/CyLib.c **** 
 592:.\Generated_Source\PSoC4/CyLib.c **** /*******************************************************************************
 593:.\Generated_Source\PSoC4/CyLib.c **** * Function Name: CySysWdtEnable
 594:.\Generated_Source\PSoC4/CyLib.c **** ********************************************************************************
 595:.\Generated_Source\PSoC4/CyLib.c **** *
 596:.\Generated_Source\PSoC4/CyLib.c **** * Summary:
 597:.\Generated_Source\PSoC4/CyLib.c **** *  Enables the specified WDT counters.  All counters specified in the mask are
 598:.\Generated_Source\PSoC4/CyLib.c **** *  enabled.
 599:.\Generated_Source\PSoC4/CyLib.c **** *
 600:.\Generated_Source\PSoC4/CyLib.c **** * Parameters:
 601:.\Generated_Source\PSoC4/CyLib.c **** *  counterMask: Mask of all counters to enable
 602:.\Generated_Source\PSoC4/CyLib.c **** *      Value    Define                       Counter
 603:.\Generated_Source\PSoC4/CyLib.c **** *      1<<0    CY_SYS_WDT_COUNTER0_MASK      0
 604:.\Generated_Source\PSoC4/CyLib.c **** *      1<<8    CY_SYS_WDT_COUNTER1_MASK      1
 605:.\Generated_Source\PSoC4/CyLib.c **** *      1<<16   CY_SYS_WDT_COUNTER2_MASK      2
 606:.\Generated_Source\PSoC4/CyLib.c **** *
 607:.\Generated_Source\PSoC4/CyLib.c **** * Return:
 608:.\Generated_Source\PSoC4/CyLib.c **** *  None
 609:.\Generated_Source\PSoC4/CyLib.c **** *
 610:.\Generated_Source\PSoC4/CyLib.c **** * Side Effects:
 611:.\Generated_Source\PSoC4/CyLib.c **** *  Enabling or disabling a WDT requires 3 LF Clock cycles to come into effect.
 612:.\Generated_Source\PSoC4/CyLib.c **** *  This API enables ILO, if it was disabled.
 613:.\Generated_Source\PSoC4/CyLib.c **** *
 614:.\Generated_Source\PSoC4/CyLib.c **** *******************************************************************************/
 615:.\Generated_Source\PSoC4/CyLib.c **** void CySysWdtEnable(uint32 counterMask)
 616:.\Generated_Source\PSoC4/CyLib.c **** {
 617:.\Generated_Source\PSoC4/CyLib.c ****     /* Configuring the WDT involves passing control signals between clock domains,
 618:.\Generated_Source\PSoC4/CyLib.c ****     * which requires the ILO to be enabled.
 619:.\Generated_Source\PSoC4/CyLib.c ****     */
 620:.\Generated_Source\PSoC4/CyLib.c ****     if (0u == (CY_SYS_CLK_ILO_CONFIG_REG & CY_SYS_CLK_ILO_CONFIG_ENABLE))
 621:.\Generated_Source\PSoC4/CyLib.c ****     {
 622:.\Generated_Source\PSoC4/CyLib.c ****         CySysClkIloStart();
 623:.\Generated_Source\PSoC4/CyLib.c ****     }
 624:.\Generated_Source\PSoC4/CyLib.c **** 
ARM GAS  C:\Users\asha\AppData\Local\Temp\ccSrRbz4.s 			page 16


 625:.\Generated_Source\PSoC4/CyLib.c ****     CY_SYS_WDT_CONTROL_REG |= counterMask;
 626:.\Generated_Source\PSoC4/CyLib.c **** }
 627:.\Generated_Source\PSoC4/CyLib.c **** 
 628:.\Generated_Source\PSoC4/CyLib.c **** 
 629:.\Generated_Source\PSoC4/CyLib.c **** /*******************************************************************************
 630:.\Generated_Source\PSoC4/CyLib.c **** * Function Name: CySysWdtDisable
 631:.\Generated_Source\PSoC4/CyLib.c **** ********************************************************************************
 632:.\Generated_Source\PSoC4/CyLib.c **** *
 633:.\Generated_Source\PSoC4/CyLib.c **** * Summary:
 634:.\Generated_Source\PSoC4/CyLib.c **** *  Disables the specified WDT counters.  All counters specified in the mask are
 635:.\Generated_Source\PSoC4/CyLib.c **** *  disabled.
 636:.\Generated_Source\PSoC4/CyLib.c **** *
 637:.\Generated_Source\PSoC4/CyLib.c **** * Parameters:
 638:.\Generated_Source\PSoC4/CyLib.c **** *  uint32 counterMask: Mask of all counters to disable
 639:.\Generated_Source\PSoC4/CyLib.c **** *      Value    Define                       Counter
 640:.\Generated_Source\PSoC4/CyLib.c **** *      1<<0    CY_SYS_WDT_COUNTER0_MASK      0
 641:.\Generated_Source\PSoC4/CyLib.c **** *      1<<8    CY_SYS_WDT_COUNTER1_MASK      1
 642:.\Generated_Source\PSoC4/CyLib.c **** *      1<<16   CY_SYS_WDT_COUNTER2_MASK      2
 643:.\Generated_Source\PSoC4/CyLib.c **** *
 644:.\Generated_Source\PSoC4/CyLib.c **** * Return:
 645:.\Generated_Source\PSoC4/CyLib.c **** *   None
 646:.\Generated_Source\PSoC4/CyLib.c **** *
 647:.\Generated_Source\PSoC4/CyLib.c **** * Side Effects:
 648:.\Generated_Source\PSoC4/CyLib.c **** *  Enabling or disabling a WDT requires 3 LF Clock cycles to come into effect.
 649:.\Generated_Source\PSoC4/CyLib.c **** *  This API enables ILO, if it was disabled.
 650:.\Generated_Source\PSoC4/CyLib.c **** *
 651:.\Generated_Source\PSoC4/CyLib.c **** *******************************************************************************/
 652:.\Generated_Source\PSoC4/CyLib.c **** void CySysWdtDisable(uint32 counterMask)
 653:.\Generated_Source\PSoC4/CyLib.c **** {
 654:.\Generated_Source\PSoC4/CyLib.c ****     /* Configuring the WDT involves passing control signals between clock domains,
 655:.\Generated_Source\PSoC4/CyLib.c ****     * which requires the ILO to be enabled.
 656:.\Generated_Source\PSoC4/CyLib.c ****     */
 657:.\Generated_Source\PSoC4/CyLib.c ****     if (0u == (CY_SYS_CLK_ILO_CONFIG_REG & CY_SYS_CLK_ILO_CONFIG_ENABLE))
 658:.\Generated_Source\PSoC4/CyLib.c ****     {
 659:.\Generated_Source\PSoC4/CyLib.c ****         CySysClkIloStart();
 660:.\Generated_Source\PSoC4/CyLib.c ****     }
 661:.\Generated_Source\PSoC4/CyLib.c **** 
 662:.\Generated_Source\PSoC4/CyLib.c ****     CY_SYS_WDT_CONTROL_REG &= ~counterMask;
 663:.\Generated_Source\PSoC4/CyLib.c **** }
 664:.\Generated_Source\PSoC4/CyLib.c **** 
 665:.\Generated_Source\PSoC4/CyLib.c **** 
 666:.\Generated_Source\PSoC4/CyLib.c **** /*******************************************************************************
 667:.\Generated_Source\PSoC4/CyLib.c **** * Function Name: CySysWdtWriteCascade
 668:.\Generated_Source\PSoC4/CyLib.c **** ********************************************************************************
 669:.\Generated_Source\PSoC4/CyLib.c **** *
 670:.\Generated_Source\PSoC4/CyLib.c **** * Summary:
 671:.\Generated_Source\PSoC4/CyLib.c **** *   Writes the two WDT cascade values based on the combination of mask values
 672:.\Generated_Source\PSoC4/CyLib.c **** *   specified.
 673:.\Generated_Source\PSoC4/CyLib.c **** *
 674:.\Generated_Source\PSoC4/CyLib.c **** * Parameters:
 675:.\Generated_Source\PSoC4/CyLib.c **** *   cascadeMask: Mask value used to set or clear the cascade values.
 676:.\Generated_Source\PSoC4/CyLib.c **** *   Value    Define                     Cascade
 677:.\Generated_Source\PSoC4/CyLib.c **** *   0        CY_SYS_WDT_CASCADE_NONE    Neither
 678:.\Generated_Source\PSoC4/CyLib.c **** *   1<<3     CY_SYS_WDT_CASCADE_01      Cascade 01
 679:.\Generated_Source\PSoC4/CyLib.c **** *   1<<11    CY_SYS_WDT_CASCADE_12      Cascade 12
 680:.\Generated_Source\PSoC4/CyLib.c **** *
 681:.\Generated_Source\PSoC4/CyLib.c **** * Return:
ARM GAS  C:\Users\asha\AppData\Local\Temp\ccSrRbz4.s 			page 17


 682:.\Generated_Source\PSoC4/CyLib.c **** *   None
 683:.\Generated_Source\PSoC4/CyLib.c **** *
 684:.\Generated_Source\PSoC4/CyLib.c **** * Side effects:
 685:.\Generated_Source\PSoC4/CyLib.c **** *   If only one cascasde mask is specified, the second cascade is disabled.
 686:.\Generated_Source\PSoC4/CyLib.c **** *   To set both cascade modes two defines should be ORed:
 687:.\Generated_Source\PSoC4/CyLib.c **** *    (CY_SYS_WDT_CASCADE_01 | CY_SYS_WDT_CASCADE_12)
 688:.\Generated_Source\PSoC4/CyLib.c **** *   This API enables ILO, if it was disabled.
 689:.\Generated_Source\PSoC4/CyLib.c **** *
 690:.\Generated_Source\PSoC4/CyLib.c **** *******************************************************************************/
 691:.\Generated_Source\PSoC4/CyLib.c **** void CySysWdtWriteCascade(uint32 cascadeMask)
 692:.\Generated_Source\PSoC4/CyLib.c **** {
 693:.\Generated_Source\PSoC4/CyLib.c ****     uint32 configRegValue;
 694:.\Generated_Source\PSoC4/CyLib.c ****     uint32 countersEnableStatus;
 695:.\Generated_Source\PSoC4/CyLib.c **** 
 696:.\Generated_Source\PSoC4/CyLib.c ****     countersEnableStatus = CySysWdtReadEnabledStatus(CY_SYS_WDT_COUNTER0) |
 697:.\Generated_Source\PSoC4/CyLib.c ****                         CySysWdtReadEnabledStatus(CY_SYS_WDT_COUNTER1) |
 698:.\Generated_Source\PSoC4/CyLib.c ****                         CySysWdtReadEnabledStatus(CY_SYS_WDT_COUNTER2);
 699:.\Generated_Source\PSoC4/CyLib.c **** 
 700:.\Generated_Source\PSoC4/CyLib.c ****     if (0u == countersEnableStatus)
 701:.\Generated_Source\PSoC4/CyLib.c ****     {
 702:.\Generated_Source\PSoC4/CyLib.c ****         /* Configuring the WDT involves passing control signals between clock domains,
 703:.\Generated_Source\PSoC4/CyLib.c ****         * which requires the ILO to be enabled.
 704:.\Generated_Source\PSoC4/CyLib.c ****         */
 705:.\Generated_Source\PSoC4/CyLib.c ****         if (0u == (CY_SYS_CLK_ILO_CONFIG_REG & CY_SYS_CLK_ILO_CONFIG_ENABLE))
 706:.\Generated_Source\PSoC4/CyLib.c ****         {
 707:.\Generated_Source\PSoC4/CyLib.c ****             CySysClkIloStart();
 708:.\Generated_Source\PSoC4/CyLib.c ****         }
 709:.\Generated_Source\PSoC4/CyLib.c **** 
 710:.\Generated_Source\PSoC4/CyLib.c ****         configRegValue = CY_SYS_WDT_CONFIG_REG;
 711:.\Generated_Source\PSoC4/CyLib.c ****         configRegValue &= ((uint32)(~(CY_SYS_WDT_CASCADE_01|CY_SYS_WDT_CASCADE_12)));
 712:.\Generated_Source\PSoC4/CyLib.c ****         configRegValue |= cascadeMask;
 713:.\Generated_Source\PSoC4/CyLib.c ****         CY_SYS_WDT_CONFIG_REG = configRegValue;
 714:.\Generated_Source\PSoC4/CyLib.c ****     }
 715:.\Generated_Source\PSoC4/CyLib.c **** }
 716:.\Generated_Source\PSoC4/CyLib.c **** 
 717:.\Generated_Source\PSoC4/CyLib.c **** 
 718:.\Generated_Source\PSoC4/CyLib.c **** /*******************************************************************************
 719:.\Generated_Source\PSoC4/CyLib.c **** * Function Name: CySysWdtReadCascade
 720:.\Generated_Source\PSoC4/CyLib.c **** ********************************************************************************
 721:.\Generated_Source\PSoC4/CyLib.c **** *
 722:.\Generated_Source\PSoC4/CyLib.c **** * Summary:
 723:.\Generated_Source\PSoC4/CyLib.c **** *   Reads the two WDT cascade values returning a mask of the bits set.
 724:.\Generated_Source\PSoC4/CyLib.c **** *
 725:.\Generated_Source\PSoC4/CyLib.c **** * Parameters:
 726:.\Generated_Source\PSoC4/CyLib.c **** *   None
 727:.\Generated_Source\PSoC4/CyLib.c **** *
 728:.\Generated_Source\PSoC4/CyLib.c **** * Return:
 729:.\Generated_Source\PSoC4/CyLib.c **** *   Mask of cascade values set.
 730:.\Generated_Source\PSoC4/CyLib.c **** *   Value    Define                     Cascade
 731:.\Generated_Source\PSoC4/CyLib.c **** *   0        CY_SYS_WDT_CASCADE_NONE    Neither
 732:.\Generated_Source\PSoC4/CyLib.c **** *   1<<3     CY_SYS_WDT_CASCADE_01      Cascade 01
 733:.\Generated_Source\PSoC4/CyLib.c **** *   1<<11    CY_SYS_WDT_CASCADE_12      Cascade 12
 734:.\Generated_Source\PSoC4/CyLib.c **** *
 735:.\Generated_Source\PSoC4/CyLib.c **** *******************************************************************************/
 736:.\Generated_Source\PSoC4/CyLib.c **** uint32 CySysWdtReadCascade(void)
 737:.\Generated_Source\PSoC4/CyLib.c **** {
 738:.\Generated_Source\PSoC4/CyLib.c ****     return (CY_SYS_WDT_CONFIG_REG & (CY_SYS_WDT_CASCADE_01 | CY_SYS_WDT_CASCADE_12));
ARM GAS  C:\Users\asha\AppData\Local\Temp\ccSrRbz4.s 			page 18


 739:.\Generated_Source\PSoC4/CyLib.c **** }
 740:.\Generated_Source\PSoC4/CyLib.c **** 
 741:.\Generated_Source\PSoC4/CyLib.c **** 
 742:.\Generated_Source\PSoC4/CyLib.c **** /*******************************************************************************
 743:.\Generated_Source\PSoC4/CyLib.c **** * Function Name: CySysWdtWriteMatch
 744:.\Generated_Source\PSoC4/CyLib.c **** ********************************************************************************
 745:.\Generated_Source\PSoC4/CyLib.c **** *
 746:.\Generated_Source\PSoC4/CyLib.c **** * Summary:
 747:.\Generated_Source\PSoC4/CyLib.c **** *  Configures the WDT counter match comparison value.
 748:.\Generated_Source\PSoC4/CyLib.c **** *
 749:.\Generated_Source\PSoC4/CyLib.c **** * Parameters:
 750:.\Generated_Source\PSoC4/CyLib.c **** *  counterNum:
 751:.\Generated_Source\PSoC4/CyLib.c **** *   Valid range [0-1]. Number of the WDT counter. Match values are not
 752:.\Generated_Source\PSoC4/CyLib.c **** *   supported by counter 2.
 753:.\Generated_Source\PSoC4/CyLib.c **** *
 754:.\Generated_Source\PSoC4/CyLib.c **** *  match:
 755:.\Generated_Source\PSoC4/CyLib.c **** *   Valid range [0-65535]. Value to be used to match against the counter.
 756:.\Generated_Source\PSoC4/CyLib.c **** *
 757:.\Generated_Source\PSoC4/CyLib.c **** * Return:
 758:.\Generated_Source\PSoC4/CyLib.c **** *   None
 759:.\Generated_Source\PSoC4/CyLib.c **** *
 760:.\Generated_Source\PSoC4/CyLib.c **** * Side effects:
 761:.\Generated_Source\PSoC4/CyLib.c **** *   This API enables ILO, if it was disabled.
 762:.\Generated_Source\PSoC4/CyLib.c **** *
 763:.\Generated_Source\PSoC4/CyLib.c **** *******************************************************************************/
 764:.\Generated_Source\PSoC4/CyLib.c **** void CySysWdtWriteMatch(uint32 counterNum, uint32 match)
 765:.\Generated_Source\PSoC4/CyLib.c **** {
 766:.\Generated_Source\PSoC4/CyLib.c ****     uint32 regValue;
 767:.\Generated_Source\PSoC4/CyLib.c **** 
 768:.\Generated_Source\PSoC4/CyLib.c ****     CYASSERT((counterNum == CY_SYS_WDT_COUNTER0) ||
 769:.\Generated_Source\PSoC4/CyLib.c ****                                          (counterNum == CY_SYS_WDT_COUNTER1));
 770:.\Generated_Source\PSoC4/CyLib.c **** 
 771:.\Generated_Source\PSoC4/CyLib.c ****     /* Configuring the WDT involves passing control signals between clock domains,
 772:.\Generated_Source\PSoC4/CyLib.c ****     * which requires the ILO to be enabled.
 773:.\Generated_Source\PSoC4/CyLib.c ****     */
 774:.\Generated_Source\PSoC4/CyLib.c ****     if (0u == (CY_SYS_CLK_ILO_CONFIG_REG & CY_SYS_CLK_ILO_CONFIG_ENABLE))
 775:.\Generated_Source\PSoC4/CyLib.c ****     {
 776:.\Generated_Source\PSoC4/CyLib.c ****         CySysClkIloStart();
 777:.\Generated_Source\PSoC4/CyLib.c ****     }
 778:.\Generated_Source\PSoC4/CyLib.c **** 
 779:.\Generated_Source\PSoC4/CyLib.c ****     /* Delay ~ 3LFCK in order to male sure previos changes are applied */
 780:.\Generated_Source\PSoC4/CyLib.c ****     CyDelayUs(CY_SYS_WDT_3LFCLK_DELAY_US);
 781:.\Generated_Source\PSoC4/CyLib.c **** 
 782:.\Generated_Source\PSoC4/CyLib.c ****     regValue = CY_SYS_WDT_MATCH_REG;
 783:.\Generated_Source\PSoC4/CyLib.c ****     regValue &= (uint32)~((uint32)(CY_SYS_WDT_LOWER_16BITS_MASK << (counterNum * CY_SYS_WDT_CNT_MAT
 784:.\Generated_Source\PSoC4/CyLib.c ****     CY_SYS_WDT_MATCH_REG = (regValue | (match << (counterNum * CY_SYS_WDT_CNT_MATCH_SHIFT)));
 785:.\Generated_Source\PSoC4/CyLib.c **** }
 786:.\Generated_Source\PSoC4/CyLib.c **** 
 787:.\Generated_Source\PSoC4/CyLib.c **** 
 788:.\Generated_Source\PSoC4/CyLib.c **** /*******************************************************************************
 789:.\Generated_Source\PSoC4/CyLib.c **** * Function Name: CySysWdtWriteToggleBit
 790:.\Generated_Source\PSoC4/CyLib.c **** ********************************************************************************
 791:.\Generated_Source\PSoC4/CyLib.c **** *
 792:.\Generated_Source\PSoC4/CyLib.c **** * Summary:
 793:.\Generated_Source\PSoC4/CyLib.c **** *  Configures which bit in the WDT counter 2 to monitor for a toggle.  When that
 794:.\Generated_Source\PSoC4/CyLib.c **** *  bit toggles an interrupt is generated if the mode for counter 2 has
 795:.\Generated_Source\PSoC4/CyLib.c **** *  interrupts enabled.
ARM GAS  C:\Users\asha\AppData\Local\Temp\ccSrRbz4.s 			page 19


 796:.\Generated_Source\PSoC4/CyLib.c **** *
 797:.\Generated_Source\PSoC4/CyLib.c **** * Parameters:
 798:.\Generated_Source\PSoC4/CyLib.c **** *  bit:
 799:.\Generated_Source\PSoC4/CyLib.c **** *   Valid range [0-31].  Counter 2 bit to monitor for a toggle.
 800:.\Generated_Source\PSoC4/CyLib.c **** *
 801:.\Generated_Source\PSoC4/CyLib.c **** * Return:
 802:.\Generated_Source\PSoC4/CyLib.c **** *   None
 803:.\Generated_Source\PSoC4/CyLib.c **** *
 804:.\Generated_Source\PSoC4/CyLib.c **** * Side effects:
 805:.\Generated_Source\PSoC4/CyLib.c **** *   WDT counter 2 should be disabled. Othetwise function
 806:.\Generated_Source\PSoC4/CyLib.c **** *   call will have no effect.
 807:.\Generated_Source\PSoC4/CyLib.c **** *   This API enables ILO, if it was disabled.
 808:.\Generated_Source\PSoC4/CyLib.c **** *
 809:.\Generated_Source\PSoC4/CyLib.c **** *******************************************************************************/
 810:.\Generated_Source\PSoC4/CyLib.c **** void CySysWdtWriteToggleBit(uint32 bits)
 811:.\Generated_Source\PSoC4/CyLib.c **** {
 812:.\Generated_Source\PSoC4/CyLib.c ****     uint32 configRegValue;
 813:.\Generated_Source\PSoC4/CyLib.c **** 
 814:.\Generated_Source\PSoC4/CyLib.c ****     if (0u == CySysWdtReadEnabledStatus(CY_SYS_WDT_COUNTER2))
 815:.\Generated_Source\PSoC4/CyLib.c ****     {
 816:.\Generated_Source\PSoC4/CyLib.c ****         /* Configuring the WDT involves passing control signals between clock domains,
 817:.\Generated_Source\PSoC4/CyLib.c ****         * which requires the ILO to be enabled.
 818:.\Generated_Source\PSoC4/CyLib.c ****         */
 819:.\Generated_Source\PSoC4/CyLib.c ****         if (0u == (CY_SYS_CLK_ILO_CONFIG_REG & CY_SYS_CLK_ILO_CONFIG_ENABLE))
 820:.\Generated_Source\PSoC4/CyLib.c ****         {
 821:.\Generated_Source\PSoC4/CyLib.c ****             CySysClkIloStart();
 822:.\Generated_Source\PSoC4/CyLib.c ****         }
 823:.\Generated_Source\PSoC4/CyLib.c **** 
 824:.\Generated_Source\PSoC4/CyLib.c ****         configRegValue = CY_SYS_WDT_CONFIG_REG;
 825:.\Generated_Source\PSoC4/CyLib.c ****         configRegValue &= (uint32)(~((uint32)(CY_SYS_WDT_CONFIG_BITS2_MASK << CY_SYS_WDT_CONFIG_BIT
 826:.\Generated_Source\PSoC4/CyLib.c ****         configRegValue |= ((bits & CY_SYS_WDT_CONFIG_BITS2_MASK) << CY_SYS_WDT_CONFIG_BITS2_POS);
 827:.\Generated_Source\PSoC4/CyLib.c ****         CY_SYS_WDT_CONFIG_REG = configRegValue;
 828:.\Generated_Source\PSoC4/CyLib.c ****     }
 829:.\Generated_Source\PSoC4/CyLib.c **** }
 830:.\Generated_Source\PSoC4/CyLib.c **** 
 831:.\Generated_Source\PSoC4/CyLib.c **** 
 832:.\Generated_Source\PSoC4/CyLib.c **** /*******************************************************************************
 833:.\Generated_Source\PSoC4/CyLib.c **** * Function Name: CySysWdtReadToggleBit
 834:.\Generated_Source\PSoC4/CyLib.c **** ********************************************************************************
 835:.\Generated_Source\PSoC4/CyLib.c **** *
 836:.\Generated_Source\PSoC4/CyLib.c **** * Summary:
 837:.\Generated_Source\PSoC4/CyLib.c **** *  Reads which bit in the WDT counter 2 is monitored for a toggle.
 838:.\Generated_Source\PSoC4/CyLib.c **** *
 839:.\Generated_Source\PSoC4/CyLib.c **** * Parameters:
 840:.\Generated_Source\PSoC4/CyLib.c **** *  None
 841:.\Generated_Source\PSoC4/CyLib.c **** *
 842:.\Generated_Source\PSoC4/CyLib.c **** * Return:
 843:.\Generated_Source\PSoC4/CyLib.c **** *  Bit that is monitored (range of 0 to 31)
 844:.\Generated_Source\PSoC4/CyLib.c **** *
 845:.\Generated_Source\PSoC4/CyLib.c **** *******************************************************************************/
 846:.\Generated_Source\PSoC4/CyLib.c **** uint32 CySysWdtReadToggleBit(void)
 847:.\Generated_Source\PSoC4/CyLib.c **** {
 848:.\Generated_Source\PSoC4/CyLib.c ****     return ((CY_SYS_WDT_CONFIG_REG >> CY_SYS_WDT_CONFIG_BITS2_POS) & CY_SYS_WDT_CONFIG_BITS2_MASK);
 849:.\Generated_Source\PSoC4/CyLib.c **** }
 850:.\Generated_Source\PSoC4/CyLib.c **** 
 851:.\Generated_Source\PSoC4/CyLib.c **** 
 852:.\Generated_Source\PSoC4/CyLib.c **** /*******************************************************************************
ARM GAS  C:\Users\asha\AppData\Local\Temp\ccSrRbz4.s 			page 20


 853:.\Generated_Source\PSoC4/CyLib.c **** * Function Name: CySysWdtReadMatch
 854:.\Generated_Source\PSoC4/CyLib.c **** ********************************************************************************
 855:.\Generated_Source\PSoC4/CyLib.c **** *
 856:.\Generated_Source\PSoC4/CyLib.c **** * Summary:
 857:.\Generated_Source\PSoC4/CyLib.c **** *  Reads the WDT counter match comparison value.
 858:.\Generated_Source\PSoC4/CyLib.c **** *
 859:.\Generated_Source\PSoC4/CyLib.c **** * Parameters:
 860:.\Generated_Source\PSoC4/CyLib.c **** *  counterNum: Valid range [0-1].  Number of the WDT counter.  Match values
 861:.\Generated_Source\PSoC4/CyLib.c **** *               are not supported by counter 2.
 862:.\Generated_Source\PSoC4/CyLib.c **** *
 863:.\Generated_Source\PSoC4/CyLib.c **** * Return:
 864:.\Generated_Source\PSoC4/CyLib.c **** *  Counter match value
 865:.\Generated_Source\PSoC4/CyLib.c **** *
 866:.\Generated_Source\PSoC4/CyLib.c **** *******************************************************************************/
 867:.\Generated_Source\PSoC4/CyLib.c **** uint32 CySysWdtReadMatch(uint32 counterNum)
 868:.\Generated_Source\PSoC4/CyLib.c **** {
 869:.\Generated_Source\PSoC4/CyLib.c ****     CYASSERT((counterNum == CY_SYS_WDT_COUNTER0) ||
 870:.\Generated_Source\PSoC4/CyLib.c ****                                          (counterNum == CY_SYS_WDT_COUNTER1));
 871:.\Generated_Source\PSoC4/CyLib.c **** 
 872:.\Generated_Source\PSoC4/CyLib.c ****     return ((uint32)(CY_SYS_WDT_MATCH_REG >> (counterNum * CY_SYS_WDT_CNT_MATCH_SHIFT)) & CY_SYS_WD
 873:.\Generated_Source\PSoC4/CyLib.c **** }
 874:.\Generated_Source\PSoC4/CyLib.c **** 
 875:.\Generated_Source\PSoC4/CyLib.c **** 
 876:.\Generated_Source\PSoC4/CyLib.c **** /*******************************************************************************
 877:.\Generated_Source\PSoC4/CyLib.c **** * Function Name: CySysWdtReadCount
 878:.\Generated_Source\PSoC4/CyLib.c **** ********************************************************************************
 879:.\Generated_Source\PSoC4/CyLib.c **** *
 880:.\Generated_Source\PSoC4/CyLib.c **** * Summary:
 881:.\Generated_Source\PSoC4/CyLib.c **** *  Reads the current WDT counter value.
 882:.\Generated_Source\PSoC4/CyLib.c **** *
 883:.\Generated_Source\PSoC4/CyLib.c **** * Parameters:
 884:.\Generated_Source\PSoC4/CyLib.c **** *  counterNum: Valid range [0-2].  Number of the WDT counter.
 885:.\Generated_Source\PSoC4/CyLib.c **** *
 886:.\Generated_Source\PSoC4/CyLib.c **** * Return:
 887:.\Generated_Source\PSoC4/CyLib.c **** *  Live counter value.  Counter 0 and 1 are 16 bit counters and counter
 888:.\Generated_Source\PSoC4/CyLib.c **** *  2 is a 32 bit counter.
 889:.\Generated_Source\PSoC4/CyLib.c **** *
 890:.\Generated_Source\PSoC4/CyLib.c **** *******************************************************************************/
 891:.\Generated_Source\PSoC4/CyLib.c **** uint32 CySysWdtReadCount(uint32 counterNum)
 892:.\Generated_Source\PSoC4/CyLib.c **** {
 893:.\Generated_Source\PSoC4/CyLib.c ****     uint32 regValue = 0u;
 894:.\Generated_Source\PSoC4/CyLib.c **** 
 895:.\Generated_Source\PSoC4/CyLib.c ****     switch(counterNum)
 896:.\Generated_Source\PSoC4/CyLib.c ****     {
 897:.\Generated_Source\PSoC4/CyLib.c ****         /* WDT Counter 0 */
 898:.\Generated_Source\PSoC4/CyLib.c ****         case 0u:
 899:.\Generated_Source\PSoC4/CyLib.c ****             regValue = CY_SYS_WDT_CTRLOW_REG & CY_SYS_WDT_LOWER_16BITS_MASK;
 900:.\Generated_Source\PSoC4/CyLib.c ****         break;
 901:.\Generated_Source\PSoC4/CyLib.c **** 
 902:.\Generated_Source\PSoC4/CyLib.c ****         /* WDT Counter 1 */
 903:.\Generated_Source\PSoC4/CyLib.c ****         case 1u:
 904:.\Generated_Source\PSoC4/CyLib.c ****             regValue = (CY_SYS_WDT_CTRLOW_REG >> CY_SYS_WDT_CNT_MATCH_SHIFT) & CY_SYS_WDT_LOWER_16B
 905:.\Generated_Source\PSoC4/CyLib.c ****         break;
 906:.\Generated_Source\PSoC4/CyLib.c **** 
 907:.\Generated_Source\PSoC4/CyLib.c ****         /* WDT Counter 2 */
 908:.\Generated_Source\PSoC4/CyLib.c ****         case 2u:
 909:.\Generated_Source\PSoC4/CyLib.c ****             regValue = CY_SYS_WDT_CTRHIGH_REG;
ARM GAS  C:\Users\asha\AppData\Local\Temp\ccSrRbz4.s 			page 21


 910:.\Generated_Source\PSoC4/CyLib.c ****         break;
 911:.\Generated_Source\PSoC4/CyLib.c **** 
 912:.\Generated_Source\PSoC4/CyLib.c ****         default:
 913:.\Generated_Source\PSoC4/CyLib.c ****             CYASSERT(0u != 0u);
 914:.\Generated_Source\PSoC4/CyLib.c ****         break;
 915:.\Generated_Source\PSoC4/CyLib.c ****     }
 916:.\Generated_Source\PSoC4/CyLib.c **** 
 917:.\Generated_Source\PSoC4/CyLib.c ****     return (regValue);
 918:.\Generated_Source\PSoC4/CyLib.c **** }
 919:.\Generated_Source\PSoC4/CyLib.c **** 
 920:.\Generated_Source\PSoC4/CyLib.c **** 
 921:.\Generated_Source\PSoC4/CyLib.c **** /*******************************************************************************
 922:.\Generated_Source\PSoC4/CyLib.c **** * Function Name: CySysWdtGetInterruptSource
 923:.\Generated_Source\PSoC4/CyLib.c **** ********************************************************************************
 924:.\Generated_Source\PSoC4/CyLib.c **** *
 925:.\Generated_Source\PSoC4/CyLib.c **** * Summary:
 926:.\Generated_Source\PSoC4/CyLib.c **** *   Reads a mask containing all the WDT counters interrupts that are currently
 927:.\Generated_Source\PSoC4/CyLib.c **** *   set by hardware, if corresponding mode is selected.
 928:.\Generated_Source\PSoC4/CyLib.c **** *
 929:.\Generated_Source\PSoC4/CyLib.c **** * Parameters:
 930:.\Generated_Source\PSoC4/CyLib.c **** *   None
 931:.\Generated_Source\PSoC4/CyLib.c **** *
 932:.\Generated_Source\PSoC4/CyLib.c **** * Return:
 933:.\Generated_Source\PSoC4/CyLib.c **** *   Mask of interrupts set.
 934:.\Generated_Source\PSoC4/CyLib.c **** *   Value    Define                    Counter
 935:.\Generated_Source\PSoC4/CyLib.c **** *   1<<2     CY_SYS_WDT_COUNTER0_INT    0
 936:.\Generated_Source\PSoC4/CyLib.c **** *   1<<10    CY_SYS_WDT_COUNTER1_INT    1
 937:.\Generated_Source\PSoC4/CyLib.c **** *   1<<18    CY_SYS_WDT_COUNTER2_INT    2
 938:.\Generated_Source\PSoC4/CyLib.c **** *
 939:.\Generated_Source\PSoC4/CyLib.c **** *******************************************************************************/
 940:.\Generated_Source\PSoC4/CyLib.c **** uint32 CySysWdtGetInterruptSource(void)
 941:.\Generated_Source\PSoC4/CyLib.c **** {
 942:.\Generated_Source\PSoC4/CyLib.c ****     return (CY_SYS_WDT_CONTROL_REG & (CY_SYS_WDT_COUNTER0_INT | CY_SYS_WDT_COUNTER1_INT | CY_SYS_WD
 943:.\Generated_Source\PSoC4/CyLib.c **** }
 944:.\Generated_Source\PSoC4/CyLib.c **** 
 945:.\Generated_Source\PSoC4/CyLib.c **** 
 946:.\Generated_Source\PSoC4/CyLib.c **** /*******************************************************************************
 947:.\Generated_Source\PSoC4/CyLib.c **** * Function Name: CySysWdtClearInterrupt
 948:.\Generated_Source\PSoC4/CyLib.c **** ********************************************************************************
 949:.\Generated_Source\PSoC4/CyLib.c **** *
 950:.\Generated_Source\PSoC4/CyLib.c **** * Summary:
 951:.\Generated_Source\PSoC4/CyLib.c **** *   Clears all WDT counter interrupts set in the mask. Calling this API also
 952:.\Generated_Source\PSoC4/CyLib.c **** *   prevents Reset from happening when counter mode is set to generate
 953:.\Generated_Source\PSoC4/CyLib.c **** *   3 interrupts and then reset device.
 954:.\Generated_Source\PSoC4/CyLib.c **** *   All WDT interrupts are to be cleared by firmware, otherwise interrupts will
 955:.\Generated_Source\PSoC4/CyLib.c **** *   be generated continuously.
 956:.\Generated_Source\PSoC4/CyLib.c **** *
 957:.\Generated_Source\PSoC4/CyLib.c **** * Parameters:
 958:.\Generated_Source\PSoC4/CyLib.c **** *   counterMask: Mask of all counters to enable
 959:.\Generated_Source\PSoC4/CyLib.c **** *   Value    Define                    Counter
 960:.\Generated_Source\PSoC4/CyLib.c **** *   1<<2     CY_SYS_WDT_COUNTER0_INT    0
 961:.\Generated_Source\PSoC4/CyLib.c **** *   1<<10    CY_SYS_WDT_COUNTER1_INT    1
 962:.\Generated_Source\PSoC4/CyLib.c **** *   1<<18    CY_SYS_WDT_COUNTER2_INT    2
 963:.\Generated_Source\PSoC4/CyLib.c **** *
 964:.\Generated_Source\PSoC4/CyLib.c **** * Return:
 965:.\Generated_Source\PSoC4/CyLib.c **** *   None
 966:.\Generated_Source\PSoC4/CyLib.c **** *
ARM GAS  C:\Users\asha\AppData\Local\Temp\ccSrRbz4.s 			page 22


 967:.\Generated_Source\PSoC4/CyLib.c **** * Side effects:
 968:.\Generated_Source\PSoC4/CyLib.c **** *   This API enables ILO, if it was disabled and temporary removes Watchdog
 969:.\Generated_Source\PSoC4/CyLib.c **** *   lock, if it was set, and restores lock state, after cleaning WDT interrupts,
 970:.\Generated_Source\PSoC4/CyLib.c **** *   that are set in mask.
 971:.\Generated_Source\PSoC4/CyLib.c **** *
 972:.\Generated_Source\PSoC4/CyLib.c **** *******************************************************************************/
 973:.\Generated_Source\PSoC4/CyLib.c **** void CySysWdtClearInterrupt(uint32 counterMask)
 974:.\Generated_Source\PSoC4/CyLib.c **** {
 975:.\Generated_Source\PSoC4/CyLib.c ****     uint8 interruptState;
 976:.\Generated_Source\PSoC4/CyLib.c ****     uint32 wdtLockState;
 977:.\Generated_Source\PSoC4/CyLib.c **** 
 978:.\Generated_Source\PSoC4/CyLib.c ****     interruptState = CyEnterCriticalSection();
 979:.\Generated_Source\PSoC4/CyLib.c **** 
 980:.\Generated_Source\PSoC4/CyLib.c ****     /* Configuring the WDT involves passing control signals between clock domains,
 981:.\Generated_Source\PSoC4/CyLib.c ****     * which requires the ILO to be enabled.
 982:.\Generated_Source\PSoC4/CyLib.c ****     */
 983:.\Generated_Source\PSoC4/CyLib.c ****     if (0u == (CY_SYS_CLK_ILO_CONFIG_REG & CY_SYS_CLK_ILO_CONFIG_ENABLE))
 984:.\Generated_Source\PSoC4/CyLib.c ****     {
 985:.\Generated_Source\PSoC4/CyLib.c ****         CySysClkIloStart();
 986:.\Generated_Source\PSoC4/CyLib.c ****     }
 987:.\Generated_Source\PSoC4/CyLib.c **** 
 988:.\Generated_Source\PSoC4/CyLib.c ****     if ((CY_SYS_CLK_SELECT_REG & (uint32)(CY_SYS_WDT_CLK_LOCK_BITS_MASK)) == CY_SYS_WDT_CLK_LOCK_BI
 989:.\Generated_Source\PSoC4/CyLib.c ****     {
 990:.\Generated_Source\PSoC4/CyLib.c ****         wdtLockState = 1u;
 991:.\Generated_Source\PSoC4/CyLib.c **** 
 992:.\Generated_Source\PSoC4/CyLib.c ****         /* Removing WDT lock requires two writes */
 993:.\Generated_Source\PSoC4/CyLib.c ****         CY_SYS_CLK_SELECT_REG = ((CY_SYS_CLK_SELECT_REG & (uint32)(~CY_SYS_WDT_CLK_LOCK_BITS_MASK))
 994:.\Generated_Source\PSoC4/CyLib.c ****                 CY_SYS_WDT_CLK_LOCK_BIT0);
 995:.\Generated_Source\PSoC4/CyLib.c **** 
 996:.\Generated_Source\PSoC4/CyLib.c ****         CY_SYS_CLK_SELECT_REG = ((CY_SYS_CLK_SELECT_REG & (uint32)(~CY_SYS_WDT_CLK_LOCK_BITS_MASK))
 997:.\Generated_Source\PSoC4/CyLib.c ****                 CY_SYS_WDT_CLK_LOCK_BIT1);
 998:.\Generated_Source\PSoC4/CyLib.c ****     }
 999:.\Generated_Source\PSoC4/CyLib.c ****     else
1000:.\Generated_Source\PSoC4/CyLib.c ****     {
1001:.\Generated_Source\PSoC4/CyLib.c ****         wdtLockState = 0u;
1002:.\Generated_Source\PSoC4/CyLib.c ****     }
1003:.\Generated_Source\PSoC4/CyLib.c **** 
1004:.\Generated_Source\PSoC4/CyLib.c ****     /* Set the new WDT control register value */
1005:.\Generated_Source\PSoC4/CyLib.c ****     CY_SYS_WDT_CONTROL_REG |= (counterMask & (CY_SYS_WDT_COUNTER0_INT |
1006:.\Generated_Source\PSoC4/CyLib.c ****         CY_SYS_WDT_COUNTER1_INT | CY_SYS_WDT_COUNTER2_INT));
1007:.\Generated_Source\PSoC4/CyLib.c **** 
1008:.\Generated_Source\PSoC4/CyLib.c ****     if (1u == wdtLockState)
1009:.\Generated_Source\PSoC4/CyLib.c ****     {
1010:.\Generated_Source\PSoC4/CyLib.c ****         /* CLK_SELECT register's bits 15:14 are WDT_LOCK */
1011:.\Generated_Source\PSoC4/CyLib.c ****         CY_SYS_CLK_SELECT_REG = (CY_SYS_CLK_SELECT_REG & (uint32)(~CY_SYS_WDT_CLK_LOCK_BITS_MASK)) 
1012:.\Generated_Source\PSoC4/CyLib.c ****                  CY_SYS_WDT_CLK_LOCK_BITS_MASK;
1013:.\Generated_Source\PSoC4/CyLib.c ****     }
1014:.\Generated_Source\PSoC4/CyLib.c **** 
1015:.\Generated_Source\PSoC4/CyLib.c ****     CyExitCriticalSection(interruptState);
1016:.\Generated_Source\PSoC4/CyLib.c **** }
1017:.\Generated_Source\PSoC4/CyLib.c **** 
1018:.\Generated_Source\PSoC4/CyLib.c **** 
1019:.\Generated_Source\PSoC4/CyLib.c **** /*******************************************************************************
1020:.\Generated_Source\PSoC4/CyLib.c **** * Function Name: CySysWdtResetCounters
1021:.\Generated_Source\PSoC4/CyLib.c **** ********************************************************************************
1022:.\Generated_Source\PSoC4/CyLib.c **** *
1023:.\Generated_Source\PSoC4/CyLib.c **** * Summary:
ARM GAS  C:\Users\asha\AppData\Local\Temp\ccSrRbz4.s 			page 23


1024:.\Generated_Source\PSoC4/CyLib.c **** *  Resets all WDT counters set in the mask.
1025:.\Generated_Source\PSoC4/CyLib.c **** *
1026:.\Generated_Source\PSoC4/CyLib.c **** * Parameters:
1027:.\Generated_Source\PSoC4/CyLib.c **** *  counterMask: Mask of all counters to reset.
1028:.\Generated_Source\PSoC4/CyLib.c **** *   Value    Define                       Counter
1029:.\Generated_Source\PSoC4/CyLib.c **** *   1<<3     CY_SYS_WDT_COUNTER0_RESET    0
1030:.\Generated_Source\PSoC4/CyLib.c **** *   1<<11    CY_SYS_WDT_COUNTER1_RESET    1
1031:.\Generated_Source\PSoC4/CyLib.c **** *   1<<19    CY_SYS_WDT_COUNTER2_RESET    2
1032:.\Generated_Source\PSoC4/CyLib.c **** *
1033:.\Generated_Source\PSoC4/CyLib.c **** * Return:
1034:.\Generated_Source\PSoC4/CyLib.c **** *   None
1035:.\Generated_Source\PSoC4/CyLib.c **** *
1036:.\Generated_Source\PSoC4/CyLib.c **** * Side effects:
1037:.\Generated_Source\PSoC4/CyLib.c **** *   This API enables ILO, if it was disabled, this API call will not reset
1038:.\Generated_Source\PSoC4/CyLib.c **** *   counter values, if Watchdog is locked.
1039:.\Generated_Source\PSoC4/CyLib.c **** *
1040:.\Generated_Source\PSoC4/CyLib.c **** *******************************************************************************/
1041:.\Generated_Source\PSoC4/CyLib.c **** void CySysWdtResetCounters(uint32 countersMask)
1042:.\Generated_Source\PSoC4/CyLib.c **** {
1043:.\Generated_Source\PSoC4/CyLib.c ****     /* Configuring the WDT involves passing control signals between clock domains,
1044:.\Generated_Source\PSoC4/CyLib.c ****     * which requires the ILO to be enabled.
1045:.\Generated_Source\PSoC4/CyLib.c ****     */
1046:.\Generated_Source\PSoC4/CyLib.c ****     if (0u == (CY_SYS_CLK_ILO_CONFIG_REG & CY_SYS_CLK_ILO_CONFIG_ENABLE))
1047:.\Generated_Source\PSoC4/CyLib.c ****     {
1048:.\Generated_Source\PSoC4/CyLib.c ****         CySysClkIloStart();
1049:.\Generated_Source\PSoC4/CyLib.c ****     }
1050:.\Generated_Source\PSoC4/CyLib.c **** 
1051:.\Generated_Source\PSoC4/CyLib.c ****     /* Set the new WDT reset value */
1052:.\Generated_Source\PSoC4/CyLib.c ****     CY_SYS_WDT_CONTROL_REG |= (countersMask & (CY_SYS_WDT_COUNTER0_RESET |
1053:.\Generated_Source\PSoC4/CyLib.c ****         CY_SYS_WDT_COUNTER1_RESET | CY_SYS_WDT_COUNTER2_RESET));
1054:.\Generated_Source\PSoC4/CyLib.c **** }
1055:.\Generated_Source\PSoC4/CyLib.c **** 
1056:.\Generated_Source\PSoC4/CyLib.c **** 
1057:.\Generated_Source\PSoC4/CyLib.c **** /*******************************************************************************
1058:.\Generated_Source\PSoC4/CyLib.c **** * Function Name: CySysLvdEnable
1059:.\Generated_Source\PSoC4/CyLib.c **** ********************************************************************************
1060:.\Generated_Source\PSoC4/CyLib.c **** *
1061:.\Generated_Source\PSoC4/CyLib.c **** * Summary:
1062:.\Generated_Source\PSoC4/CyLib.c **** *  Enables the output of the low-voltage monitor when Vddd is at or below the
1063:.\Generated_Source\PSoC4/CyLib.c **** *  trip point, configures device to generate an interrupt, and sets the voltage
1064:.\Generated_Source\PSoC4/CyLib.c **** *  trip level.
1065:.\Generated_Source\PSoC4/CyLib.c **** *
1066:.\Generated_Source\PSoC4/CyLib.c **** * Parameters:
1067:.\Generated_Source\PSoC4/CyLib.c **** *  threshold: Threshold selection for Low Voltage Detect circuit.
1068:.\Generated_Source\PSoC4/CyLib.c **** *  Threshold variation is +/- 2.5% from these typical voltage choices.
1069:.\Generated_Source\PSoC4/CyLib.c **** *         Define                     Voltage threshold
1070:.\Generated_Source\PSoC4/CyLib.c **** *    CY_LVD_THRESHOLD_1_75_V       1.7500 V
1071:.\Generated_Source\PSoC4/CyLib.c **** *    CY_LVD_THRESHOLD_1_80_V       1.8000 V
1072:.\Generated_Source\PSoC4/CyLib.c **** *    CY_LVD_THRESHOLD_1_90_V       1.9000 V
1073:.\Generated_Source\PSoC4/CyLib.c **** *    CY_LVD_THRESHOLD_2_00_V       2.0000 V
1074:.\Generated_Source\PSoC4/CyLib.c **** *    CY_LVD_THRESHOLD_2_10_V       2.1000 V
1075:.\Generated_Source\PSoC4/CyLib.c **** *    CY_LVD_THRESHOLD_2_20_V       2.2000 V
1076:.\Generated_Source\PSoC4/CyLib.c **** *    CY_LVD_THRESHOLD_2_30_V       2.3000 V
1077:.\Generated_Source\PSoC4/CyLib.c **** *    CY_LVD_THRESHOLD_2_40_V       2.4000 V
1078:.\Generated_Source\PSoC4/CyLib.c **** *    CY_LVD_THRESHOLD_2_50_V       2.5000 V
1079:.\Generated_Source\PSoC4/CyLib.c **** *    CY_LVD_THRESHOLD_2_60_V       2.6000 V
1080:.\Generated_Source\PSoC4/CyLib.c **** *    CY_LVD_THRESHOLD_2_70_V       2.7000 V
ARM GAS  C:\Users\asha\AppData\Local\Temp\ccSrRbz4.s 			page 24


1081:.\Generated_Source\PSoC4/CyLib.c **** *    CY_LVD_THRESHOLD_2_80_V       2.8000 V
1082:.\Generated_Source\PSoC4/CyLib.c **** *    CY_LVD_THRESHOLD_2_90_V       2.9000 V
1083:.\Generated_Source\PSoC4/CyLib.c **** *    CY_LVD_THRESHOLD_3_00_V       3.0000 V
1084:.\Generated_Source\PSoC4/CyLib.c **** *    CY_LVD_THRESHOLD_3_20_V       3.2000 V
1085:.\Generated_Source\PSoC4/CyLib.c **** *    CY_LVD_THRESHOLD_4_50_V       4.5000 V
1086:.\Generated_Source\PSoC4/CyLib.c **** *
1087:.\Generated_Source\PSoC4/CyLib.c **** * Return:
1088:.\Generated_Source\PSoC4/CyLib.c **** *  None
1089:.\Generated_Source\PSoC4/CyLib.c **** *
1090:.\Generated_Source\PSoC4/CyLib.c **** *******************************************************************************/
1091:.\Generated_Source\PSoC4/CyLib.c **** void CySysLvdEnable(uint32 threshold)
1092:.\Generated_Source\PSoC4/CyLib.c **** {
1093:.\Generated_Source\PSoC4/CyLib.c ****     /* Set threshold */
1094:.\Generated_Source\PSoC4/CyLib.c ****     CY_LVD_PWR_VMON_CONFIG_REG = (CY_LVD_PWR_VMON_CONFIG_REG & ~CY_LVD_PWR_VMON_CONFIG_LVD_SEL_MASK
1095:.\Generated_Source\PSoC4/CyLib.c ****             ((threshold << CY_LVD_PWR_VMON_CONFIG_LVD_SEL_SHIFT) & CY_LVD_PWR_VMON_CONFIG_LVD_SEL_M
1096:.\Generated_Source\PSoC4/CyLib.c **** 
1097:.\Generated_Source\PSoC4/CyLib.c ****     CY_LVD_PWR_VMON_CONFIG_REG |= CY_LVD_PWR_VMON_CONFIG_LVD_EN;
1098:.\Generated_Source\PSoC4/CyLib.c ****     CY_LVD_PWR_INTR_MASK_REG   |= CY_LVD_PROPAGATE_INT_TO_CPU;
1099:.\Generated_Source\PSoC4/CyLib.c **** }
1100:.\Generated_Source\PSoC4/CyLib.c **** 
1101:.\Generated_Source\PSoC4/CyLib.c **** 
1102:.\Generated_Source\PSoC4/CyLib.c **** /*******************************************************************************
1103:.\Generated_Source\PSoC4/CyLib.c **** * Function Name: CySysLvdDisable
1104:.\Generated_Source\PSoC4/CyLib.c **** ********************************************************************************
1105:.\Generated_Source\PSoC4/CyLib.c **** *
1106:.\Generated_Source\PSoC4/CyLib.c **** * Summary:
1107:.\Generated_Source\PSoC4/CyLib.c **** *  Disables the low voltage detection. Low voltage interrupt is disabled.
1108:.\Generated_Source\PSoC4/CyLib.c **** *
1109:.\Generated_Source\PSoC4/CyLib.c **** * Parameters:
1110:.\Generated_Source\PSoC4/CyLib.c **** *  None
1111:.\Generated_Source\PSoC4/CyLib.c **** *
1112:.\Generated_Source\PSoC4/CyLib.c **** * Return:
1113:.\Generated_Source\PSoC4/CyLib.c **** *  None
1114:.\Generated_Source\PSoC4/CyLib.c **** *
1115:.\Generated_Source\PSoC4/CyLib.c **** *******************************************************************************/
1116:.\Generated_Source\PSoC4/CyLib.c **** void CySysLvdDisable(void)
1117:.\Generated_Source\PSoC4/CyLib.c **** {
1118:.\Generated_Source\PSoC4/CyLib.c ****     CY_LVD_PWR_INTR_MASK_REG   &= ~CY_LVD_PROPAGATE_INT_TO_CPU;
1119:.\Generated_Source\PSoC4/CyLib.c ****     CY_LVD_PWR_VMON_CONFIG_REG &= ~CY_LVD_PWR_VMON_CONFIG_LVD_EN;
1120:.\Generated_Source\PSoC4/CyLib.c **** }
1121:.\Generated_Source\PSoC4/CyLib.c **** 
1122:.\Generated_Source\PSoC4/CyLib.c **** 
1123:.\Generated_Source\PSoC4/CyLib.c **** /*******************************************************************************
1124:.\Generated_Source\PSoC4/CyLib.c **** * Function Name: CySysLvdGetInterruptSource
1125:.\Generated_Source\PSoC4/CyLib.c **** ********************************************************************************
1126:.\Generated_Source\PSoC4/CyLib.c **** *
1127:.\Generated_Source\PSoC4/CyLib.c **** * Summary:
1128:.\Generated_Source\PSoC4/CyLib.c **** *  Gets the low voltage detection interrupt status (without clearing).
1129:.\Generated_Source\PSoC4/CyLib.c **** *
1130:.\Generated_Source\PSoC4/CyLib.c **** * Parameters:
1131:.\Generated_Source\PSoC4/CyLib.c **** *  None
1132:.\Generated_Source\PSoC4/CyLib.c **** *
1133:.\Generated_Source\PSoC4/CyLib.c **** * Return:
1134:.\Generated_Source\PSoC4/CyLib.c **** *  Interrupt request value:
1135:.\Generated_Source\PSoC4/CyLib.c **** *    CY_SYS_LVD_INT - Indicates an Low Voltage Detect interrupt
1136:.\Generated_Source\PSoC4/CyLib.c **** *
1137:.\Generated_Source\PSoC4/CyLib.c **** *******************************************************************************/
ARM GAS  C:\Users\asha\AppData\Local\Temp\ccSrRbz4.s 			page 25


1138:.\Generated_Source\PSoC4/CyLib.c **** uint32 CySysLvdGetInterruptSource(void)
1139:.\Generated_Source\PSoC4/CyLib.c **** {
1140:.\Generated_Source\PSoC4/CyLib.c ****     return (CY_LVD_PWR_INTR_REG & CY_SYS_LVD_INT);
1141:.\Generated_Source\PSoC4/CyLib.c **** }
1142:.\Generated_Source\PSoC4/CyLib.c **** 
1143:.\Generated_Source\PSoC4/CyLib.c **** 
1144:.\Generated_Source\PSoC4/CyLib.c **** /*******************************************************************************
1145:.\Generated_Source\PSoC4/CyLib.c **** * Function Name: CySysLvdClearInterrupt
1146:.\Generated_Source\PSoC4/CyLib.c **** ********************************************************************************
1147:.\Generated_Source\PSoC4/CyLib.c **** *
1148:.\Generated_Source\PSoC4/CyLib.c **** * Summary:
1149:.\Generated_Source\PSoC4/CyLib.c **** *  Clears the low voltage detection interrupt status.
1150:.\Generated_Source\PSoC4/CyLib.c **** *
1151:.\Generated_Source\PSoC4/CyLib.c **** * Parameters:
1152:.\Generated_Source\PSoC4/CyLib.c **** *  None
1153:.\Generated_Source\PSoC4/CyLib.c **** *
1154:.\Generated_Source\PSoC4/CyLib.c **** * Return:
1155:.\Generated_Source\PSoC4/CyLib.c **** *  None
1156:.\Generated_Source\PSoC4/CyLib.c **** *
1157:.\Generated_Source\PSoC4/CyLib.c **** *******************************************************************************/
1158:.\Generated_Source\PSoC4/CyLib.c **** void CySysLvdClearInterrupt(void)
1159:.\Generated_Source\PSoC4/CyLib.c **** {
1160:.\Generated_Source\PSoC4/CyLib.c ****     CY_LVD_PWR_INTR_REG = CY_SYS_LVD_INT;
1161:.\Generated_Source\PSoC4/CyLib.c **** }
1162:.\Generated_Source\PSoC4/CyLib.c **** 
1163:.\Generated_Source\PSoC4/CyLib.c **** 
1164:.\Generated_Source\PSoC4/CyLib.c **** /*******************************************************************************
1165:.\Generated_Source\PSoC4/CyLib.c **** * Function Name: CyDisableInts
1166:.\Generated_Source\PSoC4/CyLib.c **** ********************************************************************************
1167:.\Generated_Source\PSoC4/CyLib.c **** *
1168:.\Generated_Source\PSoC4/CyLib.c **** * Summary:
1169:.\Generated_Source\PSoC4/CyLib.c **** *  Disables all interrupts.
1170:.\Generated_Source\PSoC4/CyLib.c **** *
1171:.\Generated_Source\PSoC4/CyLib.c **** * Parameters:
1172:.\Generated_Source\PSoC4/CyLib.c **** *  None
1173:.\Generated_Source\PSoC4/CyLib.c **** *
1174:.\Generated_Source\PSoC4/CyLib.c **** * Return:
1175:.\Generated_Source\PSoC4/CyLib.c **** *  32 bit mask of previously enabled interrupts.
1176:.\Generated_Source\PSoC4/CyLib.c **** *
1177:.\Generated_Source\PSoC4/CyLib.c **** *******************************************************************************/
1178:.\Generated_Source\PSoC4/CyLib.c **** uint32 CyDisableInts(void)
1179:.\Generated_Source\PSoC4/CyLib.c **** {
1180:.\Generated_Source\PSoC4/CyLib.c ****     uint32 intState;
1181:.\Generated_Source\PSoC4/CyLib.c **** 
1182:.\Generated_Source\PSoC4/CyLib.c ****     /* Get the curreent interrupt state. */
1183:.\Generated_Source\PSoC4/CyLib.c ****     intState = CY_INT_CLEAR_REG;
1184:.\Generated_Source\PSoC4/CyLib.c **** 
1185:.\Generated_Source\PSoC4/CyLib.c ****     /* Disable all of the interrupts. */
1186:.\Generated_Source\PSoC4/CyLib.c ****     CY_INT_CLEAR_REG = CY_INT_CLEAR_DISABLE_ALL;
1187:.\Generated_Source\PSoC4/CyLib.c **** 
1188:.\Generated_Source\PSoC4/CyLib.c ****     return (intState);
1189:.\Generated_Source\PSoC4/CyLib.c **** }
1190:.\Generated_Source\PSoC4/CyLib.c **** 
1191:.\Generated_Source\PSoC4/CyLib.c **** 
1192:.\Generated_Source\PSoC4/CyLib.c **** /*******************************************************************************
1193:.\Generated_Source\PSoC4/CyLib.c **** * Function Name: CyEnableInts
1194:.\Generated_Source\PSoC4/CyLib.c **** ********************************************************************************
ARM GAS  C:\Users\asha\AppData\Local\Temp\ccSrRbz4.s 			page 26


1195:.\Generated_Source\PSoC4/CyLib.c **** *
1196:.\Generated_Source\PSoC4/CyLib.c **** * Summary:
1197:.\Generated_Source\PSoC4/CyLib.c **** *  Enables interrupts to a given state.
1198:.\Generated_Source\PSoC4/CyLib.c **** *
1199:.\Generated_Source\PSoC4/CyLib.c **** * Parameters:
1200:.\Generated_Source\PSoC4/CyLib.c **** *   mask, 32 bit mask of interrupts to enable.
1201:.\Generated_Source\PSoC4/CyLib.c **** *
1202:.\Generated_Source\PSoC4/CyLib.c **** * Return:
1203:.\Generated_Source\PSoC4/CyLib.c **** *  None
1204:.\Generated_Source\PSoC4/CyLib.c **** *
1205:.\Generated_Source\PSoC4/CyLib.c **** *******************************************************************************/
1206:.\Generated_Source\PSoC4/CyLib.c **** void CyEnableInts(uint32 mask)
1207:.\Generated_Source\PSoC4/CyLib.c **** {
1208:.\Generated_Source\PSoC4/CyLib.c ****     CY_INT_ENABLE_REG = mask;
1209:.\Generated_Source\PSoC4/CyLib.c **** }
1210:.\Generated_Source\PSoC4/CyLib.c **** 
1211:.\Generated_Source\PSoC4/CyLib.c **** 
1212:.\Generated_Source\PSoC4/CyLib.c **** /*******************************************************************************
1213:.\Generated_Source\PSoC4/CyLib.c **** * Function Name: CyIntSetSysVector
1214:.\Generated_Source\PSoC4/CyLib.c **** ********************************************************************************
1215:.\Generated_Source\PSoC4/CyLib.c **** *
1216:.\Generated_Source\PSoC4/CyLib.c **** * Summary:
1217:.\Generated_Source\PSoC4/CyLib.c **** *  Sets the interrupt vector of the specified system interrupt number. These
1218:.\Generated_Source\PSoC4/CyLib.c **** *  interrupts are for SysTick, PendSV and others.
1219:.\Generated_Source\PSoC4/CyLib.c **** *
1220:.\Generated_Source\PSoC4/CyLib.c **** * Parameters:
1221:.\Generated_Source\PSoC4/CyLib.c **** *  number: Interrupt number, valid range [0-15].
1222:.\Generated_Source\PSoC4/CyLib.c **** *  address: Pointer to an interrupt service routine.
1223:.\Generated_Source\PSoC4/CyLib.c **** *
1224:.\Generated_Source\PSoC4/CyLib.c **** * Return:
1225:.\Generated_Source\PSoC4/CyLib.c **** *  The old ISR vector at this location.
1226:.\Generated_Source\PSoC4/CyLib.c **** *
1227:.\Generated_Source\PSoC4/CyLib.c **** *******************************************************************************/
1228:.\Generated_Source\PSoC4/CyLib.c **** cyisraddress CyIntSetSysVector(uint8 number, cyisraddress address)
1229:.\Generated_Source\PSoC4/CyLib.c **** {
1230:.\Generated_Source\PSoC4/CyLib.c ****     cyisraddress oldIsr;
1231:.\Generated_Source\PSoC4/CyLib.c ****     cyisraddress *ramVectorTable = (cyisraddress *) CY_INT_VECT_TABLE;
1232:.\Generated_Source\PSoC4/CyLib.c **** 
1233:.\Generated_Source\PSoC4/CyLib.c ****     CYASSERT(number < CY_INT_IRQ_BASE);
1234:.\Generated_Source\PSoC4/CyLib.c **** 
1235:.\Generated_Source\PSoC4/CyLib.c ****     /* Save old Interrupt service routine. */
1236:.\Generated_Source\PSoC4/CyLib.c ****     oldIsr = ramVectorTable[number];
1237:.\Generated_Source\PSoC4/CyLib.c **** 
1238:.\Generated_Source\PSoC4/CyLib.c ****     /* Set new Interrupt service routine. */
1239:.\Generated_Source\PSoC4/CyLib.c ****     ramVectorTable[number] = address;
1240:.\Generated_Source\PSoC4/CyLib.c **** 
1241:.\Generated_Source\PSoC4/CyLib.c ****     return(oldIsr);
1242:.\Generated_Source\PSoC4/CyLib.c **** }
1243:.\Generated_Source\PSoC4/CyLib.c **** 
1244:.\Generated_Source\PSoC4/CyLib.c **** 
1245:.\Generated_Source\PSoC4/CyLib.c **** /*******************************************************************************
1246:.\Generated_Source\PSoC4/CyLib.c **** * Function Name: CyIntGetSysVector
1247:.\Generated_Source\PSoC4/CyLib.c **** ********************************************************************************
1248:.\Generated_Source\PSoC4/CyLib.c **** *
1249:.\Generated_Source\PSoC4/CyLib.c **** * Summary:
1250:.\Generated_Source\PSoC4/CyLib.c **** *   Gets the interrupt vector of the specified system interrupt number. These
1251:.\Generated_Source\PSoC4/CyLib.c **** *   interrupts are for SysTick, PendSV and others.
ARM GAS  C:\Users\asha\AppData\Local\Temp\ccSrRbz4.s 			page 27


1252:.\Generated_Source\PSoC4/CyLib.c **** *
1253:.\Generated_Source\PSoC4/CyLib.c **** * Parameters:
1254:.\Generated_Source\PSoC4/CyLib.c **** *   number: The interrupt number, valid range [0-15].
1255:.\Generated_Source\PSoC4/CyLib.c **** *
1256:.\Generated_Source\PSoC4/CyLib.c **** * Return:
1257:.\Generated_Source\PSoC4/CyLib.c **** *   Address of the ISR in the interrupt vector table.
1258:.\Generated_Source\PSoC4/CyLib.c **** *
1259:.\Generated_Source\PSoC4/CyLib.c **** *******************************************************************************/
1260:.\Generated_Source\PSoC4/CyLib.c **** cyisraddress CyIntGetSysVector(uint8 number)
1261:.\Generated_Source\PSoC4/CyLib.c **** {
1262:.\Generated_Source\PSoC4/CyLib.c ****     cyisraddress *ramVectorTable = (cyisraddress *) CY_INT_VECT_TABLE;
1263:.\Generated_Source\PSoC4/CyLib.c **** 
1264:.\Generated_Source\PSoC4/CyLib.c ****     CYASSERT(number < CY_INT_IRQ_BASE);
1265:.\Generated_Source\PSoC4/CyLib.c **** 
1266:.\Generated_Source\PSoC4/CyLib.c ****     return(ramVectorTable[number]);
1267:.\Generated_Source\PSoC4/CyLib.c **** }
1268:.\Generated_Source\PSoC4/CyLib.c **** 
1269:.\Generated_Source\PSoC4/CyLib.c **** 
1270:.\Generated_Source\PSoC4/CyLib.c **** /*******************************************************************************
1271:.\Generated_Source\PSoC4/CyLib.c **** * Function Name: CyIntSetVector
1272:.\Generated_Source\PSoC4/CyLib.c **** ********************************************************************************
1273:.\Generated_Source\PSoC4/CyLib.c **** *
1274:.\Generated_Source\PSoC4/CyLib.c **** * Summary:
1275:.\Generated_Source\PSoC4/CyLib.c **** *  Sets the interrupt vector of the specified interrupt number.
1276:.\Generated_Source\PSoC4/CyLib.c **** *
1277:.\Generated_Source\PSoC4/CyLib.c **** * Parameters:
1278:.\Generated_Source\PSoC4/CyLib.c **** *  number: Valid range [0-31].  Interrupt number
1279:.\Generated_Source\PSoC4/CyLib.c **** *  address: Pointer to an interrupt service routine
1280:.\Generated_Source\PSoC4/CyLib.c **** *
1281:.\Generated_Source\PSoC4/CyLib.c **** * Return:
1282:.\Generated_Source\PSoC4/CyLib.c **** *   Previous interrupt vector value.
1283:.\Generated_Source\PSoC4/CyLib.c **** *
1284:.\Generated_Source\PSoC4/CyLib.c **** *******************************************************************************/
1285:.\Generated_Source\PSoC4/CyLib.c **** cyisraddress CyIntSetVector(uint8 number, cyisraddress address)
1286:.\Generated_Source\PSoC4/CyLib.c **** {
1287:.\Generated_Source\PSoC4/CyLib.c ****     cyisraddress oldIsr;
1288:.\Generated_Source\PSoC4/CyLib.c ****     cyisraddress *ramVectorTable = (cyisraddress *) CY_INT_VECT_TABLE;
1289:.\Generated_Source\PSoC4/CyLib.c **** 
1290:.\Generated_Source\PSoC4/CyLib.c ****     CYASSERT(number < CY_NUM_INTERRUPTS);
1291:.\Generated_Source\PSoC4/CyLib.c **** 
1292:.\Generated_Source\PSoC4/CyLib.c ****     /* Save old Interrupt service routine. */
1293:.\Generated_Source\PSoC4/CyLib.c ****     oldIsr = ramVectorTable[CY_INT_IRQ_BASE + number];
1294:.\Generated_Source\PSoC4/CyLib.c **** 
1295:.\Generated_Source\PSoC4/CyLib.c ****     /* Set new Interrupt service routine. */
1296:.\Generated_Source\PSoC4/CyLib.c ****     ramVectorTable[CY_INT_IRQ_BASE + number] = address;
1297:.\Generated_Source\PSoC4/CyLib.c **** 
1298:.\Generated_Source\PSoC4/CyLib.c ****     return(oldIsr);
1299:.\Generated_Source\PSoC4/CyLib.c **** }
1300:.\Generated_Source\PSoC4/CyLib.c **** 
1301:.\Generated_Source\PSoC4/CyLib.c **** 
1302:.\Generated_Source\PSoC4/CyLib.c **** /*******************************************************************************
1303:.\Generated_Source\PSoC4/CyLib.c **** * Function Name: CyIntGetVector
1304:.\Generated_Source\PSoC4/CyLib.c **** ********************************************************************************
1305:.\Generated_Source\PSoC4/CyLib.c **** *
1306:.\Generated_Source\PSoC4/CyLib.c **** * Summary:
1307:.\Generated_Source\PSoC4/CyLib.c **** *  Gets the interrupt vector of the specified interrupt number.
1308:.\Generated_Source\PSoC4/CyLib.c **** *
ARM GAS  C:\Users\asha\AppData\Local\Temp\ccSrRbz4.s 			page 28


1309:.\Generated_Source\PSoC4/CyLib.c **** * Parameters:
1310:.\Generated_Source\PSoC4/CyLib.c **** *  number: Valid range [0-31].  Interrupt number
1311:.\Generated_Source\PSoC4/CyLib.c **** *
1312:.\Generated_Source\PSoC4/CyLib.c **** * Return:
1313:.\Generated_Source\PSoC4/CyLib.c **** *  Address of the ISR in the interrupt vector table.
1314:.\Generated_Source\PSoC4/CyLib.c **** *
1315:.\Generated_Source\PSoC4/CyLib.c **** *******************************************************************************/
1316:.\Generated_Source\PSoC4/CyLib.c **** cyisraddress CyIntGetVector(uint8 number)
1317:.\Generated_Source\PSoC4/CyLib.c **** {
1318:.\Generated_Source\PSoC4/CyLib.c ****     cyisraddress *ramVectorTable = (cyisraddress *) CY_INT_VECT_TABLE;
1319:.\Generated_Source\PSoC4/CyLib.c **** 
1320:.\Generated_Source\PSoC4/CyLib.c ****     CYASSERT(number < CY_NUM_INTERRUPTS);
1321:.\Generated_Source\PSoC4/CyLib.c **** 
1322:.\Generated_Source\PSoC4/CyLib.c ****     return (ramVectorTable[CY_INT_IRQ_BASE + number]);
1323:.\Generated_Source\PSoC4/CyLib.c **** }
1324:.\Generated_Source\PSoC4/CyLib.c **** 
1325:.\Generated_Source\PSoC4/CyLib.c **** /*******************************************************************************
1326:.\Generated_Source\PSoC4/CyLib.c **** * Function Name: CyIntSetPriority
1327:.\Generated_Source\PSoC4/CyLib.c **** ********************************************************************************
1328:.\Generated_Source\PSoC4/CyLib.c **** *
1329:.\Generated_Source\PSoC4/CyLib.c **** * Summary:
1330:.\Generated_Source\PSoC4/CyLib.c **** *  Sets the priority of the interrupt.
1331:.\Generated_Source\PSoC4/CyLib.c **** *
1332:.\Generated_Source\PSoC4/CyLib.c **** * Parameters:
1333:.\Generated_Source\PSoC4/CyLib.c **** *  priority: Priority of the interrupt. 0 - 3, 0 being the highest.
1334:.\Generated_Source\PSoC4/CyLib.c **** *  number: The number of the interrupt, 0 - 31.
1335:.\Generated_Source\PSoC4/CyLib.c **** *
1336:.\Generated_Source\PSoC4/CyLib.c **** * Return:
1337:.\Generated_Source\PSoC4/CyLib.c **** *  None
1338:.\Generated_Source\PSoC4/CyLib.c **** *
1339:.\Generated_Source\PSoC4/CyLib.c **** *******************************************************************************/
1340:.\Generated_Source\PSoC4/CyLib.c **** void CyIntSetPriority(uint8 number, uint8 priority)
1341:.\Generated_Source\PSoC4/CyLib.c **** {
1342:.\Generated_Source\PSoC4/CyLib.c ****     uint8 interruptState;
1343:.\Generated_Source\PSoC4/CyLib.c ****     uint32 shift;
1344:.\Generated_Source\PSoC4/CyLib.c ****     uint32 value;
1345:.\Generated_Source\PSoC4/CyLib.c **** 
1346:.\Generated_Source\PSoC4/CyLib.c ****     CYASSERT(priority <= CY_MIN_PRIORITY);
1347:.\Generated_Source\PSoC4/CyLib.c ****     CYASSERT(number < CY_NUM_INTERRUPTS);
1348:.\Generated_Source\PSoC4/CyLib.c **** 
1349:.\Generated_Source\PSoC4/CyLib.c ****     shift = CY_INT_PRIORITY_SHIFT(number);
1350:.\Generated_Source\PSoC4/CyLib.c **** 
1351:.\Generated_Source\PSoC4/CyLib.c ****     interruptState = CyEnterCriticalSection();
1352:.\Generated_Source\PSoC4/CyLib.c **** 
1353:.\Generated_Source\PSoC4/CyLib.c ****     value = CY_INT_PRIORITY_REG(number);
1354:.\Generated_Source\PSoC4/CyLib.c ****     value &= (uint32)(~((uint32)(CY_INT_PRIORITY_MASK << shift)));
1355:.\Generated_Source\PSoC4/CyLib.c ****     value |= ((uint32)priority << shift);
1356:.\Generated_Source\PSoC4/CyLib.c ****     CY_INT_PRIORITY_REG(number) = value;
1357:.\Generated_Source\PSoC4/CyLib.c **** 
1358:.\Generated_Source\PSoC4/CyLib.c ****     CyExitCriticalSection(interruptState);
1359:.\Generated_Source\PSoC4/CyLib.c **** }
1360:.\Generated_Source\PSoC4/CyLib.c **** 
1361:.\Generated_Source\PSoC4/CyLib.c **** 
1362:.\Generated_Source\PSoC4/CyLib.c **** /*******************************************************************************
1363:.\Generated_Source\PSoC4/CyLib.c **** * Function Name: CyIntGetPriority
1364:.\Generated_Source\PSoC4/CyLib.c **** ********************************************************************************
1365:.\Generated_Source\PSoC4/CyLib.c **** *
ARM GAS  C:\Users\asha\AppData\Local\Temp\ccSrRbz4.s 			page 29


1366:.\Generated_Source\PSoC4/CyLib.c **** * Summary:
1367:.\Generated_Source\PSoC4/CyLib.c **** *  Gets the priority of the interrupt.
1368:.\Generated_Source\PSoC4/CyLib.c **** *
1369:.\Generated_Source\PSoC4/CyLib.c **** * Parameters:
1370:.\Generated_Source\PSoC4/CyLib.c **** *  number: The number of the interrupt, 0 - 31.
1371:.\Generated_Source\PSoC4/CyLib.c **** *
1372:.\Generated_Source\PSoC4/CyLib.c **** * Return:
1373:.\Generated_Source\PSoC4/CyLib.c **** *  Priority of the interrupt. 0 - 3, 0 being the highest.
1374:.\Generated_Source\PSoC4/CyLib.c **** *
1375:.\Generated_Source\PSoC4/CyLib.c **** *******************************************************************************/
1376:.\Generated_Source\PSoC4/CyLib.c **** uint8 CyIntGetPriority(uint8 number)
1377:.\Generated_Source\PSoC4/CyLib.c **** {
1378:.\Generated_Source\PSoC4/CyLib.c ****     uint8 priority;
1379:.\Generated_Source\PSoC4/CyLib.c **** 
1380:.\Generated_Source\PSoC4/CyLib.c ****     CYASSERT(number < CY_NUM_INTERRUPTS);
1381:.\Generated_Source\PSoC4/CyLib.c **** 
1382:.\Generated_Source\PSoC4/CyLib.c ****     priority = (uint8) (CY_INT_PRIORITY_REG(number) >> CY_INT_PRIORITY_SHIFT(number));
1383:.\Generated_Source\PSoC4/CyLib.c **** 
1384:.\Generated_Source\PSoC4/CyLib.c ****     return (priority & (uint8) CY_INT_PRIORITY_MASK);
1385:.\Generated_Source\PSoC4/CyLib.c **** }
1386:.\Generated_Source\PSoC4/CyLib.c **** 
1387:.\Generated_Source\PSoC4/CyLib.c **** 
1388:.\Generated_Source\PSoC4/CyLib.c **** /*******************************************************************************
1389:.\Generated_Source\PSoC4/CyLib.c **** * Function Name: CyIntEnable
1390:.\Generated_Source\PSoC4/CyLib.c **** ********************************************************************************
1391:.\Generated_Source\PSoC4/CyLib.c **** *
1392:.\Generated_Source\PSoC4/CyLib.c **** * Summary:
1393:.\Generated_Source\PSoC4/CyLib.c **** *  Enables the specified interrupt number.
1394:.\Generated_Source\PSoC4/CyLib.c **** *
1395:.\Generated_Source\PSoC4/CyLib.c **** * Parameters:
1396:.\Generated_Source\PSoC4/CyLib.c **** *  number: Valid range [0-31].  Interrupt number
1397:.\Generated_Source\PSoC4/CyLib.c **** *
1398:.\Generated_Source\PSoC4/CyLib.c **** * Return:
1399:.\Generated_Source\PSoC4/CyLib.c **** *  None
1400:.\Generated_Source\PSoC4/CyLib.c **** *
1401:.\Generated_Source\PSoC4/CyLib.c **** *******************************************************************************/
1402:.\Generated_Source\PSoC4/CyLib.c **** void CyIntEnable(uint8 number)
1403:.\Generated_Source\PSoC4/CyLib.c **** {
1404:.\Generated_Source\PSoC4/CyLib.c ****     CY_INT_ENABLE_REG = ((uint32) 0x01u << (CY_INT_ENABLE_RANGE_MASK & number));
1405:.\Generated_Source\PSoC4/CyLib.c **** }
1406:.\Generated_Source\PSoC4/CyLib.c **** 
1407:.\Generated_Source\PSoC4/CyLib.c **** 
1408:.\Generated_Source\PSoC4/CyLib.c **** /*******************************************************************************
1409:.\Generated_Source\PSoC4/CyLib.c **** * Function Name: CyIntGetState
1410:.\Generated_Source\PSoC4/CyLib.c **** ********************************************************************************
1411:.\Generated_Source\PSoC4/CyLib.c **** *
1412:.\Generated_Source\PSoC4/CyLib.c **** * Summary:
1413:.\Generated_Source\PSoC4/CyLib.c **** *  Gets the enable state of the specified interrupt number.
1414:.\Generated_Source\PSoC4/CyLib.c **** *
1415:.\Generated_Source\PSoC4/CyLib.c **** * Parameters:
1416:.\Generated_Source\PSoC4/CyLib.c **** *  number: Valid range [0-31].  Interrupt number.
1417:.\Generated_Source\PSoC4/CyLib.c **** *
1418:.\Generated_Source\PSoC4/CyLib.c **** * Return:
1419:.\Generated_Source\PSoC4/CyLib.c **** *  Enable status: 1 if enabled, 0 if disabled
1420:.\Generated_Source\PSoC4/CyLib.c **** *
1421:.\Generated_Source\PSoC4/CyLib.c **** *******************************************************************************/
1422:.\Generated_Source\PSoC4/CyLib.c **** uint8 CyIntGetState(uint8 number)
ARM GAS  C:\Users\asha\AppData\Local\Temp\ccSrRbz4.s 			page 30


1423:.\Generated_Source\PSoC4/CyLib.c **** {
1424:.\Generated_Source\PSoC4/CyLib.c ****     /* Get the state of the interrupt. */
1425:.\Generated_Source\PSoC4/CyLib.c ****     return ((0u != (CY_INT_ENABLE_REG & ((uint32) 0x01u << (CY_INT_ENABLE_RANGE_MASK & number)))) ?
1426:.\Generated_Source\PSoC4/CyLib.c **** }
1427:.\Generated_Source\PSoC4/CyLib.c **** 
1428:.\Generated_Source\PSoC4/CyLib.c **** 
1429:.\Generated_Source\PSoC4/CyLib.c **** /*******************************************************************************
1430:.\Generated_Source\PSoC4/CyLib.c **** * Function Name: CyIntDisable
1431:.\Generated_Source\PSoC4/CyLib.c **** ********************************************************************************
1432:.\Generated_Source\PSoC4/CyLib.c **** *
1433:.\Generated_Source\PSoC4/CyLib.c **** * Summary:
1434:.\Generated_Source\PSoC4/CyLib.c **** *   Disables the specified interrupt number.
1435:.\Generated_Source\PSoC4/CyLib.c **** *
1436:.\Generated_Source\PSoC4/CyLib.c **** * Parameters:
1437:.\Generated_Source\PSoC4/CyLib.c **** *   number: Valid range [0-31].  Interrupt number.
1438:.\Generated_Source\PSoC4/CyLib.c **** *
1439:.\Generated_Source\PSoC4/CyLib.c **** * Return:
1440:.\Generated_Source\PSoC4/CyLib.c **** *  None
1441:.\Generated_Source\PSoC4/CyLib.c **** *
1442:.\Generated_Source\PSoC4/CyLib.c **** *******************************************************************************/
1443:.\Generated_Source\PSoC4/CyLib.c **** void CyIntDisable(uint8 number)
1444:.\Generated_Source\PSoC4/CyLib.c **** {
1445:.\Generated_Source\PSoC4/CyLib.c ****     CY_INT_CLEAR_REG = ((uint32) 0x01u << (CY_INT_ENABLE_RANGE_MASK & number));
1446:.\Generated_Source\PSoC4/CyLib.c **** }
1447:.\Generated_Source\PSoC4/CyLib.c **** 
1448:.\Generated_Source\PSoC4/CyLib.c **** /*******************************************************************************
1449:.\Generated_Source\PSoC4/CyLib.c **** * Function Name: CyIntSetPending
1450:.\Generated_Source\PSoC4/CyLib.c **** ********************************************************************************
1451:.\Generated_Source\PSoC4/CyLib.c **** *
1452:.\Generated_Source\PSoC4/CyLib.c **** * Summary:
1453:.\Generated_Source\PSoC4/CyLib.c **** *  Forces the specified interrupt number to be pending.
1454:.\Generated_Source\PSoC4/CyLib.c **** *
1455:.\Generated_Source\PSoC4/CyLib.c **** * Parameters:
1456:.\Generated_Source\PSoC4/CyLib.c **** *  number: Valid range [0-31].  Interrupt number.
1457:.\Generated_Source\PSoC4/CyLib.c **** *
1458:.\Generated_Source\PSoC4/CyLib.c **** * Return:
1459:.\Generated_Source\PSoC4/CyLib.c **** *  None
1460:.\Generated_Source\PSoC4/CyLib.c **** *
1461:.\Generated_Source\PSoC4/CyLib.c **** *******************************************************************************/
1462:.\Generated_Source\PSoC4/CyLib.c **** void CyIntSetPending(uint8 number)
1463:.\Generated_Source\PSoC4/CyLib.c **** {
1464:.\Generated_Source\PSoC4/CyLib.c ****     CY_INT_SET_PEND_REG = ((uint32) 0x01u << (CY_INT_ENABLE_RANGE_MASK & number));
1465:.\Generated_Source\PSoC4/CyLib.c **** }
1466:.\Generated_Source\PSoC4/CyLib.c **** 
1467:.\Generated_Source\PSoC4/CyLib.c **** 
1468:.\Generated_Source\PSoC4/CyLib.c **** /*******************************************************************************
1469:.\Generated_Source\PSoC4/CyLib.c **** * Function Name: CyIntClearPending
1470:.\Generated_Source\PSoC4/CyLib.c **** ********************************************************************************
1471:.\Generated_Source\PSoC4/CyLib.c **** *
1472:.\Generated_Source\PSoC4/CyLib.c **** * Summary:
1473:.\Generated_Source\PSoC4/CyLib.c **** *  Clears any pending interrupt for the specified interrupt number.
1474:.\Generated_Source\PSoC4/CyLib.c **** *
1475:.\Generated_Source\PSoC4/CyLib.c **** * Parameters:
1476:.\Generated_Source\PSoC4/CyLib.c **** *  number: Valid range [0-31].  Interrupt number.
1477:.\Generated_Source\PSoC4/CyLib.c **** *
1478:.\Generated_Source\PSoC4/CyLib.c **** * Return:
1479:.\Generated_Source\PSoC4/CyLib.c **** *  None
ARM GAS  C:\Users\asha\AppData\Local\Temp\ccSrRbz4.s 			page 31


1480:.\Generated_Source\PSoC4/CyLib.c **** *
1481:.\Generated_Source\PSoC4/CyLib.c **** *******************************************************************************/
1482:.\Generated_Source\PSoC4/CyLib.c **** void CyIntClearPending(uint8 number)
1483:.\Generated_Source\PSoC4/CyLib.c **** {
1484:.\Generated_Source\PSoC4/CyLib.c ****     CY_INT_CLR_PEND_REG = ((uint32) 0x01u << (CY_INT_ENABLE_RANGE_MASK & number));
1485:.\Generated_Source\PSoC4/CyLib.c **** }
1486:.\Generated_Source\PSoC4/CyLib.c **** 
1487:.\Generated_Source\PSoC4/CyLib.c **** 
1488:.\Generated_Source\PSoC4/CyLib.c **** /*******************************************************************************
1489:.\Generated_Source\PSoC4/CyLib.c **** * Function Name: CyHalt
1490:.\Generated_Source\PSoC4/CyLib.c **** ********************************************************************************
1491:.\Generated_Source\PSoC4/CyLib.c **** *
1492:.\Generated_Source\PSoC4/CyLib.c **** * Summary:
1493:.\Generated_Source\PSoC4/CyLib.c **** *  Halts the CPU.
1494:.\Generated_Source\PSoC4/CyLib.c **** *
1495:.\Generated_Source\PSoC4/CyLib.c **** * Parameters:
1496:.\Generated_Source\PSoC4/CyLib.c **** *  reason: Value to be used during debugging.
1497:.\Generated_Source\PSoC4/CyLib.c **** *
1498:.\Generated_Source\PSoC4/CyLib.c **** * Return:
1499:.\Generated_Source\PSoC4/CyLib.c **** *  None
1500:.\Generated_Source\PSoC4/CyLib.c **** *
1501:.\Generated_Source\PSoC4/CyLib.c **** *******************************************************************************/
1502:.\Generated_Source\PSoC4/CyLib.c **** void CyHalt(uint8 reason)
1503:.\Generated_Source\PSoC4/CyLib.c **** {
1504:.\Generated_Source\PSoC4/CyLib.c ****     if(0u != reason)
1505:.\Generated_Source\PSoC4/CyLib.c ****     {
1506:.\Generated_Source\PSoC4/CyLib.c ****         /* To remove unreferenced local variable warning */
1507:.\Generated_Source\PSoC4/CyLib.c ****     }
1508:.\Generated_Source\PSoC4/CyLib.c **** 
1509:.\Generated_Source\PSoC4/CyLib.c ****     #if defined (__ARMCC_VERSION)
1510:.\Generated_Source\PSoC4/CyLib.c ****         __breakpoint(0x0);
1511:.\Generated_Source\PSoC4/CyLib.c ****     #elif defined(__GNUC__)
1512:.\Generated_Source\PSoC4/CyLib.c ****         __asm("    bkpt    1");
 228              		.loc 1 1512 0
 229              	@ 1512 ".\Generated_Source\PSoC4\CyLib.c" 1
 230 0006 01BE     		    bkpt    1
 231              	@ 0 "" 2
 232              		.code	16
 233              	.L26:
 234              	.LBE79:
 235              	.LBE78:
 236              		.loc 1 442 0
 237 0008 044A     		ldr	r2, .L29
 238 000a C000     		lsl	r0, r0, #3
 239              	.LVL5:
 240 000c 1168     		ldr	r1, [r2]
 241 000e 0130     		add	r0, r0, #1
 242 0010 C140     		lsr	r1, r1, r0
 243 0012 081C     		mov	r0, r1
 244 0014 0123     		mov	r3, #1
 245 0016 1840     		and	r0, r0, r3
 246              		.loc 1 443 0
 247              		@ sp needed for prologue
 248 0018 00BD     		pop	{pc}
 249              	.L30:
 250 001a C046     		.align	2
 251              	.L29:
ARM GAS  C:\Users\asha\AppData\Local\Temp\ccSrRbz4.s 			page 32


 252 001c 10020B40 		.word	1074463248
 253              		.cfi_endproc
 254              	.LFE9:
 255              		.size	CySysWdtReadEnabledStatus, .-CySysWdtReadEnabledStatus
 256              		.section	.text.CySysWdtWriteMode,"ax",%progbits
 257              		.align	2
 258              		.global	CySysWdtWriteMode
 259              		.code	16
 260              		.thumb_func
 261              		.type	CySysWdtWriteMode, %function
 262              	CySysWdtWriteMode:
 263              	.LFB10:
 264              		.loc 1 475 0
 265              		.cfi_startproc
 266 0000 30B5     		push	{r4, r5, lr}
 267              	.LCFI2:
 268              		.cfi_def_cfa_offset 12
 269              		.cfi_offset 4, -12
 270              		.cfi_offset 5, -8
 271              		.cfi_offset 14, -4
 272              	.LVL6:
 273              		.loc 1 478 0
 274 0002 0228     		cmp	r0, #2
 275 0004 00D9     		bls	.L32
 276              	.LBB80:
 277              	.LBB81:
 278              		.loc 1 1512 0
 279              	@ 1512 ".\Generated_Source\PSoC4\CyLib.c" 1
 280 0006 01BE     		    bkpt    1
 281              	@ 0 "" 2
 282              		.code	16
 283              	.L32:
 284              	.LBE81:
 285              	.LBE80:
 286              		.loc 1 483 0
 287 0008 0F4B     		ldr	r3, .L37
 288 000a 1A68     		ldr	r2, [r3]
 289 000c 002A     		cmp	r2, #0
 290 000e 04DB     		blt	.L33
 291              	.LBB82:
 292              	.LBB83:
 293              		.loc 1 86 0
 294 0010 1C68     		ldr	r4, [r3]
 295 0012 8022     		mov	r2, #128
 296 0014 1506     		lsl	r5, r2, #24
 297 0016 2543     		orr	r5, r5, r4
 298 0018 1D60     		str	r5, [r3]
 299              	.L33:
 300              	.LBE83:
 301              	.LBE82:
 302              	.LBB84:
 303              	.LBB85:
 304              		.loc 1 440 0
 305 001a 0228     		cmp	r0, #2
 306 001c 00D9     		bls	.L34
 307              	.LBB86:
 308              	.LBB87:
ARM GAS  C:\Users\asha\AppData\Local\Temp\ccSrRbz4.s 			page 33


 309              		.loc 1 1512 0
 310              	@ 1512 ".\Generated_Source\PSoC4\CyLib.c" 1
 311 001e 01BE     		    bkpt    1
 312              	@ 0 "" 2
 313              		.code	16
 314              	.L34:
 315              	.LBE87:
 316              	.LBE86:
 317              		.loc 1 442 0
 318 0020 0A4A     		ldr	r2, .L37+4
 319 0022 C000     		lsl	r0, r0, #3
 320              	.LVL7:
 321 0024 1568     		ldr	r5, [r2]
 322              	.LBE85:
 323              	.LBE84:
 324              		.loc 1 488 0
 325 0026 441C     		add	r4, r0, #1
 326 0028 E540     		lsr	r5, r5, r4
 327 002a EA07     		lsl	r2, r5, #31
 328 002c 0AD4     		bmi	.L36
 329              		.loc 1 490 0
 330 002e 084B     		ldr	r3, .L37+8
 331 0030 0322     		mov	r2, #3
 332 0032 1C68     		ldr	r4, [r3]
 333 0034 151C     		mov	r5, r2
 334 0036 8540     		lsl	r5, r5, r0
 335 0038 AC43     		bic	r4, r4, r5
 336              	.LVL8:
 337              		.loc 1 492 0
 338 003a 0A40     		and	r2, r2, r1
 339 003c 8240     		lsl	r2, r2, r0
 340 003e 201C     		mov	r0, r4
 341 0040 1043     		orr	r0, r0, r2
 342              	.LVL9:
 343              		.loc 1 493 0
 344 0042 1860     		str	r0, [r3]
 345              	.L36:
 346              		.loc 1 495 0
 347              		@ sp needed for prologue
 348 0044 30BD     		pop	{r4, r5, pc}
 349              	.L38:
 350 0046 C046     		.align	2
 351              	.L37:
 352 0048 04010B40 		.word	1074462980
 353 004c 10020B40 		.word	1074463248
 354 0050 0C020B40 		.word	1074463244
 355              		.cfi_endproc
 356              	.LFE10:
 357              		.size	CySysWdtWriteMode, .-CySysWdtWriteMode
 358              		.section	.text.CySysWdtReadMode,"ax",%progbits
 359              		.align	2
 360              		.global	CySysWdtReadMode
 361              		.code	16
 362              		.thumb_func
 363              		.type	CySysWdtReadMode, %function
 364              	CySysWdtReadMode:
 365              	.LFB11:
ARM GAS  C:\Users\asha\AppData\Local\Temp\ccSrRbz4.s 			page 34


 366              		.loc 1 514 0
 367              		.cfi_startproc
 368              	.LVL10:
 369              		.loc 1 515 0
 370 0000 034A     		ldr	r2, .L41
 371 0002 C000     		lsl	r0, r0, #3
 372              	.LVL11:
 373 0004 1168     		ldr	r1, [r2]
 374 0006 0323     		mov	r3, #3
 375 0008 C140     		lsr	r1, r1, r0
 376 000a 081C     		mov	r0, r1
 377 000c 1840     		and	r0, r0, r3
 378              		.loc 1 516 0
 379              		@ sp needed for prologue
 380 000e 7047     		bx	lr
 381              	.L42:
 382              		.align	2
 383              	.L41:
 384 0010 0C020B40 		.word	1074463244
 385              		.cfi_endproc
 386              	.LFE11:
 387              		.size	CySysWdtReadMode, .-CySysWdtReadMode
 388              		.section	.text.CySysWdtWriteClearOnMatch,"ax",%progbits
 389              		.align	2
 390              		.global	CySysWdtWriteClearOnMatch
 391              		.code	16
 392              		.thumb_func
 393              		.type	CySysWdtWriteClearOnMatch, %function
 394              	CySysWdtWriteClearOnMatch:
 395              	.LFB12:
 396              		.loc 1 547 0
 397              		.cfi_startproc
 398 0000 10B5     		push	{r4, lr}
 399              	.LCFI3:
 400              		.cfi_def_cfa_offset 8
 401              		.cfi_offset 4, -8
 402              		.cfi_offset 14, -4
 403              	.LVL12:
 404              		.loc 1 548 0
 405 0002 0128     		cmp	r0, #1
 406 0004 00D9     		bls	.L44
 407              	.LBB88:
 408              	.LBB89:
 409              		.loc 1 1512 0
 410              	@ 1512 ".\Generated_Source\PSoC4\CyLib.c" 1
 411 0006 01BE     		    bkpt    1
 412              	@ 0 "" 2
 413              		.code	16
 414              	.L44:
 415              	.LBE89:
 416              	.LBE88:
 417              		.loc 1 554 0
 418 0008 0D4B     		ldr	r3, .L49
 419 000a 1A68     		ldr	r2, [r3]
 420 000c 002A     		cmp	r2, #0
 421 000e 04DB     		blt	.L45
 422              	.LBB90:
ARM GAS  C:\Users\asha\AppData\Local\Temp\ccSrRbz4.s 			page 35


 423              	.LBB91:
 424              		.loc 1 86 0
 425 0010 1C68     		ldr	r4, [r3]
 426 0012 8022     		mov	r2, #128
 427 0014 1206     		lsl	r2, r2, #24
 428 0016 2243     		orr	r2, r2, r4
 429 0018 1A60     		str	r2, [r3]
 430              	.L45:
 431              	.LBE91:
 432              	.LBE90:
 433              	.LBB92:
 434              	.LBB93:
 435              		.loc 1 440 0
 436 001a 0228     		cmp	r0, #2
 437 001c 00D9     		bls	.L46
 438              	.LBB94:
 439              	.LBB95:
 440              		.loc 1 1512 0
 441              	@ 1512 ".\Generated_Source\PSoC4\CyLib.c" 1
 442 001e 01BE     		    bkpt    1
 443              	@ 0 "" 2
 444              		.code	16
 445              	.L46:
 446              	.LBE95:
 447              	.LBE94:
 448              		.loc 1 442 0
 449 0020 084B     		ldr	r3, .L49+4
 450              	.LBE93:
 451              	.LBE92:
 452              		.loc 1 559 0
 453 0022 C200     		lsl	r2, r0, #3
 454              	.LBB97:
 455              	.LBB96:
 456              		.loc 1 442 0
 457 0024 1C68     		ldr	r4, [r3]
 458              	.LBE96:
 459              	.LBE97:
 460              		.loc 1 559 0
 461 0026 0132     		add	r2, r2, #1
 462 0028 D440     		lsr	r4, r4, r2
 463 002a E207     		lsl	r2, r4, #31
 464 002c 06D4     		bmi	.L48
 465              		.loc 1 561 0
 466 002e 064C     		ldr	r4, .L49+8
 467 0030 C000     		lsl	r0, r0, #3
 468              	.LVL13:
 469 0032 2268     		ldr	r2, [r4]
 470 0034 0230     		add	r0, r0, #2
 471 0036 8140     		lsl	r1, r1, r0
 472              	.LVL14:
 473 0038 1143     		orr	r1, r1, r2
 474 003a 2160     		str	r1, [r4]
 475              	.LVL15:
 476              	.L48:
 477              		.loc 1 564 0
 478              		@ sp needed for prologue
 479 003c 10BD     		pop	{r4, pc}
ARM GAS  C:\Users\asha\AppData\Local\Temp\ccSrRbz4.s 			page 36


 480              	.L50:
 481 003e C046     		.align	2
 482              	.L49:
 483 0040 04010B40 		.word	1074462980
 484 0044 10020B40 		.word	1074463248
 485 0048 0C020B40 		.word	1074463244
 486              		.cfi_endproc
 487              	.LFE12:
 488              		.size	CySysWdtWriteClearOnMatch, .-CySysWdtWriteClearOnMatch
 489              		.section	.text.CySysWdtReadClearOnMatch,"ax",%progbits
 490              		.align	2
 491              		.global	CySysWdtReadClearOnMatch
 492              		.code	16
 493              		.thumb_func
 494              		.type	CySysWdtReadClearOnMatch, %function
 495              	CySysWdtReadClearOnMatch:
 496              	.LFB13:
 497              		.loc 1 583 0
 498              		.cfi_startproc
 499 0000 00B5     		push	{lr}
 500              	.LCFI4:
 501              		.cfi_def_cfa_offset 4
 502              		.cfi_offset 14, -4
 503              	.LVL16:
 504              		.loc 1 584 0
 505 0002 0128     		cmp	r0, #1
 506 0004 00D9     		bls	.L52
 507              	.LBB98:
 508              	.LBB99:
 509              		.loc 1 1512 0
 510              	@ 1512 ".\Generated_Source\PSoC4\CyLib.c" 1
 511 0006 01BE     		    bkpt    1
 512              	@ 0 "" 2
 513              		.code	16
 514              	.L52:
 515              	.LBE99:
 516              	.LBE98:
 517              		.loc 1 587 0
 518 0008 044A     		ldr	r2, .L54
 519 000a C000     		lsl	r0, r0, #3
 520              	.LVL17:
 521 000c 1168     		ldr	r1, [r2]
 522 000e 0230     		add	r0, r0, #2
 523 0010 C140     		lsr	r1, r1, r0
 524 0012 081C     		mov	r0, r1
 525 0014 0123     		mov	r3, #1
 526 0016 1840     		and	r0, r0, r3
 527              		.loc 1 589 0
 528              		@ sp needed for prologue
 529 0018 00BD     		pop	{pc}
 530              	.L55:
 531 001a C046     		.align	2
 532              	.L54:
 533 001c 0C020B40 		.word	1074463244
 534              		.cfi_endproc
 535              	.LFE13:
 536              		.size	CySysWdtReadClearOnMatch, .-CySysWdtReadClearOnMatch
ARM GAS  C:\Users\asha\AppData\Local\Temp\ccSrRbz4.s 			page 37


 537              		.section	.text.CySysWdtEnable,"ax",%progbits
 538              		.align	2
 539              		.global	CySysWdtEnable
 540              		.code	16
 541              		.thumb_func
 542              		.type	CySysWdtEnable, %function
 543              	CySysWdtEnable:
 544              	.LFB14:
 545              		.loc 1 616 0
 546              		.cfi_startproc
 547 0000 00B5     		push	{lr}
 548              	.LCFI5:
 549              		.cfi_def_cfa_offset 4
 550              		.cfi_offset 14, -4
 551              	.LVL18:
 552              		.loc 1 620 0
 553 0002 074B     		ldr	r3, .L59
 554 0004 1A68     		ldr	r2, [r3]
 555 0006 002A     		cmp	r2, #0
 556 0008 04DB     		blt	.L57
 557              	.LBB100:
 558              	.LBB101:
 559              		.loc 1 86 0
 560 000a 1968     		ldr	r1, [r3]
 561 000c 8022     		mov	r2, #128
 562 000e 1206     		lsl	r2, r2, #24
 563 0010 0A43     		orr	r2, r2, r1
 564 0012 1A60     		str	r2, [r3]
 565              	.L57:
 566              	.LBE101:
 567              	.LBE100:
 568              		.loc 1 625 0
 569 0014 034B     		ldr	r3, .L59+4
 570              		.loc 1 626 0
 571              		@ sp needed for prologue
 572              		.loc 1 625 0
 573 0016 1968     		ldr	r1, [r3]
 574 0018 0843     		orr	r0, r0, r1
 575              	.LVL19:
 576 001a 1860     		str	r0, [r3]
 577              		.loc 1 626 0
 578 001c 00BD     		pop	{pc}
 579              	.L60:
 580 001e C046     		.align	2
 581              	.L59:
 582 0020 04010B40 		.word	1074462980
 583 0024 10020B40 		.word	1074463248
 584              		.cfi_endproc
 585              	.LFE14:
 586              		.size	CySysWdtEnable, .-CySysWdtEnable
 587              		.section	.text.CySysWdtDisable,"ax",%progbits
 588              		.align	2
 589              		.global	CySysWdtDisable
 590              		.code	16
 591              		.thumb_func
 592              		.type	CySysWdtDisable, %function
 593              	CySysWdtDisable:
ARM GAS  C:\Users\asha\AppData\Local\Temp\ccSrRbz4.s 			page 38


 594              	.LFB15:
 595              		.loc 1 653 0
 596              		.cfi_startproc
 597 0000 00B5     		push	{lr}
 598              	.LCFI6:
 599              		.cfi_def_cfa_offset 4
 600              		.cfi_offset 14, -4
 601              	.LVL20:
 602              		.loc 1 657 0
 603 0002 074B     		ldr	r3, .L64
 604 0004 1A68     		ldr	r2, [r3]
 605 0006 002A     		cmp	r2, #0
 606 0008 04DB     		blt	.L62
 607              	.LBB102:
 608              	.LBB103:
 609              		.loc 1 86 0
 610 000a 1968     		ldr	r1, [r3]
 611 000c 8022     		mov	r2, #128
 612 000e 1206     		lsl	r2, r2, #24
 613 0010 0A43     		orr	r2, r2, r1
 614 0012 1A60     		str	r2, [r3]
 615              	.L62:
 616              	.LBE103:
 617              	.LBE102:
 618              		.loc 1 662 0
 619 0014 034B     		ldr	r3, .L64+4
 620              		.loc 1 663 0
 621              		@ sp needed for prologue
 622              		.loc 1 662 0
 623 0016 1968     		ldr	r1, [r3]
 624 0018 8143     		bic	r1, r1, r0
 625 001a 1960     		str	r1, [r3]
 626              		.loc 1 663 0
 627 001c 00BD     		pop	{pc}
 628              	.L65:
 629 001e C046     		.align	2
 630              	.L64:
 631 0020 04010B40 		.word	1074462980
 632 0024 10020B40 		.word	1074463248
 633              		.cfi_endproc
 634              	.LFE15:
 635              		.size	CySysWdtDisable, .-CySysWdtDisable
 636              		.section	.text.CySysWdtWriteCascade,"ax",%progbits
 637              		.align	2
 638              		.global	CySysWdtWriteCascade
 639              		.code	16
 640              		.thumb_func
 641              		.type	CySysWdtWriteCascade, %function
 642              	CySysWdtWriteCascade:
 643              	.LFB16:
 644              		.loc 1 692 0
 645              		.cfi_startproc
 646 0000 10B5     		push	{r4, lr}
 647              	.LCFI7:
 648              		.cfi_def_cfa_offset 8
 649              		.cfi_offset 4, -8
 650              		.cfi_offset 14, -4
ARM GAS  C:\Users\asha\AppData\Local\Temp\ccSrRbz4.s 			page 39


 651              	.LVL21:
 652              	.LBB104:
 653              	.LBB105:
 654              		.loc 1 442 0
 655 0002 0D4B     		ldr	r3, .L71
 656 0004 1968     		ldr	r1, [r3]
 657              	.LBE105:
 658              	.LBE104:
 659              	.LBB106:
 660              	.LBB107:
 661 0006 1A68     		ldr	r2, [r3]
 662              	.LBE107:
 663              	.LBE106:
 664              	.LBB108:
 665              	.LBB109:
 666 0008 1B68     		ldr	r3, [r3]
 667              	.LBE109:
 668              	.LBE108:
 669              		.loc 1 700 0
 670 000a 9405     		lsl	r4, r2, #22
 671 000c 01D4     		bmi	.L69
 672 000e 8A07     		lsl	r2, r1, #30
 673 0010 00D5     		bpl	.L70
 674              	.LVL22:
 675              	.L69:
 676              		.loc 1 715 0
 677              		@ sp needed for prologue
 678 0012 10BD     		pop	{r4, pc}
 679              	.LVL23:
 680              	.L70:
 681              		.loc 1 700 0
 682 0014 9C03     		lsl	r4, r3, #14
 683 0016 FCD4     		bmi	.L69
 684              		.loc 1 705 0
 685 0018 084B     		ldr	r3, .L71+4
 686 001a 1968     		ldr	r1, [r3]
 687 001c 0029     		cmp	r1, #0
 688 001e 04DB     		blt	.L68
 689              	.LBB110:
 690              	.LBB111:
 691              		.loc 1 86 0
 692 0020 1968     		ldr	r1, [r3]
 693 0022 8022     		mov	r2, #128
 694 0024 1406     		lsl	r4, r2, #24
 695 0026 0C43     		orr	r4, r4, r1
 696 0028 1C60     		str	r4, [r3]
 697              	.L68:
 698              	.LBE111:
 699              	.LBE110:
 700              		.loc 1 710 0
 701 002a 054B     		ldr	r3, .L71+8
 702              		.loc 1 711 0
 703 002c 054C     		ldr	r4, .L71+12
 704              		.loc 1 710 0
 705 002e 1968     		ldr	r1, [r3]
 706              	.LVL24:
 707              		.loc 1 711 0
ARM GAS  C:\Users\asha\AppData\Local\Temp\ccSrRbz4.s 			page 40


 708 0030 0C40     		and	r4, r4, r1
 709              	.LVL25:
 710              		.loc 1 712 0
 711 0032 2043     		orr	r0, r0, r4
 712              	.LVL26:
 713              		.loc 1 713 0
 714 0034 1860     		str	r0, [r3]
 715 0036 ECE7     		b	.L69
 716              	.L72:
 717              		.align	2
 718              	.L71:
 719 0038 10020B40 		.word	1074463248
 720 003c 04010B40 		.word	1074462980
 721 0040 0C020B40 		.word	1074463244
 722 0044 F7F7FFFF 		.word	-2057
 723              		.cfi_endproc
 724              	.LFE16:
 725              		.size	CySysWdtWriteCascade, .-CySysWdtWriteCascade
 726              		.section	.text.CySysWdtReadCascade,"ax",%progbits
 727              		.align	2
 728              		.global	CySysWdtReadCascade
 729              		.code	16
 730              		.thumb_func
 731              		.type	CySysWdtReadCascade, %function
 732              	CySysWdtReadCascade:
 733              	.LFB17:
 734              		.loc 1 737 0
 735              		.cfi_startproc
 736              		.loc 1 738 0
 737 0000 0249     		ldr	r1, .L75
 738 0002 034B     		ldr	r3, .L75+4
 739 0004 0868     		ldr	r0, [r1]
 740              		.loc 1 739 0
 741              		@ sp needed for prologue
 742              		.loc 1 738 0
 743 0006 1840     		and	r0, r0, r3
 744              		.loc 1 739 0
 745 0008 7047     		bx	lr
 746              	.L76:
 747 000a C046     		.align	2
 748              	.L75:
 749 000c 0C020B40 		.word	1074463244
 750 0010 08080000 		.word	2056
 751              		.cfi_endproc
 752              	.LFE17:
 753              		.size	CySysWdtReadCascade, .-CySysWdtReadCascade
 754              		.section	.text.CySysWdtWriteToggleBit,"ax",%progbits
 755              		.align	2
 756              		.global	CySysWdtWriteToggleBit
 757              		.code	16
 758              		.thumb_func
 759              		.type	CySysWdtWriteToggleBit, %function
 760              	CySysWdtWriteToggleBit:
 761              	.LFB19:
 762              		.loc 1 811 0
 763              		.cfi_startproc
 764 0000 00B5     		push	{lr}
ARM GAS  C:\Users\asha\AppData\Local\Temp\ccSrRbz4.s 			page 41


 765              	.LCFI8:
 766              		.cfi_def_cfa_offset 4
 767              		.cfi_offset 14, -4
 768              	.LVL27:
 769              	.LBB112:
 770              	.LBB113:
 771              		.loc 1 442 0
 772 0002 0B49     		ldr	r1, .L81
 773 0004 0B68     		ldr	r3, [r1]
 774              	.LBE113:
 775              	.LBE112:
 776              		.loc 1 814 0
 777 0006 9A03     		lsl	r2, r3, #14
 778 0008 11D4     		bmi	.L80
 779              		.loc 1 819 0
 780 000a 0A4B     		ldr	r3, .L81+4
 781 000c 1A68     		ldr	r2, [r3]
 782 000e 002A     		cmp	r2, #0
 783 0010 04DB     		blt	.L79
 784              	.LBB114:
 785              	.LBB115:
 786              		.loc 1 86 0
 787 0012 1968     		ldr	r1, [r3]
 788 0014 8022     		mov	r2, #128
 789 0016 1206     		lsl	r2, r2, #24
 790 0018 0A43     		orr	r2, r2, r1
 791 001a 1A60     		str	r2, [r3]
 792              	.L79:
 793              	.LBE115:
 794              	.LBE114:
 795              		.loc 1 824 0
 796 001c 064B     		ldr	r3, .L81+8
 797              		.loc 1 825 0
 798 001e 074A     		ldr	r2, .L81+12
 799              		.loc 1 824 0
 800 0020 1968     		ldr	r1, [r3]
 801              	.LVL28:
 802              		.loc 1 825 0
 803 0022 0A40     		and	r2, r2, r1
 804              	.LVL29:
 805              		.loc 1 826 0
 806 0024 1F21     		mov	r1, #31
 807 0026 0840     		and	r0, r0, r1
 808              	.LVL30:
 809 0028 0006     		lsl	r0, r0, #24
 810 002a 1043     		orr	r0, r0, r2
 811              	.LVL31:
 812              		.loc 1 827 0
 813 002c 1860     		str	r0, [r3]
 814              	.LVL32:
 815              	.L80:
 816              		.loc 1 829 0
 817              		@ sp needed for prologue
 818 002e 00BD     		pop	{pc}
 819              	.L82:
 820              		.align	2
 821              	.L81:
ARM GAS  C:\Users\asha\AppData\Local\Temp\ccSrRbz4.s 			page 42


 822 0030 10020B40 		.word	1074463248
 823 0034 04010B40 		.word	1074462980
 824 0038 0C020B40 		.word	1074463244
 825 003c FFFFFFE0 		.word	-520093697
 826              		.cfi_endproc
 827              	.LFE19:
 828              		.size	CySysWdtWriteToggleBit, .-CySysWdtWriteToggleBit
 829              		.section	.text.CySysWdtReadToggleBit,"ax",%progbits
 830              		.align	2
 831              		.global	CySysWdtReadToggleBit
 832              		.code	16
 833              		.thumb_func
 834              		.type	CySysWdtReadToggleBit, %function
 835              	CySysWdtReadToggleBit:
 836              	.LFB20:
 837              		.loc 1 847 0
 838              		.cfi_startproc
 839              		.loc 1 848 0
 840 0000 024B     		ldr	r3, .L85
 841              		.loc 1 849 0
 842              		@ sp needed for prologue
 843              		.loc 1 848 0
 844 0002 1968     		ldr	r1, [r3]
 845 0004 C800     		lsl	r0, r1, #3
 846 0006 C00E     		lsr	r0, r0, #27
 847              		.loc 1 849 0
 848 0008 7047     		bx	lr
 849              	.L86:
 850 000a C046     		.align	2
 851              	.L85:
 852 000c 0C020B40 		.word	1074463244
 853              		.cfi_endproc
 854              	.LFE20:
 855              		.size	CySysWdtReadToggleBit, .-CySysWdtReadToggleBit
 856              		.section	.text.CySysWdtReadMatch,"ax",%progbits
 857              		.align	2
 858              		.global	CySysWdtReadMatch
 859              		.code	16
 860              		.thumb_func
 861              		.type	CySysWdtReadMatch, %function
 862              	CySysWdtReadMatch:
 863              	.LFB21:
 864              		.loc 1 868 0
 865              		.cfi_startproc
 866 0000 00B5     		push	{lr}
 867              	.LCFI9:
 868              		.cfi_def_cfa_offset 4
 869              		.cfi_offset 14, -4
 870              	.LVL33:
 871              		.loc 1 869 0
 872 0002 0128     		cmp	r0, #1
 873 0004 00D9     		bls	.L88
 874              	.LBB116:
 875              	.LBB117:
 876              		.loc 1 1512 0
 877              	@ 1512 ".\Generated_Source\PSoC4\CyLib.c" 1
 878 0006 01BE     		    bkpt    1
ARM GAS  C:\Users\asha\AppData\Local\Temp\ccSrRbz4.s 			page 43


 879              	@ 0 "" 2
 880              		.code	16
 881              	.L88:
 882              	.LBE117:
 883              	.LBE116:
 884              		.loc 1 872 0
 885 0008 024A     		ldr	r2, .L90
 886 000a 0101     		lsl	r1, r0, #4
 887 000c 1368     		ldr	r3, [r2]
 888              		.loc 1 873 0
 889              		@ sp needed for prologue
 890              		.loc 1 872 0
 891 000e CB40     		lsr	r3, r3, r1
 892 0010 98B2     		uxth	r0, r3
 893              	.LVL34:
 894              		.loc 1 873 0
 895 0012 00BD     		pop	{pc}
 896              	.L91:
 897              		.align	2
 898              	.L90:
 899 0014 08020B40 		.word	1074463240
 900              		.cfi_endproc
 901              	.LFE21:
 902              		.size	CySysWdtReadMatch, .-CySysWdtReadMatch
 903              		.section	.text.CySysWdtReadCount,"ax",%progbits
 904              		.align	2
 905              		.global	CySysWdtReadCount
 906              		.code	16
 907              		.thumb_func
 908              		.type	CySysWdtReadCount, %function
 909              	CySysWdtReadCount:
 910              	.LFB22:
 911              		.loc 1 892 0
 912              		.cfi_startproc
 913 0000 00B5     		push	{lr}
 914              	.LCFI10:
 915              		.cfi_def_cfa_offset 4
 916              		.cfi_offset 14, -4
 917              	.LVL35:
 918              		.loc 1 895 0
 919 0002 0128     		cmp	r0, #1
 920 0004 0AD0     		beq	.L95
 921 0006 0028     		cmp	r0, #0
 922 0008 04D0     		beq	.L94
 923 000a 0228     		cmp	r0, #2
 924 000c 0AD0     		beq	.L100
 925              	.LBB118:
 926              	.LBB119:
 927              		.loc 1 1512 0
 928              	@ 1512 ".\Generated_Source\PSoC4\CyLib.c" 1
 929 000e 01BE     		    bkpt    1
 930              	@ 0 "" 2
 931              		.code	16
 932 0010 0020     		mov	r0, #0
 933              	.LVL36:
 934              	.L97:
 935              	.LVL37:
ARM GAS  C:\Users\asha\AppData\Local\Temp\ccSrRbz4.s 			page 44


 936              	.LBE119:
 937              	.LBE118:
 938              		.loc 1 918 0
 939              		@ sp needed for prologue
 940 0012 00BD     		pop	{pc}
 941              	.LVL38:
 942              	.L94:
 943              		.loc 1 899 0
 944 0014 054B     		ldr	r3, .L101
 945 0016 1868     		ldr	r0, [r3]
 946              	.LVL39:
 947 0018 80B2     		uxth	r0, r0
 948              	.LVL40:
 949              		.loc 1 900 0
 950 001a FAE7     		b	.L97
 951              	.LVL41:
 952              	.L95:
 953              		.loc 1 904 0
 954 001c 034A     		ldr	r2, .L101
 955 001e 1168     		ldr	r1, [r2]
 956 0020 080C     		lsr	r0, r1, #16
 957              	.LVL42:
 958              		.loc 1 905 0
 959 0022 F6E7     		b	.L97
 960              	.LVL43:
 961              	.L100:
 962              		.loc 1 909 0
 963 0024 024B     		ldr	r3, .L101+4
 964 0026 1868     		ldr	r0, [r3]
 965              	.LVL44:
 966              		.loc 1 910 0
 967 0028 F3E7     		b	.L97
 968              	.L102:
 969 002a C046     		.align	2
 970              	.L101:
 971 002c 00020B40 		.word	1074463232
 972 0030 04020B40 		.word	1074463236
 973              		.cfi_endproc
 974              	.LFE22:
 975              		.size	CySysWdtReadCount, .-CySysWdtReadCount
 976              		.section	.text.CySysWdtGetInterruptSource,"ax",%progbits
 977              		.align	2
 978              		.global	CySysWdtGetInterruptSource
 979              		.code	16
 980              		.thumb_func
 981              		.type	CySysWdtGetInterruptSource, %function
 982              	CySysWdtGetInterruptSource:
 983              	.LFB23:
 984              		.loc 1 941 0
 985              		.cfi_startproc
 986              		.loc 1 942 0
 987 0000 0249     		ldr	r1, .L105
 988 0002 034B     		ldr	r3, .L105+4
 989 0004 0868     		ldr	r0, [r1]
 990              		.loc 1 943 0
 991              		@ sp needed for prologue
 992              		.loc 1 942 0
ARM GAS  C:\Users\asha\AppData\Local\Temp\ccSrRbz4.s 			page 45


 993 0006 1840     		and	r0, r0, r3
 994              		.loc 1 943 0
 995 0008 7047     		bx	lr
 996              	.L106:
 997 000a C046     		.align	2
 998              	.L105:
 999 000c 10020B40 		.word	1074463248
 1000 0010 04040400 		.word	263172
 1001              		.cfi_endproc
 1002              	.LFE23:
 1003              		.size	CySysWdtGetInterruptSource, .-CySysWdtGetInterruptSource
 1004              		.section	.text.CySysWdtResetCounters,"ax",%progbits
 1005              		.align	2
 1006              		.global	CySysWdtResetCounters
 1007              		.code	16
 1008              		.thumb_func
 1009              		.type	CySysWdtResetCounters, %function
 1010              	CySysWdtResetCounters:
 1011              	.LFB25:
 1012              		.loc 1 1042 0
 1013              		.cfi_startproc
 1014 0000 00B5     		push	{lr}
 1015              	.LCFI11:
 1016              		.cfi_def_cfa_offset 4
 1017              		.cfi_offset 14, -4
 1018              	.LVL45:
 1019              		.loc 1 1046 0
 1020 0002 084B     		ldr	r3, .L110
 1021 0004 1A68     		ldr	r2, [r3]
 1022 0006 002A     		cmp	r2, #0
 1023 0008 04DB     		blt	.L108
 1024              	.LBB120:
 1025              	.LBB121:
 1026              		.loc 1 86 0
 1027 000a 1968     		ldr	r1, [r3]
 1028 000c 8022     		mov	r2, #128
 1029 000e 1206     		lsl	r2, r2, #24
 1030 0010 0A43     		orr	r2, r2, r1
 1031 0012 1A60     		str	r2, [r3]
 1032              	.L108:
 1033              	.LBE121:
 1034              	.LBE120:
 1035              		.loc 1 1052 0
 1036 0014 044B     		ldr	r3, .L110+4
 1037 0016 0549     		ldr	r1, .L110+8
 1038 0018 1A68     		ldr	r2, [r3]
 1039 001a 0840     		and	r0, r0, r1
 1040              	.LVL46:
 1041 001c 1043     		orr	r0, r0, r2
 1042 001e 1860     		str	r0, [r3]
 1043              		.loc 1 1054 0
 1044              		@ sp needed for prologue
 1045 0020 00BD     		pop	{pc}
 1046              	.L111:
 1047 0022 C046     		.align	2
 1048              	.L110:
 1049 0024 04010B40 		.word	1074462980
ARM GAS  C:\Users\asha\AppData\Local\Temp\ccSrRbz4.s 			page 46


 1050 0028 10020B40 		.word	1074463248
 1051 002c 08080800 		.word	526344
 1052              		.cfi_endproc
 1053              	.LFE25:
 1054              		.size	CySysWdtResetCounters, .-CySysWdtResetCounters
 1055              		.section	.text.CySysLvdEnable,"ax",%progbits
 1056              		.align	2
 1057              		.global	CySysLvdEnable
 1058              		.code	16
 1059              		.thumb_func
 1060              		.type	CySysLvdEnable, %function
 1061              	CySysLvdEnable:
 1062              	.LFB26:
 1063              		.loc 1 1092 0
 1064              		.cfi_startproc
 1065              	.LVL47:
 1066              		.loc 1 1094 0
 1067 0000 094B     		ldr	r3, .L114
 1068 0002 1E22     		mov	r2, #30
 1069 0004 1968     		ldr	r1, [r3]
 1070 0006 4000     		lsl	r0, r0, #1
 1071              	.LVL48:
 1072 0008 9143     		bic	r1, r1, r2
 1073 000a 1040     		and	r0, r0, r2
 1074 000c 0A1C     		mov	r2, r1
 1075 000e 0243     		orr	r2, r2, r0
 1076 0010 1A60     		str	r2, [r3]
 1077              		.loc 1 1097 0
 1078 0012 1A68     		ldr	r2, [r3]
 1079 0014 0120     		mov	r0, #1
 1080 0016 1043     		orr	r0, r0, r2
 1081 0018 1860     		str	r0, [r3]
 1082              		.loc 1 1098 0
 1083 001a 103B     		sub	r3, r3, #16
 1084 001c 1968     		ldr	r1, [r3]
 1085 001e 0222     		mov	r2, #2
 1086 0020 0A43     		orr	r2, r2, r1
 1087 0022 1A60     		str	r2, [r3]
 1088              		.loc 1 1099 0
 1089              		@ sp needed for prologue
 1090 0024 7047     		bx	lr
 1091              	.L115:
 1092 0026 C046     		.align	2
 1093              	.L114:
 1094 0028 18000B40 		.word	1074462744
 1095              		.cfi_endproc
 1096              	.LFE26:
 1097              		.size	CySysLvdEnable, .-CySysLvdEnable
 1098              		.section	.text.CySysLvdDisable,"ax",%progbits
 1099              		.align	2
 1100              		.global	CySysLvdDisable
 1101              		.code	16
 1102              		.thumb_func
 1103              		.type	CySysLvdDisable, %function
 1104              	CySysLvdDisable:
 1105              	.LFB27:
 1106              		.loc 1 1117 0
ARM GAS  C:\Users\asha\AppData\Local\Temp\ccSrRbz4.s 			page 47


 1107              		.cfi_startproc
 1108              		.loc 1 1118 0
 1109 0000 054B     		ldr	r3, .L118
 1110 0002 0222     		mov	r2, #2
 1111 0004 1868     		ldr	r0, [r3]
 1112              		.loc 1 1119 0
 1113 0006 0121     		mov	r1, #1
 1114              		.loc 1 1118 0
 1115 0008 9043     		bic	r0, r0, r2
 1116 000a 1860     		str	r0, [r3]
 1117              		.loc 1 1119 0
 1118 000c 1033     		add	r3, r3, #16
 1119 000e 1A68     		ldr	r2, [r3]
 1120              		.loc 1 1120 0
 1121              		@ sp needed for prologue
 1122              		.loc 1 1119 0
 1123 0010 8A43     		bic	r2, r2, r1
 1124 0012 1A60     		str	r2, [r3]
 1125              		.loc 1 1120 0
 1126 0014 7047     		bx	lr
 1127              	.L119:
 1128 0016 C046     		.align	2
 1129              	.L118:
 1130 0018 08000B40 		.word	1074462728
 1131              		.cfi_endproc
 1132              	.LFE27:
 1133              		.size	CySysLvdDisable, .-CySysLvdDisable
 1134              		.section	.text.CySysLvdGetInterruptSource,"ax",%progbits
 1135              		.align	2
 1136              		.global	CySysLvdGetInterruptSource
 1137              		.code	16
 1138              		.thumb_func
 1139              		.type	CySysLvdGetInterruptSource, %function
 1140              	CySysLvdGetInterruptSource:
 1141              	.LFB28:
 1142              		.loc 1 1139 0
 1143              		.cfi_startproc
 1144              		.loc 1 1140 0
 1145 0000 0249     		ldr	r1, .L122
 1146 0002 0223     		mov	r3, #2
 1147 0004 0868     		ldr	r0, [r1]
 1148              		.loc 1 1141 0
 1149              		@ sp needed for prologue
 1150              		.loc 1 1140 0
 1151 0006 1840     		and	r0, r0, r3
 1152              		.loc 1 1141 0
 1153 0008 7047     		bx	lr
 1154              	.L123:
 1155 000a C046     		.align	2
 1156              	.L122:
 1157 000c 04000B40 		.word	1074462724
 1158              		.cfi_endproc
 1159              	.LFE28:
 1160              		.size	CySysLvdGetInterruptSource, .-CySysLvdGetInterruptSource
 1161              		.section	.text.CySysLvdClearInterrupt,"ax",%progbits
 1162              		.align	2
 1163              		.global	CySysLvdClearInterrupt
ARM GAS  C:\Users\asha\AppData\Local\Temp\ccSrRbz4.s 			page 48


 1164              		.code	16
 1165              		.thumb_func
 1166              		.type	CySysLvdClearInterrupt, %function
 1167              	CySysLvdClearInterrupt:
 1168              	.LFB29:
 1169              		.loc 1 1159 0
 1170              		.cfi_startproc
 1171              		.loc 1 1160 0
 1172 0000 014B     		ldr	r3, .L126
 1173 0002 0222     		mov	r2, #2
 1174 0004 1A60     		str	r2, [r3]
 1175              		.loc 1 1161 0
 1176              		@ sp needed for prologue
 1177 0006 7047     		bx	lr
 1178              	.L127:
 1179              		.align	2
 1180              	.L126:
 1181 0008 04000B40 		.word	1074462724
 1182              		.cfi_endproc
 1183              	.LFE29:
 1184              		.size	CySysLvdClearInterrupt, .-CySysLvdClearInterrupt
 1185              		.section	.text.CyDisableInts,"ax",%progbits
 1186              		.align	2
 1187              		.global	CyDisableInts
 1188              		.code	16
 1189              		.thumb_func
 1190              		.type	CyDisableInts, %function
 1191              	CyDisableInts:
 1192              	.LFB30:
 1193              		.loc 1 1179 0
 1194              		.cfi_startproc
 1195              		.loc 1 1183 0
 1196 0000 024A     		ldr	r2, .L130
 1197              		.loc 1 1186 0
 1198 0002 0121     		mov	r1, #1
 1199 0004 4B42     		neg	r3, r1
 1200              		.loc 1 1183 0
 1201 0006 1068     		ldr	r0, [r2]
 1202              	.LVL49:
 1203              		.loc 1 1189 0
 1204              		@ sp needed for prologue
 1205              		.loc 1 1186 0
 1206 0008 1360     		str	r3, [r2]
 1207              	.LVL50:
 1208              		.loc 1 1189 0
 1209 000a 7047     		bx	lr
 1210              	.L131:
 1211              		.align	2
 1212              	.L130:
 1213 000c 80E100E0 		.word	-536813184
 1214              		.cfi_endproc
 1215              	.LFE30:
 1216              		.size	CyDisableInts, .-CyDisableInts
 1217              		.section	.text.CyEnableInts,"ax",%progbits
 1218              		.align	2
 1219              		.global	CyEnableInts
 1220              		.code	16
ARM GAS  C:\Users\asha\AppData\Local\Temp\ccSrRbz4.s 			page 49


 1221              		.thumb_func
 1222              		.type	CyEnableInts, %function
 1223              	CyEnableInts:
 1224              	.LFB31:
 1225              		.loc 1 1207 0
 1226              		.cfi_startproc
 1227              	.LVL51:
 1228              		.loc 1 1208 0
 1229 0000 014B     		ldr	r3, .L134
 1230              		.loc 1 1209 0
 1231              		@ sp needed for prologue
 1232              		.loc 1 1208 0
 1233 0002 1860     		str	r0, [r3]
 1234              		.loc 1 1209 0
 1235 0004 7047     		bx	lr
 1236              	.L135:
 1237 0006 C046     		.align	2
 1238              	.L134:
 1239 0008 00E100E0 		.word	-536813312
 1240              		.cfi_endproc
 1241              	.LFE31:
 1242              		.size	CyEnableInts, .-CyEnableInts
 1243              		.section	.text.CyIntSetSysVector,"ax",%progbits
 1244              		.align	2
 1245              		.global	CyIntSetSysVector
 1246              		.code	16
 1247              		.thumb_func
 1248              		.type	CyIntSetSysVector, %function
 1249              	CyIntSetSysVector:
 1250              	.LFB32:
 1251              		.loc 1 1229 0
 1252              		.cfi_startproc
 1253 0000 00B5     		push	{lr}
 1254              	.LCFI12:
 1255              		.cfi_def_cfa_offset 4
 1256              		.cfi_offset 14, -4
 1257              	.LVL52:
 1258              		.loc 1 1233 0
 1259 0002 0F28     		cmp	r0, #15
 1260 0004 00D9     		bls	.L137
 1261              	.LBB122:
 1262              	.LBB123:
 1263              		.loc 1 1512 0
 1264              	@ 1512 ".\Generated_Source\PSoC4\CyLib.c" 1
 1265 0006 01BE     		    bkpt    1
 1266              	@ 0 "" 2
 1267              		.code	16
 1268              	.L137:
 1269              	.LBE123:
 1270              	.LBE122:
 1271              		.loc 1 1236 0
 1272 0008 8023     		mov	r3, #128
 1273 000a 8000     		lsl	r0, r0, #2
 1274              	.LVL53:
 1275 000c 9A05     		lsl	r2, r3, #22
 1276 000e 8318     		add	r3, r0, r2
 1277 0010 1868     		ldr	r0, [r3]
ARM GAS  C:\Users\asha\AppData\Local\Temp\ccSrRbz4.s 			page 50


 1278              	.LVL54:
 1279              		.loc 1 1242 0
 1280              		@ sp needed for prologue
 1281              		.loc 1 1239 0
 1282 0012 1960     		str	r1, [r3]
 1283              	.LVL55:
 1284              		.loc 1 1242 0
 1285 0014 00BD     		pop	{pc}
 1286              		.cfi_endproc
 1287              	.LFE32:
 1288              		.size	CyIntSetSysVector, .-CyIntSetSysVector
 1289 0016 C046     		.section	.text.CyIntGetSysVector,"ax",%progbits
 1290              		.align	2
 1291              		.global	CyIntGetSysVector
 1292              		.code	16
 1293              		.thumb_func
 1294              		.type	CyIntGetSysVector, %function
 1295              	CyIntGetSysVector:
 1296              	.LFB33:
 1297              		.loc 1 1261 0
 1298              		.cfi_startproc
 1299 0000 00B5     		push	{lr}
 1300              	.LCFI13:
 1301              		.cfi_def_cfa_offset 4
 1302              		.cfi_offset 14, -4
 1303              	.LVL56:
 1304              		.loc 1 1264 0
 1305 0002 0F28     		cmp	r0, #15
 1306 0004 00D9     		bls	.L140
 1307              	.LBB124:
 1308              	.LBB125:
 1309              		.loc 1 1512 0
 1310              	@ 1512 ".\Generated_Source\PSoC4\CyLib.c" 1
 1311 0006 01BE     		    bkpt    1
 1312              	@ 0 "" 2
 1313              		.code	16
 1314              	.L140:
 1315 0008 8022     		mov	r2, #128
 1316 000a 8100     		lsl	r1, r0, #2
 1317 000c 9305     		lsl	r3, r2, #22
 1318 000e C818     		add	r0, r1, r3
 1319              	.LVL57:
 1320 0010 0068     		ldr	r0, [r0]
 1321              	.LBE125:
 1322              	.LBE124:
 1323              		.loc 1 1267 0
 1324              		@ sp needed for prologue
 1325 0012 00BD     		pop	{pc}
 1326              		.cfi_endproc
 1327              	.LFE33:
 1328              		.size	CyIntGetSysVector, .-CyIntGetSysVector
 1329              		.section	.text.CyIntSetVector,"ax",%progbits
 1330              		.align	2
 1331              		.global	CyIntSetVector
 1332              		.code	16
 1333              		.thumb_func
 1334              		.type	CyIntSetVector, %function
ARM GAS  C:\Users\asha\AppData\Local\Temp\ccSrRbz4.s 			page 51


 1335              	CyIntSetVector:
 1336              	.LFB34:
 1337              		.loc 1 1286 0
 1338              		.cfi_startproc
 1339 0000 00B5     		push	{lr}
 1340              	.LCFI14:
 1341              		.cfi_def_cfa_offset 4
 1342              		.cfi_offset 14, -4
 1343              	.LVL58:
 1344              		.loc 1 1290 0
 1345 0002 1F28     		cmp	r0, #31
 1346 0004 00D9     		bls	.L143
 1347              	.LBB126:
 1348              	.LBB127:
 1349              		.loc 1 1512 0
 1350              	@ 1512 ".\Generated_Source\PSoC4\CyLib.c" 1
 1351 0006 01BE     		    bkpt    1
 1352              	@ 0 "" 2
 1353              		.code	16
 1354              	.L143:
 1355              	.LBE127:
 1356              	.LBE126:
 1357              		.loc 1 1293 0
 1358 0008 024A     		ldr	r2, .L145
 1359 000a 8000     		lsl	r0, r0, #2
 1360              	.LVL59:
 1361 000c 8318     		add	r3, r0, r2
 1362 000e 1868     		ldr	r0, [r3]
 1363              	.LVL60:
 1364              		.loc 1 1299 0
 1365              		@ sp needed for prologue
 1366              		.loc 1 1296 0
 1367 0010 1960     		str	r1, [r3]
 1368              	.LVL61:
 1369              		.loc 1 1299 0
 1370 0012 00BD     		pop	{pc}
 1371              	.L146:
 1372              		.align	2
 1373              	.L145:
 1374 0014 40000020 		.word	536870976
 1375              		.cfi_endproc
 1376              	.LFE34:
 1377              		.size	CyIntSetVector, .-CyIntSetVector
 1378              		.section	.text.CyIntGetVector,"ax",%progbits
 1379              		.align	2
 1380              		.global	CyIntGetVector
 1381              		.code	16
 1382              		.thumb_func
 1383              		.type	CyIntGetVector, %function
 1384              	CyIntGetVector:
 1385              	.LFB35:
 1386              		.loc 1 1317 0
 1387              		.cfi_startproc
 1388 0000 00B5     		push	{lr}
 1389              	.LCFI15:
 1390              		.cfi_def_cfa_offset 4
 1391              		.cfi_offset 14, -4
ARM GAS  C:\Users\asha\AppData\Local\Temp\ccSrRbz4.s 			page 52


 1392              	.LVL62:
 1393              		.loc 1 1320 0
 1394 0002 1F28     		cmp	r0, #31
 1395 0004 00D9     		bls	.L148
 1396              	.LBB128:
 1397              	.LBB129:
 1398              		.loc 1 1512 0
 1399              	@ 1512 ".\Generated_Source\PSoC4\CyLib.c" 1
 1400 0006 01BE     		    bkpt    1
 1401              	@ 0 "" 2
 1402              		.code	16
 1403              	.L148:
 1404 0008 024B     		ldr	r3, .L150
 1405 000a 8100     		lsl	r1, r0, #2
 1406 000c C818     		add	r0, r1, r3
 1407              	.LVL63:
 1408 000e 0068     		ldr	r0, [r0]
 1409              	.LBE129:
 1410              	.LBE128:
 1411              		.loc 1 1323 0
 1412              		@ sp needed for prologue
 1413 0010 00BD     		pop	{pc}
 1414              	.L151:
 1415 0012 C046     		.align	2
 1416              	.L150:
 1417 0014 40000020 		.word	536870976
 1418              		.cfi_endproc
 1419              	.LFE35:
 1420              		.size	CyIntGetVector, .-CyIntGetVector
 1421              		.section	.text.CyIntGetPriority,"ax",%progbits
 1422              		.align	2
 1423              		.global	CyIntGetPriority
 1424              		.code	16
 1425              		.thumb_func
 1426              		.type	CyIntGetPriority, %function
 1427              	CyIntGetPriority:
 1428              	.LFB37:
 1429              		.loc 1 1377 0
 1430              		.cfi_startproc
 1431 0000 00B5     		push	{lr}
 1432              	.LCFI16:
 1433              		.cfi_def_cfa_offset 4
 1434              		.cfi_offset 14, -4
 1435              	.LVL64:
 1436              		.loc 1 1380 0
 1437 0002 1F28     		cmp	r0, #31
 1438 0004 00D9     		bls	.L153
 1439              	.LBB130:
 1440              	.LBB131:
 1441              		.loc 1 1512 0
 1442              	@ 1512 ".\Generated_Source\PSoC4\CyLib.c" 1
 1443 0006 01BE     		    bkpt    1
 1444              	@ 0 "" 2
 1445              		.code	16
 1446              	.L153:
 1447              	.LBE131:
 1448              	.LBE130:
ARM GAS  C:\Users\asha\AppData\Local\Temp\ccSrRbz4.s 			page 53


 1449              		.loc 1 1382 0
 1450 0008 8108     		lsr	r1, r0, #2
 1451 000a 064A     		ldr	r2, .L155
 1452 000c 8B00     		lsl	r3, r1, #2
 1453 000e 9918     		add	r1, r3, r2
 1454 0010 0323     		mov	r3, #3
 1455 0012 1840     		and	r0, r0, r3
 1456              	.LVL65:
 1457 0014 0A68     		ldr	r2, [r1]
 1458 0016 C000     		lsl	r0, r0, #3
 1459 0018 0630     		add	r0, r0, #6
 1460 001a C240     		lsr	r2, r2, r0
 1461 001c 101C     		mov	r0, r2
 1462 001e 1840     		and	r0, r0, r3
 1463              		.loc 1 1385 0
 1464              		@ sp needed for prologue
 1465 0020 00BD     		pop	{pc}
 1466              	.L156:
 1467 0022 C046     		.align	2
 1468              	.L155:
 1469 0024 00E400E0 		.word	-536812544
 1470              		.cfi_endproc
 1471              	.LFE37:
 1472              		.size	CyIntGetPriority, .-CyIntGetPriority
 1473              		.section	.text.CyIntEnable,"ax",%progbits
 1474              		.align	2
 1475              		.global	CyIntEnable
 1476              		.code	16
 1477              		.thumb_func
 1478              		.type	CyIntEnable, %function
 1479              	CyIntEnable:
 1480              	.LFB38:
 1481              		.loc 1 1403 0
 1482              		.cfi_startproc
 1483              	.LVL66:
 1484              		.loc 1 1404 0
 1485 0000 1F22     		mov	r2, #31
 1486 0002 1040     		and	r0, r0, r2
 1487              	.LVL67:
 1488 0004 024B     		ldr	r3, .L159
 1489 0006 0121     		mov	r1, #1
 1490 0008 8140     		lsl	r1, r1, r0
 1491 000a 1960     		str	r1, [r3]
 1492              		.loc 1 1405 0
 1493              		@ sp needed for prologue
 1494 000c 7047     		bx	lr
 1495              	.L160:
 1496 000e C046     		.align	2
 1497              	.L159:
 1498 0010 00E100E0 		.word	-536813312
 1499              		.cfi_endproc
 1500              	.LFE38:
 1501              		.size	CyIntEnable, .-CyIntEnable
 1502              		.section	.text.CyIntGetState,"ax",%progbits
 1503              		.align	2
 1504              		.global	CyIntGetState
 1505              		.code	16
ARM GAS  C:\Users\asha\AppData\Local\Temp\ccSrRbz4.s 			page 54


 1506              		.thumb_func
 1507              		.type	CyIntGetState, %function
 1508              	CyIntGetState:
 1509              	.LFB39:
 1510              		.loc 1 1423 0
 1511              		.cfi_startproc
 1512              	.LVL68:
 1513              		.loc 1 1425 0
 1514 0000 044B     		ldr	r3, .L163
 1515 0002 1F22     		mov	r2, #31
 1516 0004 1968     		ldr	r1, [r3]
 1517 0006 1040     		and	r0, r0, r2
 1518              	.LVL69:
 1519 0008 C140     		lsr	r1, r1, r0
 1520 000a 081C     		mov	r0, r1
 1521 000c 0123     		mov	r3, #1
 1522 000e 1840     		and	r0, r0, r3
 1523              		.loc 1 1426 0
 1524              		@ sp needed for prologue
 1525 0010 7047     		bx	lr
 1526              	.L164:
 1527 0012 C046     		.align	2
 1528              	.L163:
 1529 0014 00E100E0 		.word	-536813312
 1530              		.cfi_endproc
 1531              	.LFE39:
 1532              		.size	CyIntGetState, .-CyIntGetState
 1533              		.section	.text.CyIntDisable,"ax",%progbits
 1534              		.align	2
 1535              		.global	CyIntDisable
 1536              		.code	16
 1537              		.thumb_func
 1538              		.type	CyIntDisable, %function
 1539              	CyIntDisable:
 1540              	.LFB40:
 1541              		.loc 1 1444 0
 1542              		.cfi_startproc
 1543              	.LVL70:
 1544              		.loc 1 1445 0
 1545 0000 1F22     		mov	r2, #31
 1546 0002 1040     		and	r0, r0, r2
 1547              	.LVL71:
 1548 0004 024B     		ldr	r3, .L167
 1549 0006 0121     		mov	r1, #1
 1550 0008 8140     		lsl	r1, r1, r0
 1551 000a 1960     		str	r1, [r3]
 1552              		.loc 1 1446 0
 1553              		@ sp needed for prologue
 1554 000c 7047     		bx	lr
 1555              	.L168:
 1556 000e C046     		.align	2
 1557              	.L167:
 1558 0010 80E100E0 		.word	-536813184
 1559              		.cfi_endproc
 1560              	.LFE40:
 1561              		.size	CyIntDisable, .-CyIntDisable
 1562              		.section	.text.CyIntSetPending,"ax",%progbits
ARM GAS  C:\Users\asha\AppData\Local\Temp\ccSrRbz4.s 			page 55


 1563              		.align	2
 1564              		.global	CyIntSetPending
 1565              		.code	16
 1566              		.thumb_func
 1567              		.type	CyIntSetPending, %function
 1568              	CyIntSetPending:
 1569              	.LFB41:
 1570              		.loc 1 1463 0
 1571              		.cfi_startproc
 1572              	.LVL72:
 1573              		.loc 1 1464 0
 1574 0000 1F22     		mov	r2, #31
 1575 0002 1040     		and	r0, r0, r2
 1576              	.LVL73:
 1577 0004 024B     		ldr	r3, .L171
 1578 0006 0121     		mov	r1, #1
 1579 0008 8140     		lsl	r1, r1, r0
 1580 000a 1960     		str	r1, [r3]
 1581              		.loc 1 1465 0
 1582              		@ sp needed for prologue
 1583 000c 7047     		bx	lr
 1584              	.L172:
 1585 000e C046     		.align	2
 1586              	.L171:
 1587 0010 00E200E0 		.word	-536813056
 1588              		.cfi_endproc
 1589              	.LFE41:
 1590              		.size	CyIntSetPending, .-CyIntSetPending
 1591              		.section	.text.CyIntClearPending,"ax",%progbits
 1592              		.align	2
 1593              		.global	CyIntClearPending
 1594              		.code	16
 1595              		.thumb_func
 1596              		.type	CyIntClearPending, %function
 1597              	CyIntClearPending:
 1598              	.LFB42:
 1599              		.loc 1 1483 0
 1600              		.cfi_startproc
 1601              	.LVL74:
 1602              		.loc 1 1484 0
 1603 0000 1F22     		mov	r2, #31
 1604 0002 1040     		and	r0, r0, r2
 1605              	.LVL75:
 1606 0004 024B     		ldr	r3, .L175
 1607 0006 0121     		mov	r1, #1
 1608 0008 8140     		lsl	r1, r1, r0
 1609 000a 1960     		str	r1, [r3]
 1610              		.loc 1 1485 0
 1611              		@ sp needed for prologue
 1612 000c 7047     		bx	lr
 1613              	.L176:
 1614 000e C046     		.align	2
 1615              	.L175:
 1616 0010 80E200E0 		.word	-536812928
 1617              		.cfi_endproc
 1618              	.LFE42:
 1619              		.size	CyIntClearPending, .-CyIntClearPending
ARM GAS  C:\Users\asha\AppData\Local\Temp\ccSrRbz4.s 			page 56


 1620              		.section	.text.CyHalt,"ax",%progbits
 1621              		.align	2
 1622              		.global	CyHalt
 1623              		.code	16
 1624              		.thumb_func
 1625              		.type	CyHalt, %function
 1626              	CyHalt:
 1627              	.LFB43:
 1628              		.loc 1 1503 0
 1629              		.cfi_startproc
 1630              	.LVL76:
 1631              		.loc 1 1512 0
 1632              	@ 1512 ".\Generated_Source\PSoC4\CyLib.c" 1
 1633 0000 01BE     		    bkpt    1
 1634              	@ 0 "" 2
1513:.\Generated_Source\PSoC4/CyLib.c ****     #elif defined(__C51__)
1514:.\Generated_Source\PSoC4/CyLib.c ****         CYDEV_HALT_CPU;
1515:.\Generated_Source\PSoC4/CyLib.c ****     #endif  /* (__ARMCC_VERSION) */
1516:.\Generated_Source\PSoC4/CyLib.c **** }
 1635              		.loc 1 1516 0
 1636              		.code	16
 1637              		@ sp needed for prologue
 1638 0002 7047     		bx	lr
 1639              		.cfi_endproc
 1640              	.LFE43:
 1641              		.size	CyHalt, .-CyHalt
 1642              		.section	.text.CySoftwareReset,"ax",%progbits
 1643              		.align	2
 1644              		.global	CySoftwareReset
 1645              		.code	16
 1646              		.thumb_func
 1647              		.type	CySoftwareReset, %function
 1648              	CySoftwareReset:
 1649              	.LFB44:
1517:.\Generated_Source\PSoC4/CyLib.c **** 
1518:.\Generated_Source\PSoC4/CyLib.c **** 
1519:.\Generated_Source\PSoC4/CyLib.c **** /*******************************************************************************
1520:.\Generated_Source\PSoC4/CyLib.c **** * Function Name: CySoftwareReset
1521:.\Generated_Source\PSoC4/CyLib.c **** ********************************************************************************
1522:.\Generated_Source\PSoC4/CyLib.c **** *
1523:.\Generated_Source\PSoC4/CyLib.c **** * Summary:
1524:.\Generated_Source\PSoC4/CyLib.c **** *  Forces a software reset of the device.
1525:.\Generated_Source\PSoC4/CyLib.c **** *
1526:.\Generated_Source\PSoC4/CyLib.c **** * Parameters:
1527:.\Generated_Source\PSoC4/CyLib.c **** *  None
1528:.\Generated_Source\PSoC4/CyLib.c **** *
1529:.\Generated_Source\PSoC4/CyLib.c **** * Return:
1530:.\Generated_Source\PSoC4/CyLib.c **** *  None
1531:.\Generated_Source\PSoC4/CyLib.c **** *
1532:.\Generated_Source\PSoC4/CyLib.c **** *******************************************************************************/
1533:.\Generated_Source\PSoC4/CyLib.c **** void CySoftwareReset(void)
1534:.\Generated_Source\PSoC4/CyLib.c **** {
 1650              		.loc 1 1534 0
 1651              		.cfi_startproc
1535:.\Generated_Source\PSoC4/CyLib.c ****     /***************************************************************************
1536:.\Generated_Source\PSoC4/CyLib.c ****     * Setting the system reset request bit. The vector key value must be written
1537:.\Generated_Source\PSoC4/CyLib.c ****     * to the register, otherwise the register write is unpredictable.
ARM GAS  C:\Users\asha\AppData\Local\Temp\ccSrRbz4.s 			page 57


1538:.\Generated_Source\PSoC4/CyLib.c ****     ***************************************************************************/
1539:.\Generated_Source\PSoC4/CyLib.c ****     CY_SYS_CM0_AIRCR_REG = (CY_SYS_CM0_AIRCR_REG & ~CY_SYS_CM0_AIRCR_VECTKEY_MASK) |
 1652              		.loc 1 1539 0
 1653 0000 034B     		ldr	r3, .L181
 1654 0002 0449     		ldr	r1, .L181+4
 1655 0004 1868     		ldr	r0, [r3]
1540:.\Generated_Source\PSoC4/CyLib.c ****                             CY_SYS_CM0_AIRCR_VECTKEY | CY_SYS_CM0_AIRCR_SYSRESETREQ;
1541:.\Generated_Source\PSoC4/CyLib.c **** }
 1656              		.loc 1 1541 0
 1657              		@ sp needed for prologue
 1658              		.loc 1 1539 0
 1659 0006 82B2     		uxth	r2, r0
 1660 0008 0A43     		orr	r2, r2, r1
 1661 000a 1A60     		str	r2, [r3]
 1662              		.loc 1 1541 0
 1663 000c 7047     		bx	lr
 1664              	.L182:
 1665 000e C046     		.align	2
 1666              	.L181:
 1667 0010 0CED00E0 		.word	-536810228
 1668 0014 0400FA05 		.word	100270084
 1669              		.cfi_endproc
 1670              	.LFE44:
 1671              		.size	CySoftwareReset, .-CySoftwareReset
 1672              		.global	__aeabi_uidiv
 1673              		.section	.text.CyDelayFreq,"ax",%progbits
 1674              		.align	2
 1675              		.global	CyDelayFreq
 1676              		.code	16
 1677              		.thumb_func
 1678              		.type	CyDelayFreq, %function
 1679              	CyDelayFreq:
 1680              	.LFB47:
1542:.\Generated_Source\PSoC4/CyLib.c **** 
1543:.\Generated_Source\PSoC4/CyLib.c **** 
1544:.\Generated_Source\PSoC4/CyLib.c **** /*******************************************************************************
1545:.\Generated_Source\PSoC4/CyLib.c **** * Function Name: CyDelay
1546:.\Generated_Source\PSoC4/CyLib.c **** ********************************************************************************
1547:.\Generated_Source\PSoC4/CyLib.c **** *
1548:.\Generated_Source\PSoC4/CyLib.c **** * Summary:
1549:.\Generated_Source\PSoC4/CyLib.c **** *  Blocks for milliseconds.
1550:.\Generated_Source\PSoC4/CyLib.c **** *
1551:.\Generated_Source\PSoC4/CyLib.c **** * Parameters:
1552:.\Generated_Source\PSoC4/CyLib.c **** *  milliseconds: number of milliseconds to delay.
1553:.\Generated_Source\PSoC4/CyLib.c **** *
1554:.\Generated_Source\PSoC4/CyLib.c **** * Return:
1555:.\Generated_Source\PSoC4/CyLib.c **** *  None
1556:.\Generated_Source\PSoC4/CyLib.c **** *
1557:.\Generated_Source\PSoC4/CyLib.c **** *******************************************************************************/
1558:.\Generated_Source\PSoC4/CyLib.c **** void CyDelay(uint32 milliseconds)
1559:.\Generated_Source\PSoC4/CyLib.c **** {
1560:.\Generated_Source\PSoC4/CyLib.c ****     while (milliseconds > CY_DELAY_MS_OVERFLOW)
1561:.\Generated_Source\PSoC4/CyLib.c ****     {
1562:.\Generated_Source\PSoC4/CyLib.c ****         /* This loop prevents overflow.
1563:.\Generated_Source\PSoC4/CyLib.c ****          * At 100MHz, milliseconds * cydelayFreqKhz overflows at about 42 seconds
1564:.\Generated_Source\PSoC4/CyLib.c ****          */
1565:.\Generated_Source\PSoC4/CyLib.c ****         CyDelayCycles(cydelay32kMs);
ARM GAS  C:\Users\asha\AppData\Local\Temp\ccSrRbz4.s 			page 58


1566:.\Generated_Source\PSoC4/CyLib.c ****         milliseconds -= CY_DELAY_MS_OVERFLOW;
1567:.\Generated_Source\PSoC4/CyLib.c ****     }
1568:.\Generated_Source\PSoC4/CyLib.c **** 
1569:.\Generated_Source\PSoC4/CyLib.c ****     CyDelayCycles(milliseconds * cydelayFreqKhz);
1570:.\Generated_Source\PSoC4/CyLib.c **** }
1571:.\Generated_Source\PSoC4/CyLib.c **** 
1572:.\Generated_Source\PSoC4/CyLib.c **** 
1573:.\Generated_Source\PSoC4/CyLib.c **** /*******************************************************************************
1574:.\Generated_Source\PSoC4/CyLib.c **** * Function Name: CyDelayUs
1575:.\Generated_Source\PSoC4/CyLib.c **** ********************************************************************************
1576:.\Generated_Source\PSoC4/CyLib.c **** * Summary:
1577:.\Generated_Source\PSoC4/CyLib.c **** *  Blocks for microseconds.
1578:.\Generated_Source\PSoC4/CyLib.c **** *
1579:.\Generated_Source\PSoC4/CyLib.c **** * Parameters:
1580:.\Generated_Source\PSoC4/CyLib.c **** *  microseconds: number of microseconds to delay.
1581:.\Generated_Source\PSoC4/CyLib.c **** *
1582:.\Generated_Source\PSoC4/CyLib.c **** * Return:
1583:.\Generated_Source\PSoC4/CyLib.c **** *  None
1584:.\Generated_Source\PSoC4/CyLib.c **** *
1585:.\Generated_Source\PSoC4/CyLib.c **** *******************************************************************************/
1586:.\Generated_Source\PSoC4/CyLib.c **** void CyDelayUs(uint16 microseconds)
1587:.\Generated_Source\PSoC4/CyLib.c **** {
1588:.\Generated_Source\PSoC4/CyLib.c ****     CyDelayCycles((uint32)microseconds * cydelayFreqMhz);
1589:.\Generated_Source\PSoC4/CyLib.c **** }
1590:.\Generated_Source\PSoC4/CyLib.c **** 
1591:.\Generated_Source\PSoC4/CyLib.c **** 
1592:.\Generated_Source\PSoC4/CyLib.c **** /*******************************************************************************
1593:.\Generated_Source\PSoC4/CyLib.c **** * Function Name: CyDelayFreq
1594:.\Generated_Source\PSoC4/CyLib.c **** ********************************************************************************
1595:.\Generated_Source\PSoC4/CyLib.c **** * Summary:
1596:.\Generated_Source\PSoC4/CyLib.c **** *  Sets clock frequency for CyDelay.
1597:.\Generated_Source\PSoC4/CyLib.c **** *
1598:.\Generated_Source\PSoC4/CyLib.c **** * Parameters:
1599:.\Generated_Source\PSoC4/CyLib.c **** *  freq: Frequency of bus clock in Hertz.
1600:.\Generated_Source\PSoC4/CyLib.c **** *
1601:.\Generated_Source\PSoC4/CyLib.c **** * Return:
1602:.\Generated_Source\PSoC4/CyLib.c **** *  None
1603:.\Generated_Source\PSoC4/CyLib.c **** *
1604:.\Generated_Source\PSoC4/CyLib.c **** *******************************************************************************/
1605:.\Generated_Source\PSoC4/CyLib.c **** void CyDelayFreq(uint32 freq)
1606:.\Generated_Source\PSoC4/CyLib.c **** {
 1681              		.loc 1 1606 0
 1682              		.cfi_startproc
 1683 0000 70B5     		push	{r4, r5, r6, lr}
 1684              	.LCFI17:
 1685              		.cfi_def_cfa_offset 16
 1686              		.cfi_offset 4, -16
 1687              		.cfi_offset 5, -12
 1688              		.cfi_offset 6, -8
 1689              		.cfi_offset 14, -4
 1690              	.LVL77:
 1691              		.loc 1 1606 0
 1692 0002 051C     		mov	r5, r0
1607:.\Generated_Source\PSoC4/CyLib.c ****     if (freq != 0u)
1608:.\Generated_Source\PSoC4/CyLib.c ****     {
1609:.\Generated_Source\PSoC4/CyLib.c ****         cydelayFreqHz = freq;
 1693              		.loc 1 1609 0
ARM GAS  C:\Users\asha\AppData\Local\Temp\ccSrRbz4.s 			page 59


 1694 0004 0D4C     		ldr	r4, .L188
 1695              		.loc 1 1607 0
 1696 0006 0028     		cmp	r0, #0
 1697 0008 08D1     		bne	.L187
1610:.\Generated_Source\PSoC4/CyLib.c ****     }
1611:.\Generated_Source\PSoC4/CyLib.c ****     else
1612:.\Generated_Source\PSoC4/CyLib.c ****     {
1613:.\Generated_Source\PSoC4/CyLib.c ****         cydelayFreqHz = CYDEV_BCLK__SYSCLK__HZ;
 1698              		.loc 1 1613 0
 1699 000a 0D48     		ldr	r0, .L188+4
 1700              	.LVL78:
 1701 000c 0D4B     		ldr	r3, .L188+8
 1702 000e 2060     		str	r0, [r4]
 1703 0010 0D48     		ldr	r0, .L188+12
 1704 0012 3026     		mov	r6, #48
 1705              	.L185:
1614:.\Generated_Source\PSoC4/CyLib.c ****     }
1615:.\Generated_Source\PSoC4/CyLib.c **** 
1616:.\Generated_Source\PSoC4/CyLib.c ****     cydelayFreqMhz = (uint8)((cydelayFreqHz + CY_DELAY_1M_MINUS_1_THRESHOLD) / CY_DELAY_1M_THRESHOL
 1706              		.loc 1 1616 0
 1707 0014 2671     		strb	r6, [r4, #4]
1617:.\Generated_Source\PSoC4/CyLib.c ****     cydelayFreqKhz = (cydelayFreqHz + CY_DELAY_1K_MINUS_1_THRESHOLD) / CY_DELAY_1K_THRESHOLD;
 1708              		.loc 1 1617 0
 1709 0016 A060     		str	r0, [r4, #8]
1618:.\Generated_Source\PSoC4/CyLib.c ****     cydelay32kMs   = CY_DELAY_MS_OVERFLOW * cydelayFreqKhz;
 1710              		.loc 1 1618 0
 1711 0018 E360     		str	r3, [r4, #12]
1619:.\Generated_Source\PSoC4/CyLib.c **** }
 1712              		.loc 1 1619 0
 1713              		@ sp needed for prologue
 1714              	.LVL79:
 1715 001a 70BD     		pop	{r4, r5, r6, pc}
 1716              	.LVL80:
 1717              	.L187:
 1718              		.loc 1 1609 0
 1719 001c 0B4A     		ldr	r2, .L188+16
 1720 001e 2060     		str	r0, [r4]
 1721 0020 0B49     		ldr	r1, .L188+20
 1722 0022 8018     		add	r0, r0, r2
 1723              	.LVL81:
 1724 0024 FFF7FEFF 		bl	__aeabi_uidiv
 1725 0028 0A4B     		ldr	r3, .L188+24
 1726 002a FA21     		mov	r1, #250
 1727 002c C6B2     		uxtb	r6, r0
 1728 002e 8900     		lsl	r1, r1, #2
 1729 0030 E818     		add	r0, r5, r3
 1730 0032 FFF7FEFF 		bl	__aeabi_uidiv
 1731 0036 C303     		lsl	r3, r0, #15
 1732 0038 ECE7     		b	.L185
 1733              	.L189:
 1734 003a C046     		.align	2
 1735              	.L188:
 1736 003c 00000000 		.word	.LANCHOR0
 1737 0040 006CDC02 		.word	48000000
 1738 0044 0000C05D 		.word	1572864000
 1739 0048 80BB0000 		.word	48000
 1740 004c 3F420F00 		.word	999999
ARM GAS  C:\Users\asha\AppData\Local\Temp\ccSrRbz4.s 			page 60


 1741 0050 40420F00 		.word	1000000
 1742 0054 E7030000 		.word	999
 1743              		.cfi_endproc
 1744              	.LFE47:
 1745              		.size	CyDelayFreq, .-CyDelayFreq
 1746              		.section	.text.CyDelayUs,"ax",%progbits
 1747              		.align	2
 1748              		.global	CyDelayUs
 1749              		.code	16
 1750              		.thumb_func
 1751              		.type	CyDelayUs, %function
 1752              	CyDelayUs:
 1753              	.LFB46:
 1754              		.loc 1 1587 0
 1755              		.cfi_startproc
 1756 0000 08B5     		push	{r3, lr}
 1757              	.LCFI18:
 1758              		.cfi_def_cfa_offset 8
 1759              		.cfi_offset 3, -8
 1760              		.cfi_offset 14, -4
 1761              	.LVL82:
 1762              		.loc 1 1588 0
 1763 0002 0349     		ldr	r1, .L192
 1764              		.loc 1 1589 0
 1765              		@ sp needed for prologue
 1766              		.loc 1 1588 0
 1767 0004 0B79     		ldrb	r3, [r1, #4]
 1768 0006 5843     		mul	r0, r3
 1769              	.LVL83:
 1770 0008 FFF7FEFF 		bl	CyDelayCycles
 1771              		.loc 1 1589 0
 1772 000c 08BD     		pop	{r3, pc}
 1773              	.L193:
 1774 000e C046     		.align	2
 1775              	.L192:
 1776 0010 00000000 		.word	.LANCHOR0
 1777              		.cfi_endproc
 1778              	.LFE46:
 1779              		.size	CyDelayUs, .-CyDelayUs
 1780              		.section	.text.CySysWdtWriteMatch,"ax",%progbits
 1781              		.align	2
 1782              		.global	CySysWdtWriteMatch
 1783              		.code	16
 1784              		.thumb_func
 1785              		.type	CySysWdtWriteMatch, %function
 1786              	CySysWdtWriteMatch:
 1787              	.LFB18:
 1788              		.loc 1 765 0
 1789              		.cfi_startproc
 1790 0000 38B5     		push	{r3, r4, r5, lr}
 1791              	.LCFI19:
 1792              		.cfi_def_cfa_offset 16
 1793              		.cfi_offset 3, -16
 1794              		.cfi_offset 4, -12
 1795              		.cfi_offset 5, -8
 1796              		.cfi_offset 14, -4
 1797              	.LVL84:
ARM GAS  C:\Users\asha\AppData\Local\Temp\ccSrRbz4.s 			page 61


 1798              		.loc 1 765 0
 1799 0002 041C     		mov	r4, r0
 1800 0004 0D1C     		mov	r5, r1
 1801              		.loc 1 768 0
 1802 0006 0128     		cmp	r0, #1
 1803 0008 00D9     		bls	.L195
 1804              	.LVL85:
 1805              	.LBB132:
 1806              	.LBB133:
 1807              		.loc 1 1512 0
 1808              	@ 1512 ".\Generated_Source\PSoC4\CyLib.c" 1
 1809 000a 01BE     		    bkpt    1
 1810              	@ 0 "" 2
 1811              		.code	16
 1812              	.L195:
 1813              	.LBE133:
 1814              	.LBE132:
 1815              		.loc 1 774 0
 1816 000c 0B4B     		ldr	r3, .L198
 1817 000e 1A68     		ldr	r2, [r3]
 1818 0010 002A     		cmp	r2, #0
 1819 0012 04DB     		blt	.L196
 1820              	.LBB134:
 1821              	.LBB135:
 1822              		.loc 1 86 0
 1823 0014 1968     		ldr	r1, [r3]
 1824 0016 8022     		mov	r2, #128
 1825 0018 1006     		lsl	r0, r2, #24
 1826              	.LVL86:
 1827 001a 0843     		orr	r0, r0, r1
 1828 001c 1860     		str	r0, [r3]
 1829              	.LVL87:
 1830              	.L196:
 1831              	.LBE135:
 1832              	.LBE134:
 1833              		.loc 1 780 0
 1834 001e 8220     		mov	r0, #130
 1835 0020 FFF7FEFF 		bl	CyDelayUs
 1836              		.loc 1 782 0
 1837 0024 064B     		ldr	r3, .L198+4
 1838              		.loc 1 784 0
 1839 0026 0749     		ldr	r1, .L198+8
 1840              		.loc 1 783 0
 1841 0028 2201     		lsl	r2, r4, #4
 1842              		.loc 1 782 0
 1843 002a 1868     		ldr	r0, [r3]
 1844              	.LVL88:
 1845              		.loc 1 784 0
 1846 002c 9140     		lsl	r1, r1, r2
 1847 002e 8843     		bic	r0, r0, r1
 1848              	.LVL89:
 1849 0030 9540     		lsl	r5, r5, r2
 1850              	.LVL90:
 1851 0032 041C     		mov	r4, r0
 1852              	.LVL91:
 1853 0034 2C43     		orr	r4, r4, r5
 1854 0036 1C60     		str	r4, [r3]
ARM GAS  C:\Users\asha\AppData\Local\Temp\ccSrRbz4.s 			page 62


 1855              		.loc 1 785 0
 1856              		@ sp needed for prologue
 1857 0038 38BD     		pop	{r3, r4, r5, pc}
 1858              	.L199:
 1859 003a C046     		.align	2
 1860              	.L198:
 1861 003c 04010B40 		.word	1074462980
 1862 0040 08020B40 		.word	1074463240
 1863 0044 FFFF0000 		.word	65535
 1864              		.cfi_endproc
 1865              	.LFE18:
 1866              		.size	CySysWdtWriteMatch, .-CySysWdtWriteMatch
 1867              		.section	.text.CyDelay,"ax",%progbits
 1868              		.align	2
 1869              		.global	CyDelay
 1870              		.code	16
 1871              		.thumb_func
 1872              		.type	CyDelay, %function
 1873              	CyDelay:
 1874              	.LFB45:
 1875              		.loc 1 1559 0
 1876              		.cfi_startproc
 1877 0000 F0B5     		push	{r4, r5, r6, r7, lr}
 1878              	.LCFI20:
 1879              		.cfi_def_cfa_offset 20
 1880              		.cfi_offset 4, -20
 1881              		.cfi_offset 5, -16
 1882              		.cfi_offset 6, -12
 1883              		.cfi_offset 7, -8
 1884              		.cfi_offset 14, -4
 1885 0002 4746     		mov	r7, r8
 1886 0004 80B4     		push	{r7}
 1887              	.LCFI21:
 1888              		.cfi_def_cfa_offset 24
 1889              		.cfi_offset 8, -24
 1890              	.LVL92:
 1891              		.loc 1 1560 0
 1892 0006 8027     		mov	r7, #128
 1893 0008 3F02     		lsl	r7, r7, #8
 1894              		.loc 1 1559 0
 1895 000a 061C     		mov	r6, r0
 1896 000c 184D     		ldr	r5, .L213
 1897              		.loc 1 1560 0
 1898 000e B842     		cmp	r0, r7
 1899 0010 26D9     		bls	.L201
 1900 0012 184A     		ldr	r2, .L213+4
 1901 0014 8118     		add	r1, r0, r2
 1902 0016 0804     		lsl	r0, r1, #16
 1903              	.LVL93:
 1904 0018 C30F     		lsr	r3, r0, #31
 1905              		.loc 1 1565 0
 1906 001a E868     		ldr	r0, [r5, #12]
 1907 001c 9846     		mov	r8, r3
 1908 001e FFF7FEFF 		bl	CyDelayCycles
 1909              		.loc 1 1566 0
 1910 0022 154B     		ldr	r3, .L213+8
 1911 0024 F418     		add	r4, r6, r3
ARM GAS  C:\Users\asha\AppData\Local\Temp\ccSrRbz4.s 			page 63


 1912              	.LVL94:
 1913              		.loc 1 1560 0
 1914 0026 BC42     		cmp	r4, r7
 1915 0028 13D9     		bls	.L212
 1916 002a 4346     		mov	r3, r8
 1917 002c 002B     		cmp	r3, #0
 1918 002e 06D0     		beq	.L202
 1919              		.loc 1 1565 0
 1920 0030 E868     		ldr	r0, [r5, #12]
 1921 0032 FFF7FEFF 		bl	CyDelayCycles
 1922              		.loc 1 1566 0
 1923 0036 114A     		ldr	r2, .L213+12
 1924 0038 B418     		add	r4, r6, r2
 1925              		.loc 1 1560 0
 1926 003a BC42     		cmp	r4, r7
 1927 003c 09D9     		bls	.L212
 1928              	.L202:
 1929              		.loc 1 1565 0
 1930 003e E868     		ldr	r0, [r5, #12]
 1931 0040 FFF7FEFF 		bl	CyDelayCycles
 1932 0044 E868     		ldr	r0, [r5, #12]
 1933 0046 FFF7FEFF 		bl	CyDelayCycles
 1934              		.loc 1 1566 0
 1935 004a 0C4B     		ldr	r3, .L213+12
 1936 004c E418     		add	r4, r4, r3
 1937              		.loc 1 1560 0
 1938 004e BC42     		cmp	r4, r7
 1939 0050 F5D8     		bhi	.L202
 1940              	.L212:
 1941              		.loc 1 1558 0
 1942 0052 084F     		ldr	r7, .L213+4
 1943 0054 F119     		add	r1, r6, r7
 1944 0056 C80B     		lsr	r0, r1, #15
 1945 0058 0137     		add	r7, r7, #1
 1946 005a C403     		lsl	r4, r0, #15
 1947              	.LVL95:
 1948 005c F619     		add	r6, r6, r7
 1949              	.LVL96:
 1950 005e 361B     		sub	r6, r6, r4
 1951              	.LVL97:
 1952              	.L201:
 1953              		.loc 1 1569 0
 1954 0060 A868     		ldr	r0, [r5, #8]
 1955              		.loc 1 1570 0
 1956              		@ sp needed for prologue
 1957              		.loc 1 1569 0
 1958 0062 7043     		mul	r0, r6
 1959 0064 FFF7FEFF 		bl	CyDelayCycles
 1960              	.LVL98:
 1961              		.loc 1 1570 0
 1962 0068 04BC     		pop	{r2}
 1963 006a 9046     		mov	r8, r2
 1964 006c F0BD     		pop	{r4, r5, r6, r7, pc}
 1965              	.L214:
 1966 006e C046     		.align	2
 1967              	.L213:
 1968 0070 00000000 		.word	.LANCHOR0
ARM GAS  C:\Users\asha\AppData\Local\Temp\ccSrRbz4.s 			page 64


 1969 0074 FF7FFFFF 		.word	-32769
 1970 0078 0080FFFF 		.word	-32768
 1971 007c 0000FFFF 		.word	-65536
 1972              		.cfi_endproc
 1973              	.LFE45:
 1974              		.size	CyDelay, .-CyDelay
 1975              		.section	.text.CyIntSetPriority,"ax",%progbits
 1976              		.align	2
 1977              		.global	CyIntSetPriority
 1978              		.code	16
 1979              		.thumb_func
 1980              		.type	CyIntSetPriority, %function
 1981              	CyIntSetPriority:
 1982              	.LFB36:
 1983              		.loc 1 1341 0
 1984              		.cfi_startproc
 1985 0000 38B5     		push	{r3, r4, r5, lr}
 1986              	.LCFI22:
 1987              		.cfi_def_cfa_offset 16
 1988              		.cfi_offset 3, -16
 1989              		.cfi_offset 4, -12
 1990              		.cfi_offset 5, -8
 1991              		.cfi_offset 14, -4
 1992              	.LVL99:
 1993              		.loc 1 1341 0
 1994 0002 041C     		mov	r4, r0
 1995 0004 0D1C     		mov	r5, r1
 1996              		.loc 1 1346 0
 1997 0006 0329     		cmp	r1, #3
 1998 0008 00D9     		bls	.L216
 1999              	.LVL100:
 2000              	.LBB136:
 2001              	.LBB137:
 2002              		.loc 1 1512 0
 2003              	@ 1512 ".\Generated_Source\PSoC4\CyLib.c" 1
 2004 000a 01BE     		    bkpt    1
 2005              	@ 0 "" 2
 2006              		.code	16
 2007              	.L216:
 2008              	.LBE137:
 2009              	.LBE136:
 2010              		.loc 1 1347 0
 2011 000c 1F2C     		cmp	r4, #31
 2012 000e 00D9     		bls	.L217
 2013              	.LBB138:
 2014              	.LBB139:
 2015              		.loc 1 1512 0
 2016              	@ 1512 ".\Generated_Source\PSoC4\CyLib.c" 1
 2017 0010 01BE     		    bkpt    1
 2018              	@ 0 "" 2
 2019              		.code	16
 2020              	.L217:
 2021              	.LBE139:
 2022              	.LBE138:
 2023              		.loc 1 1351 0
 2024 0012 FFF7FEFF 		bl	CyEnterCriticalSection
 2025              	.LVL101:
ARM GAS  C:\Users\asha\AppData\Local\Temp\ccSrRbz4.s 			page 65


 2026              		.loc 1 1353 0
 2027 0016 A208     		lsr	r2, r4, #2
 2028 0018 9300     		lsl	r3, r2, #2
 2029 001a 0849     		ldr	r1, .L219
 2030              		.loc 1 1354 0
 2031 001c 0322     		mov	r2, #3
 2032 001e 1440     		and	r4, r4, r2
 2033              	.LVL102:
 2034              		.loc 1 1353 0
 2035 0020 5B18     		add	r3, r3, r1
 2036              		.loc 1 1354 0
 2037 0022 E400     		lsl	r4, r4, #3
 2038              		.loc 1 1353 0
 2039 0024 1968     		ldr	r1, [r3]
 2040              	.LVL103:
 2041              		.loc 1 1354 0
 2042 0026 0634     		add	r4, r4, #6
 2043 0028 A240     		lsl	r2, r2, r4
 2044 002a 9143     		bic	r1, r1, r2
 2045              		.loc 1 1355 0
 2046 002c A540     		lsl	r5, r5, r4
 2047              	.LVL104:
 2048 002e 0C1C     		mov	r4, r1
 2049 0030 2C43     		orr	r4, r4, r5
 2050              	.LVL105:
 2051              		.loc 1 1356 0
 2052 0032 1C60     		str	r4, [r3]
 2053              		.loc 1 1358 0
 2054 0034 FFF7FEFF 		bl	CyExitCriticalSection
 2055              		.loc 1 1359 0
 2056              		@ sp needed for prologue
 2057              	.LVL106:
 2058 0038 38BD     		pop	{r3, r4, r5, pc}
 2059              	.L220:
 2060 003a C046     		.align	2
 2061              	.L219:
 2062 003c 00E400E0 		.word	-536812544
 2063              		.cfi_endproc
 2064              	.LFE36:
 2065              		.size	CyIntSetPriority, .-CyIntSetPriority
 2066              		.section	.text.CySysWdtClearInterrupt,"ax",%progbits
 2067              		.align	2
 2068              		.global	CySysWdtClearInterrupt
 2069              		.code	16
 2070              		.thumb_func
 2071              		.type	CySysWdtClearInterrupt, %function
 2072              	CySysWdtClearInterrupt:
 2073              	.LFB24:
 2074              		.loc 1 974 0
 2075              		.cfi_startproc
 2076 0000 70B5     		push	{r4, r5, r6, lr}
 2077              	.LCFI23:
 2078              		.cfi_def_cfa_offset 16
 2079              		.cfi_offset 4, -16
 2080              		.cfi_offset 5, -12
 2081              		.cfi_offset 6, -8
 2082              		.cfi_offset 14, -4
ARM GAS  C:\Users\asha\AppData\Local\Temp\ccSrRbz4.s 			page 66


 2083              	.LVL107:
 2084              		.loc 1 974 0
 2085 0002 041C     		mov	r4, r0
 2086              		.loc 1 978 0
 2087 0004 FFF7FEFF 		bl	CyEnterCriticalSection
 2088              	.LVL108:
 2089              		.loc 1 983 0
 2090 0008 174B     		ldr	r3, .L227
 2091 000a 1A68     		ldr	r2, [r3]
 2092 000c 002A     		cmp	r2, #0
 2093 000e 04DB     		blt	.L222
 2094              	.LBB140:
 2095              	.LBB141:
 2096              		.loc 1 86 0
 2097 0010 1968     		ldr	r1, [r3]
 2098 0012 8026     		mov	r6, #128
 2099 0014 3506     		lsl	r5, r6, #24
 2100 0016 0D43     		orr	r5, r5, r1
 2101 0018 1D60     		str	r5, [r3]
 2102              	.L222:
 2103              	.LBE141:
 2104              	.LBE140:
 2105              		.loc 1 988 0
 2106 001a 144A     		ldr	r2, .L227+4
 2107 001c C025     		mov	r5, #192
 2108 001e 1168     		ldr	r1, [r2]
 2109 0020 2B02     		lsl	r3, r5, #8
 2110 0022 1940     		and	r1, r1, r3
 2111 0024 9942     		cmp	r1, r3
 2112 0026 08D0     		beq	.L226
 2113              		.loc 1 1005 0
 2114 0028 114B     		ldr	r3, .L227+8
 2115 002a 1249     		ldr	r1, .L227+12
 2116 002c 1A68     		ldr	r2, [r3]
 2117 002e 0C40     		and	r4, r4, r1
 2118              	.LVL109:
 2119 0030 1443     		orr	r4, r4, r2
 2120 0032 1C60     		str	r4, [r3]
 2121              	.L224:
 2122              		.loc 1 1015 0
 2123 0034 FFF7FEFF 		bl	CyExitCriticalSection
 2124              		.loc 1 1016 0
 2125              		@ sp needed for prologue
 2126 0038 70BD     		pop	{r4, r5, r6, pc}
 2127              	.LVL110:
 2128              	.L226:
 2129              		.loc 1 993 0
 2130 003a 1668     		ldr	r6, [r2]
 2131 003c 0E4B     		ldr	r3, .L227+16
 2132 003e 8025     		mov	r5, #128
 2133 0040 1E40     		and	r6, r6, r3
 2134 0042 ED01     		lsl	r5, r5, #7
 2135 0044 3543     		orr	r5, r5, r6
 2136 0046 1560     		str	r5, [r2]
 2137              		.loc 1 996 0
 2138 0048 1568     		ldr	r5, [r2]
 2139 004a 8026     		mov	r6, #128
ARM GAS  C:\Users\asha\AppData\Local\Temp\ccSrRbz4.s 			page 67


 2140 004c 1D40     		and	r5, r5, r3
 2141 004e 3302     		lsl	r3, r6, #8
 2142 0050 2B43     		orr	r3, r3, r5
 2143 0052 1360     		str	r3, [r2]
 2144              		.loc 1 1005 0
 2145 0054 064B     		ldr	r3, .L227+8
 2146 0056 074E     		ldr	r6, .L227+12
 2147 0058 1D68     		ldr	r5, [r3]
 2148 005a 3440     		and	r4, r4, r6
 2149              	.LVL111:
 2150 005c 2C43     		orr	r4, r4, r5
 2151 005e 1C60     		str	r4, [r3]
 2152              		.loc 1 1011 0
 2153 0060 1468     		ldr	r4, [r2]
 2154 0062 2143     		orr	r1, r1, r4
 2155 0064 1160     		str	r1, [r2]
 2156 0066 E5E7     		b	.L224
 2157              	.L228:
 2158              		.align	2
 2159              	.L227:
 2160 0068 04010B40 		.word	1074462980
 2161 006c 00010B40 		.word	1074462976
 2162 0070 10020B40 		.word	1074463248
 2163 0074 04040400 		.word	263172
 2164 0078 FF3FFFFF 		.word	-49153
 2165              		.cfi_endproc
 2166              	.LFE24:
 2167              		.size	CySysWdtClearInterrupt, .-CySysWdtClearInterrupt
 2168              		.section	.text.CySysWdtUnlock,"ax",%progbits
 2169              		.align	2
 2170              		.global	CySysWdtUnlock
 2171              		.code	16
 2172              		.thumb_func
 2173              		.type	CySysWdtUnlock, %function
 2174              	CySysWdtUnlock:
 2175              	.LFB8:
 2176              		.loc 1 394 0
 2177              		.cfi_startproc
 2178 0000 10B5     		push	{r4, lr}
 2179              	.LCFI24:
 2180              		.cfi_def_cfa_offset 8
 2181              		.cfi_offset 4, -8
 2182              		.cfi_offset 14, -4
 2183              		.loc 1 396 0
 2184 0002 FFF7FEFF 		bl	CyEnterCriticalSection
 2185              		.loc 1 401 0
 2186 0006 0D4B     		ldr	r3, .L232
 2187 0008 1A68     		ldr	r2, [r3]
 2188 000a 002A     		cmp	r2, #0
 2189 000c 04DB     		blt	.L230
 2190              	.LBB142:
 2191              	.LBB143:
 2192              		.loc 1 86 0
 2193 000e 1968     		ldr	r1, [r3]
 2194 0010 8022     		mov	r2, #128
 2195 0012 1406     		lsl	r4, r2, #24
 2196 0014 0C43     		orr	r4, r4, r1
ARM GAS  C:\Users\asha\AppData\Local\Temp\ccSrRbz4.s 			page 68


 2197 0016 1C60     		str	r4, [r3]
 2198              	.L230:
 2199              	.LBE143:
 2200              	.LBE142:
 2201              		.loc 1 407 0
 2202 0018 094B     		ldr	r3, .L232+4
 2203 001a 0A4A     		ldr	r2, .L232+8
 2204 001c 1C68     		ldr	r4, [r3]
 2205 001e 8021     		mov	r1, #128
 2206 0020 1440     		and	r4, r4, r2
 2207 0022 C901     		lsl	r1, r1, #7
 2208 0024 2143     		orr	r1, r1, r4
 2209 0026 1960     		str	r1, [r3]
 2210              		.loc 1 410 0
 2211 0028 1968     		ldr	r1, [r3]
 2212              		.loc 1 414 0
 2213              		@ sp needed for prologue
 2214              		.loc 1 410 0
 2215 002a 1140     		and	r1, r1, r2
 2216 002c 8022     		mov	r2, #128
 2217 002e 1402     		lsl	r4, r2, #8
 2218 0030 0C43     		orr	r4, r4, r1
 2219 0032 1C60     		str	r4, [r3]
 2220              		.loc 1 413 0
 2221 0034 FFF7FEFF 		bl	CyExitCriticalSection
 2222              		.loc 1 414 0
 2223 0038 10BD     		pop	{r4, pc}
 2224              	.L233:
 2225 003a C046     		.align	2
 2226              	.L232:
 2227 003c 04010B40 		.word	1074462980
 2228 0040 00010B40 		.word	1074462976
 2229 0044 FF3FFFFF 		.word	-49153
 2230              		.cfi_endproc
 2231              	.LFE8:
 2232              		.size	CySysWdtUnlock, .-CySysWdtUnlock
 2233              		.section	.text.CySysWdtLock,"ax",%progbits
 2234              		.align	2
 2235              		.global	CySysWdtLock
 2236              		.code	16
 2237              		.thumb_func
 2238              		.type	CySysWdtLock, %function
 2239              	CySysWdtLock:
 2240              	.LFB7:
 2241              		.loc 1 356 0
 2242              		.cfi_startproc
 2243 0000 08B5     		push	{r3, lr}
 2244              	.LCFI25:
 2245              		.cfi_def_cfa_offset 8
 2246              		.cfi_offset 3, -8
 2247              		.cfi_offset 14, -4
 2248              		.loc 1 358 0
 2249 0002 FFF7FEFF 		bl	CyEnterCriticalSection
 2250              		.loc 1 363 0
 2251 0006 094B     		ldr	r3, .L237
 2252 0008 1A68     		ldr	r2, [r3]
 2253 000a 002A     		cmp	r2, #0
ARM GAS  C:\Users\asha\AppData\Local\Temp\ccSrRbz4.s 			page 69


 2254 000c 04DB     		blt	.L235
 2255              	.LBB144:
 2256              	.LBB145:
 2257              		.loc 1 86 0
 2258 000e 1968     		ldr	r1, [r3]
 2259 0010 8022     		mov	r2, #128
 2260 0012 1206     		lsl	r2, r2, #24
 2261 0014 0A43     		orr	r2, r2, r1
 2262 0016 1A60     		str	r2, [r3]
 2263              	.L235:
 2264              	.LBE145:
 2265              	.LBE144:
 2266              		.loc 1 369 0
 2267 0018 054A     		ldr	r2, .L237+4
 2268 001a C023     		mov	r3, #192
 2269 001c 1168     		ldr	r1, [r2]
 2270 001e 1B02     		lsl	r3, r3, #8
 2271 0020 0B43     		orr	r3, r3, r1
 2272 0022 1360     		str	r3, [r2]
 2273              		.loc 1 372 0
 2274 0024 FFF7FEFF 		bl	CyExitCriticalSection
 2275              		.loc 1 373 0
 2276              		@ sp needed for prologue
 2277 0028 08BD     		pop	{r3, pc}
 2278              	.L238:
 2279 002a C046     		.align	2
 2280              	.L237:
 2281 002c 04010B40 		.word	1074462980
 2282 0030 00010B40 		.word	1074462976
 2283              		.cfi_endproc
 2284              	.LFE7:
 2285              		.size	CySysWdtLock, .-CySysWdtLock
 2286              		.section	.text.CySysClkWriteImoFreq,"ax",%progbits
 2287              		.align	2
 2288              		.global	CySysClkWriteImoFreq
 2289              		.code	16
 2290              		.thumb_func
 2291              		.type	CySysClkWriteImoFreq, %function
 2292              	CySysClkWriteImoFreq:
 2293              	.LFB6:
 2294              		.loc 1 215 0
 2295              		.cfi_startproc
 2296 0000 F0B5     		push	{r4, r5, r6, r7, lr}
 2297              	.LCFI26:
 2298              		.cfi_def_cfa_offset 20
 2299              		.cfi_offset 4, -20
 2300              		.cfi_offset 5, -16
 2301              		.cfi_offset 6, -12
 2302              		.cfi_offset 7, -8
 2303              		.cfi_offset 14, -4
 2304 0002 5746     		mov	r7, sl
 2305 0004 4E46     		mov	r6, r9
 2306 0006 4546     		mov	r5, r8
 2307 0008 E0B4     		push	{r5, r6, r7}
 2308              	.LCFI27:
 2309              		.cfi_def_cfa_offset 32
 2310              		.cfi_offset 8, -32
ARM GAS  C:\Users\asha\AppData\Local\Temp\ccSrRbz4.s 			page 70


 2311              		.cfi_offset 9, -28
 2312              		.cfi_offset 10, -24
 2313              	.LVL112:
 2314              		.loc 1 238 0
 2315 000a C61E     		sub	r6, r0, #3
 2316              		.loc 1 215 0
 2317 000c 051C     		mov	r5, r0
 2318              		.loc 1 238 0
 2319 000e 2D2E     		cmp	r6, #45
 2320 0010 05D9     		bls	.L260
 2321              	.LVL113:
 2322              	.LBB146:
 2323              	.LBB147:
 2324              		.loc 1 1512 0
 2325              	@ 1512 ".\Generated_Source\PSoC4\CyLib.c" 1
 2326 0012 01BE     		    bkpt    1
 2327              	@ 0 "" 2
 2328              	.LVL114:
 2329              		.code	16
 2330              	.L254:
 2331              	.LBE147:
 2332              	.LBE146:
 2333              		.loc 1 332 0
 2334              		@ sp needed for prologue
 2335              	.LVL115:
 2336              	.LVL116:
 2337              	.LVL117:
 2338 0014 1CBC     		pop	{r2, r3, r4}
 2339 0016 9046     		mov	r8, r2
 2340 0018 9946     		mov	r9, r3
 2341 001a A246     		mov	sl, r4
 2342 001c F0BD     		pop	{r4, r5, r6, r7, pc}
 2343              	.LVL118:
 2344              	.L260:
 2345              		.loc 1 240 0
 2346 001e FFF7FEFF 		bl	CyEnterCriticalSection
 2347 0022 0023     		mov	r3, #0
 2348              	.LVL119:
 2349 0024 8146     		mov	r9, r0
 2350 0026 434C     		ldr	r4, .L263
 2351              		.loc 1 245 0
 2352 0028 4349     		ldr	r1, .L263+4
 2353 002a 3F22     		mov	r2, #63
 2354 002c 09E0     		b	.L243
 2355              	.L241:
 2356              		.loc 1 243 0
 2357 002e 0133     		add	r3, r3, #1
 2358              		.loc 1 245 0
 2359 0030 0868     		ldr	r0, [r1]
 2360 0032 E75C     		ldrb	r7, [r4, r3]
 2361 0034 1040     		and	r0, r0, r2
 2362 0036 B846     		mov	r8, r7
 2363 0038 8045     		cmp	r8, r0
 2364 003a 08D0     		beq	.L258
 2365              		.loc 1 243 0
 2366 003c 0133     		add	r3, r3, #1
 2367 003e 2E2B     		cmp	r3, #46
ARM GAS  C:\Users\asha\AppData\Local\Temp\ccSrRbz4.s 			page 71


 2368 0040 58D0     		beq	.L261
 2369              	.L243:
 2370              		.loc 1 245 0
 2371 0042 0868     		ldr	r0, [r1]
 2372 0044 E75C     		ldrb	r7, [r4, r3]
 2373 0046 1040     		and	r0, r0, r2
 2374 0048 BC46     		mov	ip, r7
 2375 004a 8445     		cmp	ip, r0
 2376 004c EFD1     		bne	.L241
 2377              	.L258:
 2378              		.loc 1 247 0
 2379 004e 0333     		add	r3, r3, #3
 2380              	.LVL120:
 2381 0050 2A21     		mov	r1, #42
 2382 0052 9942     		cmp	r1, r3
 2383 0054 9241     		sbc	r2, r2, r2
 2384 0056 5242     		neg	r2, r2
 2385              	.L242:
 2386              		.loc 1 252 0
 2387 0058 3848     		ldr	r0, .L263+8
 2388 005a 0178     		ldrb	r1, [r0]
 2389 005c 8D42     		cmp	r5, r1
 2390 005e 3ED8     		bhi	.L244
 2391              		.loc 1 254 0
 2392 0060 3748     		ldr	r0, .L263+12
 2393              		.loc 1 255 0
 2394 0062 384F     		ldr	r7, .L263+16
 2395              		.loc 1 254 0
 2396 0064 0178     		ldrb	r1, [r0]
 2397 0066 8846     		mov	r8, r1
 2398              	.LVL121:
 2399              		.loc 1 255 0
 2400 0068 3978     		ldrb	r1, [r7]
 2401 006a 8A46     		mov	sl, r1
 2402              	.LVL122:
 2403              	.L245:
 2404              		.loc 1 284 0
 2405 006c 002A     		cmp	r2, #0
 2406 006e 1FD0     		beq	.L249
 2407 0070 2A2D     		cmp	r5, #42
 2408 0072 1DD9     		bls	.L249
 2409              		.loc 1 287 0
 2410 0074 304B     		ldr	r3, .L263+4
 2411              	.LVL123:
 2412 0076 1922     		mov	r2, #25
 2413 0078 1A60     		str	r2, [r3]
 2414              		.loc 1 290 0
 2415 007a 0520     		mov	r0, #5
 2416 007c FFF7FEFF 		bl	CyDelayCycles
 2417              	.LVL124:
 2418              	.L250:
 2419              		.loc 1 303 0
 2420 0080 314A     		ldr	r2, .L263+20
 2421 0082 3248     		ldr	r0, .L263+24
 2422 0084 AB18     		add	r3, r5, r2
 2423              	.LVL125:
 2424 0086 1978     		ldrb	r1, [r3]
ARM GAS  C:\Users\asha\AppData\Local\Temp\ccSrRbz4.s 			page 72


 2425              		.loc 1 304 0
 2426 0088 4746     		mov	r7, r8
 2427              		.loc 1 303 0
 2428 008a 0160     		str	r1, [r0]
 2429              		.loc 1 304 0
 2430 008c 0C38     		sub	r0, r0, #12
 2431 008e 0760     		str	r7, [r0]
 2432              		.loc 1 305 0
 2433 0090 5246     		mov	r2, sl
 2434 0092 0430     		add	r0, r0, #4
 2435 0094 0260     		str	r2, [r0]
 2436              		.loc 1 306 0
 2437 0096 0520     		mov	r0, #5
 2438 0098 FFF7FEFF 		bl	CyDelayUs
 2439              		.loc 1 309 0
 2440 009c A55D     		ldrb	r5, [r4, r6]
 2441              	.LVL126:
 2442 009e 264C     		ldr	r4, .L263+4
 2443              		.loc 1 310 0
 2444 00a0 0520     		mov	r0, #5
 2445              		.loc 1 309 0
 2446 00a2 2560     		str	r5, [r4]
 2447              		.loc 1 310 0
 2448 00a4 FFF7FEFF 		bl	CyDelayCycles
 2449              	.L252:
 2450              		.loc 1 325 0
 2451 00a8 4846     		mov	r0, r9
 2452 00aa FFF7FEFF 		bl	CyExitCriticalSection
 2453 00ae B1E7     		b	.L254
 2454              	.LVL127:
 2455              	.L249:
 2456              		.loc 1 300 0
 2457 00b0 AB42     		cmp	r3, r5
 2458 00b2 E5D3     		bcc	.L250
 2459              		.loc 1 315 0
 2460 00b4 A15D     		ldrb	r1, [r4, r6]
 2461 00b6 204B     		ldr	r3, .L263+4
 2462              	.LVL128:
 2463              		.loc 1 316 0
 2464 00b8 0520     		mov	r0, #5
 2465              		.loc 1 315 0
 2466 00ba 1960     		str	r1, [r3]
 2467              		.loc 1 316 0
 2468 00bc FFF7FEFF 		bl	CyDelayCycles
 2469              		.loc 1 319 0
 2470 00c0 2148     		ldr	r0, .L263+20
 2471 00c2 224E     		ldr	r6, .L263+24
 2472 00c4 2D18     		add	r5, r5, r0
 2473              	.LVL129:
 2474 00c6 2C78     		ldrb	r4, [r5]
 2475              		.loc 1 320 0
 2476 00c8 4746     		mov	r7, r8
 2477              		.loc 1 319 0
 2478 00ca 3460     		str	r4, [r6]
 2479              		.loc 1 320 0
 2480 00cc 0C3E     		sub	r6, r6, #12
 2481 00ce 3760     		str	r7, [r6]
ARM GAS  C:\Users\asha\AppData\Local\Temp\ccSrRbz4.s 			page 73


 2482              		.loc 1 321 0
 2483 00d0 5246     		mov	r2, sl
 2484 00d2 0436     		add	r6, r6, #4
 2485 00d4 3260     		str	r2, [r6]
 2486              		.loc 1 322 0
 2487 00d6 0520     		mov	r0, #5
 2488 00d8 FFF7FEFF 		bl	CyDelayUs
 2489 00dc E4E7     		b	.L252
 2490              	.LVL130:
 2491              	.L244:
 2492              		.loc 1 257 0
 2493 00de 1C4F     		ldr	r7, .L263+28
 2494 00e0 3978     		ldrb	r1, [r7]
 2495 00e2 8D42     		cmp	r5, r1
 2496 00e4 09D8     		bhi	.L246
 2497              		.loc 1 259 0
 2498 00e6 1B4F     		ldr	r7, .L263+32
 2499              		.loc 1 260 0
 2500 00e8 1B48     		ldr	r0, .L263+36
 2501              		.loc 1 259 0
 2502 00ea 3978     		ldrb	r1, [r7]
 2503 00ec 8846     		mov	r8, r1
 2504              	.LVL131:
 2505              		.loc 1 260 0
 2506 00ee 0178     		ldrb	r1, [r0]
 2507 00f0 8A46     		mov	sl, r1
 2508              	.LVL132:
 2509 00f2 BBE7     		b	.L245
 2510              	.LVL133:
 2511              	.L261:
 2512              		.loc 1 243 0
 2513 00f4 0122     		mov	r2, #1
 2514 00f6 3023     		mov	r3, #48
 2515              	.LVL134:
 2516 00f8 AEE7     		b	.L242
 2517              	.L246:
 2518              		.loc 1 262 0
 2519 00fa 1848     		ldr	r0, .L263+40
 2520 00fc 0178     		ldrb	r1, [r0]
 2521 00fe 8D42     		cmp	r5, r1
 2522 0100 0AD9     		bls	.L262
 2523              		.loc 1 267 0
 2524 0102 174F     		ldr	r7, .L263+44
 2525 0104 3978     		ldrb	r1, [r7]
 2526 0106 8D42     		cmp	r5, r1
 2527 0108 0DD8     		bhi	.L248
 2528              		.loc 1 269 0
 2529 010a 164F     		ldr	r7, .L263+48
 2530              		.loc 1 270 0
 2531 010c 1648     		ldr	r0, .L263+52
 2532              		.loc 1 269 0
 2533 010e 3978     		ldrb	r1, [r7]
 2534 0110 8846     		mov	r8, r1
 2535              	.LVL135:
 2536              		.loc 1 270 0
 2537 0112 0178     		ldrb	r1, [r0]
 2538 0114 8A46     		mov	sl, r1
ARM GAS  C:\Users\asha\AppData\Local\Temp\ccSrRbz4.s 			page 74


 2539              	.LVL136:
 2540 0116 A9E7     		b	.L245
 2541              	.LVL137:
 2542              	.L262:
 2543              		.loc 1 264 0
 2544 0118 1448     		ldr	r0, .L263+56
 2545              		.loc 1 265 0
 2546 011a 154F     		ldr	r7, .L263+60
 2547              		.loc 1 264 0
 2548 011c 0178     		ldrb	r1, [r0]
 2549 011e 8846     		mov	r8, r1
 2550              	.LVL138:
 2551              		.loc 1 265 0
 2552 0120 3978     		ldrb	r1, [r7]
 2553 0122 8A46     		mov	sl, r1
 2554              	.LVL139:
 2555 0124 A2E7     		b	.L245
 2556              	.LVL140:
 2557              	.L248:
 2558              		.loc 1 274 0
 2559 0126 134F     		ldr	r7, .L263+64
 2560              		.loc 1 275 0
 2561 0128 0748     		ldr	r0, .L263+20
 2562              		.loc 1 274 0
 2563 012a 3978     		ldrb	r1, [r7]
 2564 012c 8846     		mov	r8, r1
 2565              	.LVL141:
 2566              		.loc 1 275 0
 2567 012e 0178     		ldrb	r1, [r0]
 2568 0130 8A46     		mov	sl, r1
 2569              	.LVL142:
 2570 0132 9BE7     		b	.L245
 2571              	.L264:
 2572              		.align	2
 2573              	.L263:
 2574 0134 00000000 		.word	.LANCHOR1
 2575 0138 2CFF0B40 		.word	1074528044
 2576 013c C0F1FF0F 		.word	268431808
 2577 0140 C1F1FF0F 		.word	268431809
 2578 0144 C2F1FF0F 		.word	268431810
 2579 0148 CDF1FF0F 		.word	268431821
 2580 014c 28FF0B40 		.word	1074528040
 2581 0150 C3F1FF0F 		.word	268431811
 2582 0154 C4F1FF0F 		.word	268431812
 2583 0158 C5F1FF0F 		.word	268431813
 2584 015c C6F1FF0F 		.word	268431814
 2585 0160 C9F1FF0F 		.word	268431817
 2586 0164 CAF1FF0F 		.word	268431818
 2587 0168 CBF1FF0F 		.word	268431819
 2588 016c C7F1FF0F 		.word	268431815
 2589 0170 C8F1FF0F 		.word	268431816
 2590 0174 CCF1FF0F 		.word	268431820
 2591              		.cfi_endproc
 2592              	.LFE6:
 2593              		.size	CySysClkWriteImoFreq, .-CySysClkWriteImoFreq
 2594              		.global	cydelayFreqHz
 2595              		.global	cydelayFreqKhz
ARM GAS  C:\Users\asha\AppData\Local\Temp\ccSrRbz4.s 			page 75


 2596              		.global	cydelayFreqMhz
 2597              		.global	cydelay32kMs
 2598              		.section	.rodata
 2599              		.align	2
 2600              		.set	.LANCHOR1,. + 0
 2601              		.type	cyImoFreqMhz2Reg.1839, %object
 2602              		.size	cyImoFreqMhz2Reg.1839, 46
 2603              	cyImoFreqMhz2Reg.1839:
 2604 0000 03       		.byte	3
 2605 0001 04       		.byte	4
 2606 0002 05       		.byte	5
 2607 0003 06       		.byte	6
 2608 0004 07       		.byte	7
 2609 0005 08       		.byte	8
 2610 0006 09       		.byte	9
 2611 0007 0A       		.byte	10
 2612 0008 0B       		.byte	11
 2613 0009 0C       		.byte	12
 2614 000a 0E       		.byte	14
 2615 000b 0F       		.byte	15
 2616 000c 10       		.byte	16
 2617 000d 11       		.byte	17
 2618 000e 12       		.byte	18
 2619 000f 13       		.byte	19
 2620 0010 14       		.byte	20
 2621 0011 15       		.byte	21
 2622 0012 16       		.byte	22
 2623 0013 17       		.byte	23
 2624 0014 18       		.byte	24
 2625 0015 19       		.byte	25
 2626 0016 1B       		.byte	27
 2627 0017 1C       		.byte	28
 2628 0018 1D       		.byte	29
 2629 0019 1E       		.byte	30
 2630 001a 1F       		.byte	31
 2631 001b 20       		.byte	32
 2632 001c 21       		.byte	33
 2633 001d 22       		.byte	34
 2634 001e 23       		.byte	35
 2635 001f 25       		.byte	37
 2636 0020 26       		.byte	38
 2637 0021 27       		.byte	39
 2638 0022 28       		.byte	40
 2639 0023 29       		.byte	41
 2640 0024 2A       		.byte	42
 2641 0025 2B       		.byte	43
 2642 0026 2E       		.byte	46
 2643 0027 2F       		.byte	47
 2644 0028 30       		.byte	48
 2645 0029 31       		.byte	49
 2646 002a 32       		.byte	50
 2647 002b 33       		.byte	51
 2648 002c 34       		.byte	52
 2649 002d 35       		.byte	53
 2650 002e 0000     		.data
 2651              		.align	2
 2652              		.set	.LANCHOR0,. + 0
ARM GAS  C:\Users\asha\AppData\Local\Temp\ccSrRbz4.s 			page 76


 2653              		.type	cydelayFreqHz, %object
 2654              		.size	cydelayFreqHz, 4
 2655              	cydelayFreqHz:
 2656 0000 006CDC02 		.word	48000000
 2657              		.type	cydelayFreqMhz, %object
 2658              		.size	cydelayFreqMhz, 1
 2659              	cydelayFreqMhz:
 2660 0004 30       		.byte	48
 2661 0005 000000   		.space	3
 2662              		.type	cydelayFreqKhz, %object
 2663              		.size	cydelayFreqKhz, 4
 2664              	cydelayFreqKhz:
 2665 0008 80BB0000 		.word	48000
 2666              		.type	cydelay32kMs, %object
 2667              		.size	cydelay32kMs, 4
 2668              	cydelay32kMs:
 2669 000c 0000C05D 		.word	1572864000
 2670              		.text
 2671              	.Letext0: