ARM GAS  C:\Users\asha\AppData\Local\Temp\cc0mNpnr.s 			page 1


   1              		.cpu cortex-m0
   2              		.fpu softvfp
   3              		.eabi_attribute 20, 1
   4              		.eabi_attribute 21, 1
   5              		.eabi_attribute 23, 3
   6              		.eabi_attribute 24, 1
   7              		.eabi_attribute 25, 1
   8              		.eabi_attribute 26, 1
   9              		.eabi_attribute 30, 2
  10              		.eabi_attribute 18, 4
  11              		.code	16
  12              		.file	"cyPm.c"
  19 0000 33010000 		.text
  19      02005D00 
  19      00000201 
  19      FB0E0D00 
  19      01010101 
  20              	.Ltext0:
  21              		.cfi_sections	.debug_frame
  22              		.section	.text.CySysPmGetResetReason,"ax",%progbits
  23              		.align	2
  24              		.global	CySysPmGetResetReason
  25              		.code	16
  26              		.thumb_func
  27              		.type	CySysPmGetResetReason, %function
  28              	CySysPmGetResetReason:
  29              	.LFB5:
  30              		.file 1 ".\\Generated_Source\\PSoC4\\cyPm.c"
   1:.\Generated_Source\PSoC4/cyPm.c **** /*******************************************************************************
   2:.\Generated_Source\PSoC4/cyPm.c **** * File Name: cyPm.c
   3:.\Generated_Source\PSoC4/cyPm.c **** * Version 3.40
   4:.\Generated_Source\PSoC4/cyPm.c **** *
   5:.\Generated_Source\PSoC4/cyPm.c **** *  Description:
   6:.\Generated_Source\PSoC4/cyPm.c **** *   Provides an API for the power management.
   7:.\Generated_Source\PSoC4/cyPm.c **** *
   8:.\Generated_Source\PSoC4/cyPm.c **** *  Note:
   9:.\Generated_Source\PSoC4/cyPm.c **** *   Documentation of the API's in this file is located in the
  10:.\Generated_Source\PSoC4/cyPm.c **** *   System Reference Guide provided with PSoC Creator.
  11:.\Generated_Source\PSoC4/cyPm.c **** *
  12:.\Generated_Source\PSoC4/cyPm.c **** ********************************************************************************
  13:.\Generated_Source\PSoC4/cyPm.c **** * Copyright 2011-2013, Cypress Semiconductor Corporation.  All rights reserved.
  14:.\Generated_Source\PSoC4/cyPm.c **** * You may use this file only in accordance with the license, terms, conditions,
  15:.\Generated_Source\PSoC4/cyPm.c **** * disclaimers, and limitations in the end user license agreement accompanying
  16:.\Generated_Source\PSoC4/cyPm.c **** * the software package with which this file was provided.
  17:.\Generated_Source\PSoC4/cyPm.c **** *******************************************************************************/
  18:.\Generated_Source\PSoC4/cyPm.c **** 
  19:.\Generated_Source\PSoC4/cyPm.c **** #include "cyPm.h"
  20:.\Generated_Source\PSoC4/cyPm.c **** #include "CyLib.h"
  21:.\Generated_Source\PSoC4/cyPm.c **** 
  22:.\Generated_Source\PSoC4/cyPm.c **** 
  23:.\Generated_Source\PSoC4/cyPm.c **** /*******************************************************************************
ARM GAS  C:\Users\asha\AppData\Local\Temp\cc0mNpnr.s 			page 2


  24:.\Generated_Source\PSoC4/cyPm.c **** * Function Name: CySysPmSleep
  25:.\Generated_Source\PSoC4/cyPm.c **** ********************************************************************************
  26:.\Generated_Source\PSoC4/cyPm.c **** *
  27:.\Generated_Source\PSoC4/cyPm.c **** * Summary:
  28:.\Generated_Source\PSoC4/cyPm.c **** *  Puts the part into the Sleep state. This is a CPU-centric power mode.
  29:.\Generated_Source\PSoC4/cyPm.c **** *  It means that the CPU has indicated that it is in sleep mode and
  30:.\Generated_Source\PSoC4/cyPm.c **** *  its main clock can be removed. It is identical to Active from a peripheral
  31:.\Generated_Source\PSoC4/cyPm.c **** *  point of view. Any enabled interrupts can cause wakeup from a Sleep mode.
  32:.\Generated_Source\PSoC4/cyPm.c **** *
  33:.\Generated_Source\PSoC4/cyPm.c **** * Parameters:
  34:.\Generated_Source\PSoC4/cyPm.c **** *  None
  35:.\Generated_Source\PSoC4/cyPm.c **** *
  36:.\Generated_Source\PSoC4/cyPm.c **** * Return:
  37:.\Generated_Source\PSoC4/cyPm.c **** *  None
  38:.\Generated_Source\PSoC4/cyPm.c **** *
  39:.\Generated_Source\PSoC4/cyPm.c **** *******************************************************************************/
  40:.\Generated_Source\PSoC4/cyPm.c **** void CySysPmSleep(void)
  41:.\Generated_Source\PSoC4/cyPm.c **** {
  42:.\Generated_Source\PSoC4/cyPm.c ****     uint8 interruptState;
  43:.\Generated_Source\PSoC4/cyPm.c **** 
  44:.\Generated_Source\PSoC4/cyPm.c ****     interruptState = CyEnterCriticalSection();
  45:.\Generated_Source\PSoC4/cyPm.c **** 
  46:.\Generated_Source\PSoC4/cyPm.c ****     /* CM0 enters Sleep mode upon execution of WFI */
  47:.\Generated_Source\PSoC4/cyPm.c ****     CY_PM_CM0_SCR_REG &= (uint32) (~CY_PM_CM0_SCR_SLEEPDEEP);
  48:.\Generated_Source\PSoC4/cyPm.c **** 
  49:.\Generated_Source\PSoC4/cyPm.c ****     /* Sleep and wait for interrupt */
  50:.\Generated_Source\PSoC4/cyPm.c ****     CY_PM_WFI;
  51:.\Generated_Source\PSoC4/cyPm.c **** 
  52:.\Generated_Source\PSoC4/cyPm.c ****     CyExitCriticalSection(interruptState);
  53:.\Generated_Source\PSoC4/cyPm.c **** }
  54:.\Generated_Source\PSoC4/cyPm.c **** 
  55:.\Generated_Source\PSoC4/cyPm.c **** 
  56:.\Generated_Source\PSoC4/cyPm.c **** /*******************************************************************************
  57:.\Generated_Source\PSoC4/cyPm.c **** * Function Name: CySysPmDeepSleep
  58:.\Generated_Source\PSoC4/cyPm.c **** ********************************************************************************
  59:.\Generated_Source\PSoC4/cyPm.c **** *
  60:.\Generated_Source\PSoC4/cyPm.c **** * Summary:
  61:.\Generated_Source\PSoC4/cyPm.c **** *  Puts the part into the Deep Sleep state. If firmware attempts to enter this
  62:.\Generated_Source\PSoC4/cyPm.c **** *  mode before the system is ready (that is, when PWR_CONTROL.LPM_READY = 0),
  63:.\Generated_Source\PSoC4/cyPm.c **** *  then the device will go into Sleep mode instead and automatically enter
  64:.\Generated_Source\PSoC4/cyPm.c **** *  the originally intended mode when the holdoff expires.
  65:.\Generated_Source\PSoC4/cyPm.c **** *
  66:.\Generated_Source\PSoC4/cyPm.c **** *  The wakeup occurs when an interrupt is received from a DeepSleep or
  67:.\Generated_Source\PSoC4/cyPm.c **** *  Hibernate peripheral. For more details, see corresponding
  68:.\Generated_Source\PSoC4/cyPm.c **** *  peripheral's datasheet.
  69:.\Generated_Source\PSoC4/cyPm.c **** *
  70:.\Generated_Source\PSoC4/cyPm.c **** * Parameters:
  71:.\Generated_Source\PSoC4/cyPm.c **** *  None
  72:.\Generated_Source\PSoC4/cyPm.c **** *
  73:.\Generated_Source\PSoC4/cyPm.c **** * Return:
  74:.\Generated_Source\PSoC4/cyPm.c **** *  None
  75:.\Generated_Source\PSoC4/cyPm.c **** *
  76:.\Generated_Source\PSoC4/cyPm.c **** *******************************************************************************/
  77:.\Generated_Source\PSoC4/cyPm.c **** void CySysPmDeepSleep(void)
  78:.\Generated_Source\PSoC4/cyPm.c **** {
  79:.\Generated_Source\PSoC4/cyPm.c ****     uint8 interruptState;
  80:.\Generated_Source\PSoC4/cyPm.c **** 
ARM GAS  C:\Users\asha\AppData\Local\Temp\cc0mNpnr.s 			page 3


  81:.\Generated_Source\PSoC4/cyPm.c ****     interruptState = CyEnterCriticalSection();
  82:.\Generated_Source\PSoC4/cyPm.c **** 
  83:.\Generated_Source\PSoC4/cyPm.c ****     /* Device enters DeepSleep mode when CPU asserts SLEEPDEEP signal */
  84:.\Generated_Source\PSoC4/cyPm.c ****     CY_PM_PWR_CONTROL_REG &= (uint32) (~CY_PM_PWR_CONTROL_HIBERNATE);
  85:.\Generated_Source\PSoC4/cyPm.c **** 
  86:.\Generated_Source\PSoC4/cyPm.c ****     /* Adjust delay to wait for references to settle on wakeup from deepsleep */
  87:.\Generated_Source\PSoC4/cyPm.c ****     CY_PM_PWR_KEY_DELAY_REG = CY_SFLASH_DPSLP_KEY_DELAY_REG;
  88:.\Generated_Source\PSoC4/cyPm.c **** 
  89:.\Generated_Source\PSoC4/cyPm.c ****     /* CM0 enters DeepSleep/Hibernate mode upon execution of WFI */
  90:.\Generated_Source\PSoC4/cyPm.c ****     CY_PM_CM0_SCR_REG |= CY_PM_CM0_SCR_SLEEPDEEP;
  91:.\Generated_Source\PSoC4/cyPm.c **** 
  92:.\Generated_Source\PSoC4/cyPm.c ****     /* Sleep and wait for interrupt */
  93:.\Generated_Source\PSoC4/cyPm.c ****     CY_PM_WFI;
  94:.\Generated_Source\PSoC4/cyPm.c **** 
  95:.\Generated_Source\PSoC4/cyPm.c ****     CyExitCriticalSection(interruptState);
  96:.\Generated_Source\PSoC4/cyPm.c **** }
  97:.\Generated_Source\PSoC4/cyPm.c **** 
  98:.\Generated_Source\PSoC4/cyPm.c **** 
  99:.\Generated_Source\PSoC4/cyPm.c **** /*******************************************************************************
 100:.\Generated_Source\PSoC4/cyPm.c **** * Function Name: CySysPmHibernate
 101:.\Generated_Source\PSoC4/cyPm.c **** ********************************************************************************
 102:.\Generated_Source\PSoC4/cyPm.c **** *
 103:.\Generated_Source\PSoC4/cyPm.c **** * Summary:
 104:.\Generated_Source\PSoC4/cyPm.c **** *  Puts the part into the Hibernate state. Only SRAM and UDBs are retained;
 105:.\Generated_Source\PSoC4/cyPm.c **** *  most internal supplies are off. Wakeup is possible from a pin or a hibernate
 106:.\Generated_Source\PSoC4/cyPm.c **** *  comparator only.
 107:.\Generated_Source\PSoC4/cyPm.c **** *
 108:.\Generated_Source\PSoC4/cyPm.c **** *  It is expected that the firmware has already frozen the IO-Cells using
 109:.\Generated_Source\PSoC4/cyPm.c **** *  CySysPmFreezeIo() function before the call to this function. If this is
 110:.\Generated_Source\PSoC4/cyPm.c **** *  omitted the IO-cells will be frozen in the same way as they are
 111:.\Generated_Source\PSoC4/cyPm.c **** *  in the Active to Deep Sleep transition, but will lose their state on wake up
 112:.\Generated_Source\PSoC4/cyPm.c **** *  (because of the reset occurring at that time).
 113:.\Generated_Source\PSoC4/cyPm.c **** *
 114:.\Generated_Source\PSoC4/cyPm.c **** *  Because all CPU state is lost, the CPU will start up at the reset vector.
 115:.\Generated_Source\PSoC4/cyPm.c **** *  To save firmware state through Hibernate low power mode, corresponding
 116:.\Generated_Source\PSoC4/cyPm.c **** *  variable should be defined with CY_NOINIT attribute. It prevents data
 117:.\Generated_Source\PSoC4/cyPm.c **** *  from being initialized to zero on startup. The interrupt cause of
 118:.\Generated_Source\PSoC4/cyPm.c **** *  the hibernate peripheral is retained, such that it can be either read by
 119:.\Generated_Source\PSoC4/cyPm.c **** *  the firmware or cause an interrupt after the firmware has booted and
 120:.\Generated_Source\PSoC4/cyPm.c **** *  enabled the corresponding interrupt. To distinguish the wakeup from
 121:.\Generated_Source\PSoC4/cyPm.c **** *  the Hibernate mode and the general Reset event, the CySysPmGetResetReason()
 122:.\Generated_Source\PSoC4/cyPm.c **** *  function could be used.
 123:.\Generated_Source\PSoC4/cyPm.c **** *
 124:.\Generated_Source\PSoC4/cyPm.c **** * Parameters:
 125:.\Generated_Source\PSoC4/cyPm.c **** *  None
 126:.\Generated_Source\PSoC4/cyPm.c **** *
 127:.\Generated_Source\PSoC4/cyPm.c **** * Return:
 128:.\Generated_Source\PSoC4/cyPm.c **** *  None
 129:.\Generated_Source\PSoC4/cyPm.c **** *
 130:.\Generated_Source\PSoC4/cyPm.c **** *******************************************************************************/
 131:.\Generated_Source\PSoC4/cyPm.c **** void CySysPmHibernate(void)
 132:.\Generated_Source\PSoC4/cyPm.c **** {
 133:.\Generated_Source\PSoC4/cyPm.c ****     (void)CyEnterCriticalSection();
 134:.\Generated_Source\PSoC4/cyPm.c **** 
 135:.\Generated_Source\PSoC4/cyPm.c ****     /* Device enters Hibernate mode when CPU asserts SLEEPDEEP signal */
 136:.\Generated_Source\PSoC4/cyPm.c ****     CY_PM_PWR_CONTROL_REG |= CY_PM_PWR_CONTROL_HIBERNATE;
 137:.\Generated_Source\PSoC4/cyPm.c **** 
ARM GAS  C:\Users\asha\AppData\Local\Temp\cc0mNpnr.s 			page 4


 138:.\Generated_Source\PSoC4/cyPm.c ****     /* Adjust delay to wait for references to settle on wakeup from hibernate */
 139:.\Generated_Source\PSoC4/cyPm.c ****     CY_PM_PWR_KEY_DELAY_REG = CY_SFLASH_HIB_KEY_DELAY_REG;
 140:.\Generated_Source\PSoC4/cyPm.c **** 
 141:.\Generated_Source\PSoC4/cyPm.c ****     /* CM0 enters DeepSleep/Hibernate mode upon execution of WFI */
 142:.\Generated_Source\PSoC4/cyPm.c ****     CY_PM_CM0_SCR_REG |= CY_PM_CM0_SCR_SLEEPDEEP;
 143:.\Generated_Source\PSoC4/cyPm.c **** 
 144:.\Generated_Source\PSoC4/cyPm.c ****     /* Save token that will retain through a STOP/WAKEUP sequence
 145:.\Generated_Source\PSoC4/cyPm.c ****      * thus could be used by CySysPmGetResetReason() to differentiate
 146:.\Generated_Source\PSoC4/cyPm.c ****      * WAKEUP from a general RESET event.
 147:.\Generated_Source\PSoC4/cyPm.c ****      */
 148:.\Generated_Source\PSoC4/cyPm.c ****     CY_PM_PWR_STOP_REG = (CY_PM_PWR_STOP_REG & (uint32)(~CY_PM_PWR_STOP_TOKEN_MASK)) | CY_PM_PWR_ST
 149:.\Generated_Source\PSoC4/cyPm.c **** 
 150:.\Generated_Source\PSoC4/cyPm.c ****     /* Sleep and wait for interrupt */
 151:.\Generated_Source\PSoC4/cyPm.c ****     CY_PM_WFI;
 152:.\Generated_Source\PSoC4/cyPm.c **** 
 153:.\Generated_Source\PSoC4/cyPm.c ****     /* Wakeup from Hibernate is performed using RESET state,
 154:.\Generated_Source\PSoC4/cyPm.c ****      * causing a normal Boot procedure to occur. No need to exit
 155:.\Generated_Source\PSoC4/cyPm.c ****      * from the critical section.
 156:.\Generated_Source\PSoC4/cyPm.c ****      */
 157:.\Generated_Source\PSoC4/cyPm.c **** }
 158:.\Generated_Source\PSoC4/cyPm.c **** 
 159:.\Generated_Source\PSoC4/cyPm.c **** 
 160:.\Generated_Source\PSoC4/cyPm.c **** /*******************************************************************************
 161:.\Generated_Source\PSoC4/cyPm.c **** * Function Name: CySysPmStop
 162:.\Generated_Source\PSoC4/cyPm.c **** ********************************************************************************
 163:.\Generated_Source\PSoC4/cyPm.c **** *
 164:.\Generated_Source\PSoC4/cyPm.c **** * Summary:
 165:.\Generated_Source\PSoC4/cyPm.c **** *  Puts the part into the Stop state. All internal supplies are off;
 166:.\Generated_Source\PSoC4/cyPm.c **** *  no state is retained.
 167:.\Generated_Source\PSoC4/cyPm.c **** *
 168:.\Generated_Source\PSoC4/cyPm.c **** *  Wakeup from Stop is performed by toggling the wakeup pin (P0.7), causing
 169:.\Generated_Source\PSoC4/cyPm.c **** *  a normal Boot procedure to occur. To configure the wakeup pin,
 170:.\Generated_Source\PSoC4/cyPm.c **** *  the Digital Input Pin component should be placed on the schematic,
 171:.\Generated_Source\PSoC4/cyPm.c **** *  assigned to the P0.7, and resistively pulled up or down to the inverse state
 172:.\Generated_Source\PSoC4/cyPm.c **** *  of the wakeup polarity. To distinguish the wakeup from the Stop mode and
 173:.\Generated_Source\PSoC4/cyPm.c **** *  the general Reset event, CySysPmGetResetReason() function could be used.
 174:.\Generated_Source\PSoC4/cyPm.c **** *  The wakeup pin is active low by default. The wakeup pin polarity
 175:.\Generated_Source\PSoC4/cyPm.c **** *  could be changed with the CySysPmSetWakeupPolarity() function.
 176:.\Generated_Source\PSoC4/cyPm.c **** *
 177:.\Generated_Source\PSoC4/cyPm.c **** *  This function freezes IO cells implicitly. It is not possible to enter
 178:.\Generated_Source\PSoC4/cyPm.c **** *  STOP mode before freezing the IO cells. The IO cells remain frozen after
 179:.\Generated_Source\PSoC4/cyPm.c **** *  awake from the Stop mode until the firmware unfreezes them after booting
 180:.\Generated_Source\PSoC4/cyPm.c **** *  explicitly with CySysPmUnfreezeIo() function call.
 181:.\Generated_Source\PSoC4/cyPm.c **** *
 182:.\Generated_Source\PSoC4/cyPm.c **** * Parameters:
 183:.\Generated_Source\PSoC4/cyPm.c **** *  None
 184:.\Generated_Source\PSoC4/cyPm.c **** *
 185:.\Generated_Source\PSoC4/cyPm.c **** * Return:
 186:.\Generated_Source\PSoC4/cyPm.c **** *  None
 187:.\Generated_Source\PSoC4/cyPm.c **** *
 188:.\Generated_Source\PSoC4/cyPm.c **** *******************************************************************************/
 189:.\Generated_Source\PSoC4/cyPm.c **** void CySysPmStop(void)
 190:.\Generated_Source\PSoC4/cyPm.c **** {
 191:.\Generated_Source\PSoC4/cyPm.c ****     (void)CyEnterCriticalSection();
 192:.\Generated_Source\PSoC4/cyPm.c **** 
 193:.\Generated_Source\PSoC4/cyPm.c ****     /* Freeze IO-Cells to save IO-Cell state */
 194:.\Generated_Source\PSoC4/cyPm.c ****     CySysPmFreezeIo();
ARM GAS  C:\Users\asha\AppData\Local\Temp\cc0mNpnr.s 			page 5


 195:.\Generated_Source\PSoC4/cyPm.c **** 
 196:.\Generated_Source\PSoC4/cyPm.c ****     /* Initiates transition to the Stop state */
 197:.\Generated_Source\PSoC4/cyPm.c ****     CY_PM_PWR_STOP_REG = (CY_PM_PWR_STOP_REG & (uint32)(~CY_PM_PWR_STOP_TOKEN_MASK)) |
 198:.\Generated_Source\PSoC4/cyPm.c ****                         CY_PM_PWR_STOP_TOKEN_STOP | CY_PM_PWR_STOP_STOP;
 199:.\Generated_Source\PSoC4/cyPm.c **** 
 200:.\Generated_Source\PSoC4/cyPm.c ****     /* Depending on the clock frequency and internal timing delays,
 201:.\Generated_Source\PSoC4/cyPm.c ****      * the final AHB transaction may or may not complete. To guard against
 202:.\Generated_Source\PSoC4/cyPm.c ****      * accidentally executing an unintended instruction, it is recommended
 203:.\Generated_Source\PSoC4/cyPm.c ****      * to add 2 NOP cycles after the final write to the STOP register.
 204:.\Generated_Source\PSoC4/cyPm.c ****      */
 205:.\Generated_Source\PSoC4/cyPm.c ****     CY_NOP;
 206:.\Generated_Source\PSoC4/cyPm.c ****     CY_NOP;
 207:.\Generated_Source\PSoC4/cyPm.c **** 
 208:.\Generated_Source\PSoC4/cyPm.c ****     CY_PM_WFI;
 209:.\Generated_Source\PSoC4/cyPm.c **** 
 210:.\Generated_Source\PSoC4/cyPm.c ****     /* Wakeup from Stop is performed by toggling of Wakeup pin,
 211:.\Generated_Source\PSoC4/cyPm.c ****      * causing a normal Boot procedure to occur. No need to exit
 212:.\Generated_Source\PSoC4/cyPm.c ****      * from the critical section.
 213:.\Generated_Source\PSoC4/cyPm.c ****      */
 214:.\Generated_Source\PSoC4/cyPm.c **** }
 215:.\Generated_Source\PSoC4/cyPm.c **** 
 216:.\Generated_Source\PSoC4/cyPm.c **** 
 217:.\Generated_Source\PSoC4/cyPm.c **** /*******************************************************************************
 218:.\Generated_Source\PSoC4/cyPm.c **** * Function Name: CySysPmSetWakeupPolarity
 219:.\Generated_Source\PSoC4/cyPm.c **** ********************************************************************************
 220:.\Generated_Source\PSoC4/cyPm.c **** *
 221:.\Generated_Source\PSoC4/cyPm.c **** * Summary:
 222:.\Generated_Source\PSoC4/cyPm.c **** *  Wake up from stop mode is performed by toggling the wakeup pin (P0.7),
 223:.\Generated_Source\PSoC4/cyPm.c **** *  causing a normal boot procedure to occur. This function assigns
 224:.\Generated_Source\PSoC4/cyPm.c **** *  the wakeup pin active level. Setting the wakeup pin to this level will cause
 225:.\Generated_Source\PSoC4/cyPm.c **** *  the wakeup from stop mode. The wakeup pin is active low by default.
 226:.\Generated_Source\PSoC4/cyPm.c **** *
 227:.\Generated_Source\PSoC4/cyPm.c **** * Parameters:
 228:.\Generated_Source\PSoC4/cyPm.c **** *  polarity: Wakeup pin active level:
 229:.\Generated_Source\PSoC4/cyPm.c **** *   Value    Define                          Level
 230:.\Generated_Source\PSoC4/cyPm.c **** *    0        CY_PM_STOP_WAKEUP_ACTIVE_LOW    Logical zero will wakeup the chip
 231:.\Generated_Source\PSoC4/cyPm.c **** *    1        CY_PM_STOP_WAKEUP_ACTIVE_HIGH   Logical one will wakeup the chip
 232:.\Generated_Source\PSoC4/cyPm.c **** *
 233:.\Generated_Source\PSoC4/cyPm.c **** * Return:
 234:.\Generated_Source\PSoC4/cyPm.c **** *  None
 235:.\Generated_Source\PSoC4/cyPm.c **** *
 236:.\Generated_Source\PSoC4/cyPm.c **** *******************************************************************************/
 237:.\Generated_Source\PSoC4/cyPm.c **** void CySysPmSetWakeupPolarity(uint32 polarity)
 238:.\Generated_Source\PSoC4/cyPm.c **** {
 239:.\Generated_Source\PSoC4/cyPm.c ****     uint8 interruptState;
 240:.\Generated_Source\PSoC4/cyPm.c **** 
 241:.\Generated_Source\PSoC4/cyPm.c ****     interruptState = CyEnterCriticalSection();
 242:.\Generated_Source\PSoC4/cyPm.c **** 
 243:.\Generated_Source\PSoC4/cyPm.c ****     CY_PM_PWR_STOP_REG = (CY_PM_STOP_WAKEUP_ACTIVE_LOW != polarity) ?
 244:.\Generated_Source\PSoC4/cyPm.c ****                         (CY_PM_PWR_STOP_REG | CY_PM_PWR_STOP_POLARITY) :
 245:.\Generated_Source\PSoC4/cyPm.c ****                         (CY_PM_PWR_STOP_REG & (uint32) (~CY_PM_PWR_STOP_POLARITY));
 246:.\Generated_Source\PSoC4/cyPm.c **** 
 247:.\Generated_Source\PSoC4/cyPm.c ****     CyExitCriticalSection(interruptState);
 248:.\Generated_Source\PSoC4/cyPm.c **** }
 249:.\Generated_Source\PSoC4/cyPm.c **** 
 250:.\Generated_Source\PSoC4/cyPm.c **** 
 251:.\Generated_Source\PSoC4/cyPm.c **** /*******************************************************************************
ARM GAS  C:\Users\asha\AppData\Local\Temp\cc0mNpnr.s 			page 6


 252:.\Generated_Source\PSoC4/cyPm.c **** * Function Name: CySysPmGetResetReason
 253:.\Generated_Source\PSoC4/cyPm.c **** ********************************************************************************
 254:.\Generated_Source\PSoC4/cyPm.c **** *
 255:.\Generated_Source\PSoC4/cyPm.c **** * Summary:
 256:.\Generated_Source\PSoC4/cyPm.c **** *  Retrieves last reset reason - transition from OFF/XRES/STOP/HIBERNATE to
 257:.\Generated_Source\PSoC4/cyPm.c **** *  RESET state. Note that waking up from STOP using XRES will be perceived as
 258:.\Generated_Source\PSoC4/cyPm.c **** *  general RESET.
 259:.\Generated_Source\PSoC4/cyPm.c **** *
 260:.\Generated_Source\PSoC4/cyPm.c **** * Parameters:
 261:.\Generated_Source\PSoC4/cyPm.c **** *  None
 262:.\Generated_Source\PSoC4/cyPm.c **** *
 263:.\Generated_Source\PSoC4/cyPm.c **** * Return:
 264:.\Generated_Source\PSoC4/cyPm.c **** *  Reset reason.
 265:.\Generated_Source\PSoC4/cyPm.c **** *  CY_PM_RESET_REASON_UNKN        - unknown
 266:.\Generated_Source\PSoC4/cyPm.c **** *  CY_PM_RESET_REASON_XRES        - transition from OFF/XRES to RESET
 267:.\Generated_Source\PSoC4/cyPm.c **** *  CY_PM_RESET_REASON_WAKEUP_HIB  - transition/wakeup from HIBERNATE to RESET
 268:.\Generated_Source\PSoC4/cyPm.c **** *  CY_PM_RESET_REASON_WAKEUP_STOP - transition/wakeup from STOP to RESET
 269:.\Generated_Source\PSoC4/cyPm.c **** *
 270:.\Generated_Source\PSoC4/cyPm.c **** *******************************************************************************/
 271:.\Generated_Source\PSoC4/cyPm.c **** uint32 CySysPmGetResetReason(void)
 272:.\Generated_Source\PSoC4/cyPm.c **** {
  31              		.loc 1 272 0
  32              		.cfi_startproc
  33 0000 00B5     		push	{lr}
  34              	.LCFI0:
  35              		.cfi_def_cfa_offset 4
  36              		.cfi_offset 14, -4
 273:.\Generated_Source\PSoC4/cyPm.c ****     uint32 reason;
 274:.\Generated_Source\PSoC4/cyPm.c **** 
 275:.\Generated_Source\PSoC4/cyPm.c ****     switch(CY_PM_PWR_STOP_REG & CY_PM_PWR_STOP_TOKEN_MASK)
  37              		.loc 1 275 0
  38 0002 074B     		ldr	r3, .L9
  39 0004 1868     		ldr	r0, [r3]
  40 0006 C0B2     		uxtb	r0, r0
  41 0008 F128     		cmp	r0, #241
  42 000a 04D0     		beq	.L4
  43 000c F228     		cmp	r0, #242
  44 000e 04D0     		beq	.L5
 276:.\Generated_Source\PSoC4/cyPm.c ****     {
 277:.\Generated_Source\PSoC4/cyPm.c ****     /* Power up, XRES */
 278:.\Generated_Source\PSoC4/cyPm.c ****     case CY_PM_PWR_STOP_TOKEN_XRES:
 279:.\Generated_Source\PSoC4/cyPm.c ****         reason = CY_PM_RESET_REASON_XRES;
 280:.\Generated_Source\PSoC4/cyPm.c ****         break;
 281:.\Generated_Source\PSoC4/cyPm.c **** 
 282:.\Generated_Source\PSoC4/cyPm.c ****     /* Wakeup from Hibernate */
 283:.\Generated_Source\PSoC4/cyPm.c ****     case CY_PM_PWR_STOP_TOKEN_HIB:
 284:.\Generated_Source\PSoC4/cyPm.c ****         reason = CY_PM_RESET_REASON_WAKEUP_HIB;
 285:.\Generated_Source\PSoC4/cyPm.c ****         break;
 286:.\Generated_Source\PSoC4/cyPm.c **** 
 287:.\Generated_Source\PSoC4/cyPm.c ****     /* Wakeup from Stop (through WAKEUP pin assert) */
 288:.\Generated_Source\PSoC4/cyPm.c ****     case CY_PM_PWR_STOP_TOKEN_STOP:
 289:.\Generated_Source\PSoC4/cyPm.c ****         reason = CY_PM_RESET_REASON_WAKEUP_STOP;
 290:.\Generated_Source\PSoC4/cyPm.c ****         break;
  45              		.loc 1 290 0
  46 0010 4342     		neg	r3, r0
  47 0012 5841     		adc	r0, r0, r3
  48              	.LVL0:
ARM GAS  C:\Users\asha\AppData\Local\Temp\cc0mNpnr.s 			page 7


  49              	.L6:
  50              	.LVL1:
 291:.\Generated_Source\PSoC4/cyPm.c **** 
 292:.\Generated_Source\PSoC4/cyPm.c ****     /* Unknown reason */
 293:.\Generated_Source\PSoC4/cyPm.c ****     default:
 294:.\Generated_Source\PSoC4/cyPm.c ****         reason = CY_PM_RESET_REASON_UNKN;
 295:.\Generated_Source\PSoC4/cyPm.c ****         break;
 296:.\Generated_Source\PSoC4/cyPm.c ****     }
 297:.\Generated_Source\PSoC4/cyPm.c **** 
 298:.\Generated_Source\PSoC4/cyPm.c ****     return (reason);
 299:.\Generated_Source\PSoC4/cyPm.c **** }
  51              		.loc 1 299 0
  52              		@ sp needed for prologue
  53 0014 00BD     		pop	{pc}
  54              	.L4:
  55              		.loc 1 275 0
  56 0016 0220     		mov	r0, #2
  57              	.LVL2:
  58 0018 FCE7     		b	.L6
  59              	.LVL3:
  60              	.L5:
  61 001a 0320     		mov	r0, #3
  62              	.LVL4:
  63              		.loc 1 290 0
  64 001c FAE7     		b	.L6
  65              	.L10:
  66 001e C046     		.align	2
  67              	.L9:
  68 0020 2C000B40 		.word	1074462764
  69              		.cfi_endproc
  70              	.LFE5:
  71              		.size	CySysPmGetResetReason, .-CySysPmGetResetReason
  72              		.section	.text.CySysPmHibernate,"ax",%progbits
  73              		.align	2
  74              		.global	CySysPmHibernate
  75              		.code	16
  76              		.thumb_func
  77              		.type	CySysPmHibernate, %function
  78              	CySysPmHibernate:
  79              	.LFB2:
  80              		.loc 1 132 0
  81              		.cfi_startproc
  82 0000 08B5     		push	{r3, lr}
  83              	.LCFI1:
  84              		.cfi_def_cfa_offset 8
  85              		.cfi_offset 3, -8
  86              		.cfi_offset 14, -4
  87              		.loc 1 133 0
  88 0002 FFF7FEFF 		bl	CyEnterCriticalSection
  89              		.loc 1 136 0
  90 0006 0C48     		ldr	r0, .L13
  91 0008 8023     		mov	r3, #128
  92 000a 0168     		ldr	r1, [r0]
  93 000c 1A06     		lsl	r2, r3, #24
  94 000e 0A43     		orr	r2, r2, r1
  95              		.loc 1 139 0
  96 0010 0A4B     		ldr	r3, .L13+4
ARM GAS  C:\Users\asha\AppData\Local\Temp\cc0mNpnr.s 			page 8


  97              		.loc 1 136 0
  98 0012 0260     		str	r2, [r0]
  99              		.loc 1 139 0
 100 0014 1888     		ldrh	r0, [r3]
 101 0016 0A4A     		ldr	r2, .L13+8
 102              		.loc 1 142 0
 103 0018 0A4B     		ldr	r3, .L13+12
 104              		.loc 1 139 0
 105 001a 1060     		str	r0, [r2]
 106              		.loc 1 142 0
 107 001c 1968     		ldr	r1, [r3]
 108 001e 0422     		mov	r2, #4
 109 0020 0A43     		orr	r2, r2, r1
 110 0022 1A60     		str	r2, [r3]
 111              		.loc 1 148 0
 112 0024 084B     		ldr	r3, .L13+16
 113 0026 FF20     		mov	r0, #255
 114 0028 1A68     		ldr	r2, [r3]
 115 002a F121     		mov	r1, #241
 116 002c 8243     		bic	r2, r2, r0
 117 002e 0A43     		orr	r2, r2, r1
 118 0030 1A60     		str	r2, [r3]
 119              		.loc 1 151 0
 120              	@ 151 ".\Generated_Source\PSoC4\cyPm.c" 1
 121 0032 30BF     		WFI 
 122              	
 123              	@ 0 "" 2
 124              		.loc 1 157 0
 125              		.code	16
 126              		@ sp needed for prologue
 127 0034 08BD     		pop	{r3, pc}
 128              	.L14:
 129 0036 C046     		.align	2
 130              	.L13:
 131 0038 00000B40 		.word	1074462720
 132 003c 50F1FF0F 		.word	268431696
 133 0040 0C000B40 		.word	1074462732
 134 0044 10ED00E0 		.word	-536810224
 135 0048 2C000B40 		.word	1074462764
 136              		.cfi_endproc
 137              	.LFE2:
 138              		.size	CySysPmHibernate, .-CySysPmHibernate
 139              		.section	.text.CySysPmUnfreezeIo,"ax",%progbits
 140              		.align	2
 141              		.global	CySysPmUnfreezeIo
 142              		.code	16
 143              		.thumb_func
 144              		.type	CySysPmUnfreezeIo, %function
 145              	CySysPmUnfreezeIo:
 146              	.LFB7:
 300:.\Generated_Source\PSoC4/cyPm.c **** 
 301:.\Generated_Source\PSoC4/cyPm.c **** 
 302:.\Generated_Source\PSoC4/cyPm.c **** /*******************************************************************************
 303:.\Generated_Source\PSoC4/cyPm.c **** * Function Name: CySysPmFreezeIo
 304:.\Generated_Source\PSoC4/cyPm.c **** ********************************************************************************
 305:.\Generated_Source\PSoC4/cyPm.c **** *
 306:.\Generated_Source\PSoC4/cyPm.c **** * Summary:
ARM GAS  C:\Users\asha\AppData\Local\Temp\cc0mNpnr.s 			page 9


 307:.\Generated_Source\PSoC4/cyPm.c **** *  Freezes IO-Cells directly to save IO-Cell state on wake up from Hibernate or
 308:.\Generated_Source\PSoC4/cyPm.c **** *  Stop state. It is not required to call this function before entering
 309:.\Generated_Source\PSoC4/cyPm.c **** *  Stop mode, since CySysPmStop() function freezes IO-Cells implicitly.
 310:.\Generated_Source\PSoC4/cyPm.c **** *
 311:.\Generated_Source\PSoC4/cyPm.c **** * Parameters:
 312:.\Generated_Source\PSoC4/cyPm.c **** *  None
 313:.\Generated_Source\PSoC4/cyPm.c **** *
 314:.\Generated_Source\PSoC4/cyPm.c **** * Return:
 315:.\Generated_Source\PSoC4/cyPm.c **** *  None
 316:.\Generated_Source\PSoC4/cyPm.c **** *
 317:.\Generated_Source\PSoC4/cyPm.c **** *******************************************************************************/
 318:.\Generated_Source\PSoC4/cyPm.c **** void CySysPmFreezeIo(void)
 319:.\Generated_Source\PSoC4/cyPm.c **** {
 320:.\Generated_Source\PSoC4/cyPm.c ****     uint8 interruptState;
 321:.\Generated_Source\PSoC4/cyPm.c **** 
 322:.\Generated_Source\PSoC4/cyPm.c ****     interruptState = CyEnterCriticalSection();
 323:.\Generated_Source\PSoC4/cyPm.c **** 
 324:.\Generated_Source\PSoC4/cyPm.c ****     /* Check FREEZE state to avoid recurrent IO-Cells freeze attempt,
 325:.\Generated_Source\PSoC4/cyPm.c ****      * since the second call to this function will cause accidental switch
 326:.\Generated_Source\PSoC4/cyPm.c ****      * to the STOP mode (the system will enter STOP mode immediately after
 327:.\Generated_Source\PSoC4/cyPm.c ****      * writing to STOP bit since both UNLOCK and FREEZE have been set correctly
 328:.\Generated_Source\PSoC4/cyPm.c ****      * in a previous call to this function).
 329:.\Generated_Source\PSoC4/cyPm.c ****      */
 330:.\Generated_Source\PSoC4/cyPm.c ****     if (0u == (CY_PM_PWR_STOP_REG & CY_PM_PWR_STOP_FREEZE))
 331:.\Generated_Source\PSoC4/cyPm.c ****     {
 332:.\Generated_Source\PSoC4/cyPm.c ****         /* Preserve last reset reason and disable overrides the next freeze command by peripherals 
 333:.\Generated_Source\PSoC4/cyPm.c ****         CY_PM_PWR_STOP_REG = CY_PM_PWR_STOP_STOP | CY_PM_PWR_STOP_FREEZE | CY_PM_PWR_STOP_UNLOCK |
 334:.\Generated_Source\PSoC4/cyPm.c ****                             (CY_PM_PWR_STOP_REG & (CY_PM_PWR_STOP_TOKEN_MASK | CY_PM_PWR_STOP_POLAR
 335:.\Generated_Source\PSoC4/cyPm.c **** 
 336:.\Generated_Source\PSoC4/cyPm.c ****         /* PWR_STOP read after write must be delayed for 6 clock cycles to let internal nodes to se
 337:.\Generated_Source\PSoC4/cyPm.c ****         CyDelayCycles(6u);
 338:.\Generated_Source\PSoC4/cyPm.c **** 
 339:.\Generated_Source\PSoC4/cyPm.c ****         /* The second write causes the freeze of IO-Cells to save IO-Cell state */
 340:.\Generated_Source\PSoC4/cyPm.c ****         CY_PM_PWR_STOP_REG &= ~CY_PM_PWR_STOP_STOP;
 341:.\Generated_Source\PSoC4/cyPm.c ****     }
 342:.\Generated_Source\PSoC4/cyPm.c **** 
 343:.\Generated_Source\PSoC4/cyPm.c ****     CyExitCriticalSection(interruptState);
 344:.\Generated_Source\PSoC4/cyPm.c **** }
 345:.\Generated_Source\PSoC4/cyPm.c **** 
 346:.\Generated_Source\PSoC4/cyPm.c **** 
 347:.\Generated_Source\PSoC4/cyPm.c **** /*******************************************************************************
 348:.\Generated_Source\PSoC4/cyPm.c **** * Function Name: CySysPmUnfreezeIo
 349:.\Generated_Source\PSoC4/cyPm.c **** ********************************************************************************
 350:.\Generated_Source\PSoC4/cyPm.c **** *
 351:.\Generated_Source\PSoC4/cyPm.c **** * Summary:
 352:.\Generated_Source\PSoC4/cyPm.c **** *  The IO-Cells remain frozen after awake from Hibernate or Stop mode until
 353:.\Generated_Source\PSoC4/cyPm.c **** *  the firmware unfreezes them after booting. The call of this function
 354:.\Generated_Source\PSoC4/cyPm.c **** *  unfreezes IO-Cells explicitly.
 355:.\Generated_Source\PSoC4/cyPm.c **** *
 356:.\Generated_Source\PSoC4/cyPm.c **** * Parameters:
 357:.\Generated_Source\PSoC4/cyPm.c **** *  None
 358:.\Generated_Source\PSoC4/cyPm.c **** *
 359:.\Generated_Source\PSoC4/cyPm.c **** * Return:
 360:.\Generated_Source\PSoC4/cyPm.c **** *  None
 361:.\Generated_Source\PSoC4/cyPm.c **** *
 362:.\Generated_Source\PSoC4/cyPm.c **** *******************************************************************************/
 363:.\Generated_Source\PSoC4/cyPm.c **** void CySysPmUnfreezeIo(void)
ARM GAS  C:\Users\asha\AppData\Local\Temp\cc0mNpnr.s 			page 10


 364:.\Generated_Source\PSoC4/cyPm.c **** {
 147              		.loc 1 364 0
 148              		.cfi_startproc
 149 0000 70B5     		push	{r4, r5, r6, lr}
 150              	.LCFI2:
 151              		.cfi_def_cfa_offset 16
 152              		.cfi_offset 4, -16
 153              		.cfi_offset 5, -12
 154              		.cfi_offset 6, -8
 155              		.cfi_offset 14, -4
 365:.\Generated_Source\PSoC4/cyPm.c ****     uint8 interruptState;
 366:.\Generated_Source\PSoC4/cyPm.c **** 
 367:.\Generated_Source\PSoC4/cyPm.c ****     interruptState = CyEnterCriticalSection();
 156              		.loc 1 367 0
 157 0002 FFF7FEFF 		bl	CyEnterCriticalSection
 368:.\Generated_Source\PSoC4/cyPm.c **** 
 369:.\Generated_Source\PSoC4/cyPm.c ****     /* Preserve last reset reason and wakeup polarity. Then, unfreeze I/O:
 370:.\Generated_Source\PSoC4/cyPm.c ****      * write PWR_STOP.FREEZE=0, .UNLOCK=0x3A, .STOP=0, .TOKEN
 371:.\Generated_Source\PSoC4/cyPm.c ****      */
 372:.\Generated_Source\PSoC4/cyPm.c ****     CY_PM_PWR_STOP_REG = CY_PM_PWR_STOP_UNLOCK |
 373:.\Generated_Source\PSoC4/cyPm.c ****                         (CY_PM_PWR_STOP_REG & (CY_PM_PWR_STOP_TOKEN_MASK | CY_PM_PWR_STOP_POLARITY)
 158              		.loc 1 373 0
 159 0006 094C     		ldr	r4, .L17
 160              		.loc 1 372 0
 161 0008 094D     		ldr	r5, .L17+4
 162              		.loc 1 373 0
 163 000a 2268     		ldr	r2, [r4]
 164              		.loc 1 372 0
 165 000c E821     		mov	r1, #232
 166 000e 2A40     		and	r2, r2, r5
 167              		.loc 1 367 0
 168 0010 061C     		mov	r6, r0
 169              		.loc 1 372 0
 170 0012 8801     		lsl	r0, r1, #6
 171 0014 1043     		orr	r0, r0, r2
 172 0016 2060     		str	r0, [r4]
 374:.\Generated_Source\PSoC4/cyPm.c **** 
 375:.\Generated_Source\PSoC4/cyPm.c ****     /* PWR_STOP read after write must be delayed for 6 clock cycles to let internal nodes to settle
 376:.\Generated_Source\PSoC4/cyPm.c ****     CyDelayCycles(6u);
 173              		.loc 1 376 0
 174 0018 0620     		mov	r0, #6
 175 001a FFF7FEFF 		bl	CyDelayCycles
 377:.\Generated_Source\PSoC4/cyPm.c **** 
 378:.\Generated_Source\PSoC4/cyPm.c ****     /* Lock STOP mode: write PWR_STOP.FREEZE=0, UNLOCK=0x00, STOP=0, .TOKEN */
 379:.\Generated_Source\PSoC4/cyPm.c ****     CY_PM_PWR_STOP_REG &= (CY_PM_PWR_STOP_TOKEN_MASK | CY_PM_PWR_STOP_POLARITY);
 176              		.loc 1 379 0
 177 001e 2368     		ldr	r3, [r4]
 380:.\Generated_Source\PSoC4/cyPm.c **** 
 381:.\Generated_Source\PSoC4/cyPm.c ****     CyExitCriticalSection(interruptState);
 178              		.loc 1 381 0
 179 0020 301C     		mov	r0, r6
 180              		.loc 1 379 0
 181 0022 1D40     		and	r5, r5, r3
 182 0024 2560     		str	r5, [r4]
 183              		.loc 1 381 0
 184 0026 FFF7FEFF 		bl	CyExitCriticalSection
 382:.\Generated_Source\PSoC4/cyPm.c **** }
ARM GAS  C:\Users\asha\AppData\Local\Temp\cc0mNpnr.s 			page 11


 185              		.loc 1 382 0
 186              		@ sp needed for prologue
 187 002a 70BD     		pop	{r4, r5, r6, pc}
 188              	.L18:
 189              		.align	2
 190              	.L17:
 191 002c 2C000B40 		.word	1074462764
 192 0030 FF000100 		.word	65791
 193              		.cfi_endproc
 194              	.LFE7:
 195              		.size	CySysPmUnfreezeIo, .-CySysPmUnfreezeIo
 196              		.section	.text.CySysPmFreezeIo,"ax",%progbits
 197              		.align	2
 198              		.global	CySysPmFreezeIo
 199              		.code	16
 200              		.thumb_func
 201              		.type	CySysPmFreezeIo, %function
 202              	CySysPmFreezeIo:
 203              	.LFB6:
 204              		.loc 1 319 0
 205              		.cfi_startproc
 206 0000 38B5     		push	{r3, r4, r5, lr}
 207              	.LCFI3:
 208              		.cfi_def_cfa_offset 16
 209              		.cfi_offset 3, -16
 210              		.cfi_offset 4, -12
 211              		.cfi_offset 5, -8
 212              		.cfi_offset 14, -4
 213              		.loc 1 322 0
 214 0002 FFF7FEFF 		bl	CyEnterCriticalSection
 215              		.loc 1 330 0
 216 0006 0B4C     		ldr	r4, .L22
 217              		.loc 1 322 0
 218 0008 051C     		mov	r5, r0
 219              		.loc 1 330 0
 220 000a 2368     		ldr	r3, [r4]
 221 000c 9A03     		lsl	r2, r3, #14
 222 000e 0CD4     		bmi	.L20
 223              		.loc 1 334 0
 224 0010 2068     		ldr	r0, [r4]
 225              		.loc 1 333 0
 226 0012 0949     		ldr	r1, .L22+4
 227 0014 094B     		ldr	r3, .L22+8
 228 0016 0140     		and	r1, r1, r0
 229 0018 1943     		orr	r1, r1, r3
 230              		.loc 1 337 0
 231 001a 0620     		mov	r0, #6
 232              		.loc 1 333 0
 233 001c 2160     		str	r1, [r4]
 234              		.loc 1 337 0
 235 001e FFF7FEFF 		bl	CyDelayCycles
 236              		.loc 1 340 0
 237 0022 2268     		ldr	r2, [r4]
 238 0024 0648     		ldr	r0, .L22+12
 239 0026 1040     		and	r0, r0, r2
 240 0028 2060     		str	r0, [r4]
 241              	.L20:
ARM GAS  C:\Users\asha\AppData\Local\Temp\cc0mNpnr.s 			page 12


 242              		.loc 1 343 0
 243 002a 281C     		mov	r0, r5
 244 002c FFF7FEFF 		bl	CyExitCriticalSection
 245              		.loc 1 344 0
 246              		@ sp needed for prologue
 247 0030 38BD     		pop	{r3, r4, r5, pc}
 248              	.L23:
 249 0032 C046     		.align	2
 250              	.L22:
 251 0034 2C000B40 		.word	1074462764
 252 0038 FF000100 		.word	65791
 253 003c 003A0280 		.word	-2147337728
 254 0040 FFFFFF7F 		.word	2147483647
 255              		.cfi_endproc
 256              	.LFE6:
 257              		.size	CySysPmFreezeIo, .-CySysPmFreezeIo
 258              		.section	.text.CySysPmStop,"ax",%progbits
 259              		.align	2
 260              		.global	CySysPmStop
 261              		.code	16
 262              		.thumb_func
 263              		.type	CySysPmStop, %function
 264              	CySysPmStop:
 265              	.LFB3:
 266              		.loc 1 190 0
 267              		.cfi_startproc
 268 0000 08B5     		push	{r3, lr}
 269              	.LCFI4:
 270              		.cfi_def_cfa_offset 8
 271              		.cfi_offset 3, -8
 272              		.cfi_offset 14, -4
 273              		.loc 1 191 0
 274 0002 FFF7FEFF 		bl	CyEnterCriticalSection
 275              		.loc 1 194 0
 276 0006 FFF7FEFF 		bl	CySysPmFreezeIo
 277              		.loc 1 197 0
 278 000a 054B     		ldr	r3, .L26
 279 000c 054A     		ldr	r2, .L26+4
 280 000e 1868     		ldr	r0, [r3]
 281 0010 0549     		ldr	r1, .L26+8
 282 0012 0240     		and	r2, r2, r0
 283 0014 0A43     		orr	r2, r2, r1
 284 0016 1A60     		str	r2, [r3]
 285              		.loc 1 205 0
 286              	@ 205 ".\Generated_Source\PSoC4\cyPm.c" 1
 287 0018 C046     		NOP
 288              	
 289              	@ 0 "" 2
 290              		.loc 1 206 0
 291              	@ 206 ".\Generated_Source\PSoC4\cyPm.c" 1
 292 001a C046     		NOP
 293              	
 294              	@ 0 "" 2
 295              		.loc 1 208 0
 296              	@ 208 ".\Generated_Source\PSoC4\cyPm.c" 1
 297 001c 30BF     		WFI 
 298              	
ARM GAS  C:\Users\asha\AppData\Local\Temp\cc0mNpnr.s 			page 13


 299              	@ 0 "" 2
 300              		.loc 1 214 0
 301              		.code	16
 302              		@ sp needed for prologue
 303 001e 08BD     		pop	{r3, pc}
 304              	.L27:
 305              		.align	2
 306              	.L26:
 307 0020 2C000B40 		.word	1074462764
 308 0024 00FFFF7F 		.word	2147483392
 309 0028 F2000080 		.word	-2147483406
 310              		.cfi_endproc
 311              	.LFE3:
 312              		.size	CySysPmStop, .-CySysPmStop
 313              		.section	.text.CySysPmSetWakeupPolarity,"ax",%progbits
 314              		.align	2
 315              		.global	CySysPmSetWakeupPolarity
 316              		.code	16
 317              		.thumb_func
 318              		.type	CySysPmSetWakeupPolarity, %function
 319              	CySysPmSetWakeupPolarity:
 320              	.LFB4:
 321              		.loc 1 238 0
 322              		.cfi_startproc
 323 0000 10B5     		push	{r4, lr}
 324              	.LCFI5:
 325              		.cfi_def_cfa_offset 8
 326              		.cfi_offset 4, -8
 327              		.cfi_offset 14, -4
 328              	.LVL5:
 329              		.loc 1 238 0
 330 0002 041C     		mov	r4, r0
 331              		.loc 1 241 0
 332 0004 FFF7FEFF 		bl	CyEnterCriticalSection
 333              	.LVL6:
 334              		.loc 1 244 0
 335 0008 074B     		ldr	r3, .L33
 336 000a 1A68     		ldr	r2, [r3]
 337              		.loc 1 243 0
 338 000c 002C     		cmp	r4, #0
 339 000e 06D1     		bne	.L32
 340 0010 064B     		ldr	r3, .L33+4
 341 0012 1A40     		and	r2, r2, r3
 342              	.L30:
 343 0014 0449     		ldr	r1, .L33
 344              		.loc 1 248 0
 345              		@ sp needed for prologue
 346              		.loc 1 243 0
 347 0016 0A60     		str	r2, [r1]
 348              		.loc 1 247 0
 349 0018 FFF7FEFF 		bl	CyExitCriticalSection
 350              	.LVL7:
 351              		.loc 1 248 0
 352 001c 10BD     		pop	{r4, pc}
 353              	.LVL8:
 354              	.L32:
 355              		.loc 1 243 0
ARM GAS  C:\Users\asha\AppData\Local\Temp\cc0mNpnr.s 			page 14


 356 001e 8024     		mov	r4, #128
 357              	.LVL9:
 358 0020 6102     		lsl	r1, r4, #9
 359 0022 0A43     		orr	r2, r2, r1
 360 0024 F6E7     		b	.L30
 361              	.L34:
 362 0026 C046     		.align	2
 363              	.L33:
 364 0028 2C000B40 		.word	1074462764
 365 002c FFFFFEFF 		.word	-65537
 366              		.cfi_endproc
 367              	.LFE4:
 368              		.size	CySysPmSetWakeupPolarity, .-CySysPmSetWakeupPolarity
 369              		.section	.text.CySysPmDeepSleep,"ax",%progbits
 370              		.align	2
 371              		.global	CySysPmDeepSleep
 372              		.code	16
 373              		.thumb_func
 374              		.type	CySysPmDeepSleep, %function
 375              	CySysPmDeepSleep:
 376              	.LFB1:
 377              		.loc 1 78 0
 378              		.cfi_startproc
 379 0000 08B5     		push	{r3, lr}
 380              	.LCFI6:
 381              		.cfi_def_cfa_offset 8
 382              		.cfi_offset 3, -8
 383              		.cfi_offset 14, -4
 384              		.loc 1 81 0
 385 0002 FFF7FEFF 		bl	CyEnterCriticalSection
 386              		.loc 1 84 0
 387 0006 094B     		ldr	r3, .L37
 388 0008 094A     		ldr	r2, .L37+4
 389 000a 1968     		ldr	r1, [r3]
 390 000c 0A40     		and	r2, r2, r1
 391              		.loc 1 87 0
 392 000e 0949     		ldr	r1, .L37+8
 393              		.loc 1 84 0
 394 0010 1A60     		str	r2, [r3]
 395              		.loc 1 87 0
 396 0012 0A88     		ldrh	r2, [r1]
 397 0014 084B     		ldr	r3, .L37+12
 398 0016 1A60     		str	r2, [r3]
 399              		.loc 1 90 0
 400 0018 084B     		ldr	r3, .L37+16
 401 001a 0422     		mov	r2, #4
 402 001c 1968     		ldr	r1, [r3]
 403 001e 0A43     		orr	r2, r2, r1
 404 0020 1A60     		str	r2, [r3]
 405              		.loc 1 93 0
 406              	@ 93 ".\Generated_Source\PSoC4\cyPm.c" 1
 407 0022 30BF     		WFI 
 408              	
 409              	@ 0 "" 2
 410              		.loc 1 95 0
 411              		.code	16
 412 0024 FFF7FEFF 		bl	CyExitCriticalSection
ARM GAS  C:\Users\asha\AppData\Local\Temp\cc0mNpnr.s 			page 15


 413              		.loc 1 96 0
 414              		@ sp needed for prologue
 415 0028 08BD     		pop	{r3, pc}
 416              	.L38:
 417 002a C046     		.align	2
 418              	.L37:
 419 002c 00000B40 		.word	1074462720
 420 0030 FFFFFF7F 		.word	2147483647
 421 0034 52F1FF0F 		.word	268431698
 422 0038 0C000B40 		.word	1074462732
 423 003c 10ED00E0 		.word	-536810224
 424              		.cfi_endproc
 425              	.LFE1:
 426              		.size	CySysPmDeepSleep, .-CySysPmDeepSleep
 427              		.section	.text.CySysPmSleep,"ax",%progbits
 428              		.align	2
 429              		.global	CySysPmSleep
 430              		.code	16
 431              		.thumb_func
 432              		.type	CySysPmSleep, %function
 433              	CySysPmSleep:
 434              	.LFB0:
 435              		.loc 1 41 0
 436              		.cfi_startproc
 437 0000 08B5     		push	{r3, lr}
 438              	.LCFI7:
 439              		.cfi_def_cfa_offset 8
 440              		.cfi_offset 3, -8
 441              		.cfi_offset 14, -4
 442              		.loc 1 44 0
 443 0002 FFF7FEFF 		bl	CyEnterCriticalSection
 444              		.loc 1 47 0
 445 0006 044B     		ldr	r3, .L41
 446 0008 0421     		mov	r1, #4
 447 000a 1A68     		ldr	r2, [r3]
 448 000c 8A43     		bic	r2, r2, r1
 449 000e 1A60     		str	r2, [r3]
 450              		.loc 1 50 0
 451              	@ 50 ".\Generated_Source\PSoC4\cyPm.c" 1
 452 0010 30BF     		WFI 
 453              	
 454              	@ 0 "" 2
 455              		.loc 1 52 0
 456              		.code	16
 457 0012 FFF7FEFF 		bl	CyExitCriticalSection
 458              		.loc 1 53 0
 459              		@ sp needed for prologue
 460 0016 08BD     		pop	{r3, pc}
 461              	.L42:
 462              		.align	2
 463              	.L41:
 464 0018 10ED00E0 		.word	-536810224
 465              		.cfi_endproc
 466              	.LFE0:
 467              		.size	CySysPmSleep, .-CySysPmSleep
 468              		.text
 469              	.Letext0:
ARM GAS  C:\Users\asha\AppData\Local\Temp\cc0mNpnr.s 			page 16

