ARM GAS  C:\Users\asha\AppData\Local\Temp\ccstE6wQ.s 			page 1


   1              		.cpu cortex-m0
   2              		.fpu softvfp
   3              		.eabi_attribute 20, 1
   4              		.eabi_attribute 21, 1
   5              		.eabi_attribute 23, 3
   6              		.eabi_attribute 24, 1
   7              		.eabi_attribute 25, 1
   8              		.eabi_attribute 26, 1
   9              		.eabi_attribute 30, 2
  10              		.eabi_attribute 18, 4
  11              		.code	16
  12              		.file	"main.c"
  19 0000 1E040000 		.text
  19      02004500 
  19      00000201 
  19      FB0E0D00 
  19      01010101 
  20              	.Ltext0:
  21              		.cfi_sections	.debug_frame
  22              		.global	__aeabi_d2f
  23              		.global	__aeabi_fmul
  24              		.global	__aeabi_f2iz
  25              		.global	__aeabi_i2d
  26              		.global	__aeabi_dmul
  27              		.section	.text.main,"ax",%progbits
  28              		.align	2
  29              		.global	main
  30              		.code	16
  31              		.thumb_func
  32              		.type	main, %function
  33              	main:
  34              	.LFB20:
  35              		.file 1 ".\\main.c"
   1:.\main.c      **** #include <device.h>
   2:.\main.c      **** 
   3:.\main.c      **** #define pi 3.14159
   4:.\main.c      **** 
   5:.\main.c      **** #define NUM_FFT 64
   6:.\main.c      **** 
   7:.\main.c      **** int samples[NUM_FFT] = { 128,    203,   249,   249,  203,   128,   52,6,   6,   52,   127,    203, 
   8:.\main.c      **** 	249,   203,    128,    52,    6,   6,52,    127,   203,   249,   249,    203,
   9:.\main.c      ****     128,   52,   6,    6,    52,    127,203,   249,    249,    203,    128,   52,
  10:.\main.c      **** 	6,    6,    52,   127,   203,    249,  249,    203,    128,   52,   6,   6, 
  11:.\main.c      **** 	52,    127,   203,   249,   249,    203,  128,   52,   6,   6,    52,   127,
  12:.\main.c      **** 	203,    249,   249,128,    203,   249,   249,  203,   128,   52,6,   6,   52,   127,    203,   249
  13:.\main.c      **** 	249,   203,    128,    52,    6,   6,52,    127,   203,   249,   249,    203,
  14:.\main.c      ****     128,   52,   6,    6,    52,    127,203,   249,    249,    203,    128,   52,
  15:.\main.c      **** 	6,    6,    52,   127,   203,    249,  249,    203,    128,   52,   6,   6, 
  16:.\main.c      **** 	52,    127,   203,   249,   249,    203,  128,   52,   6,   6,    52,   127,
  17:.\main.c      **** 	203,    249,   249};	/* Array to hold input samples */
  18:.\main.c      **** 	
ARM GAS  C:\Users\asha\AppData\Local\Temp\ccstE6wQ.s 			page 2


  19:.\main.c      **** int revsamples[NUM_FFT];
  20:.\main.c      **** 
  21:.\main.c      **** int16 real0[NUM_FFT];		/* Array to hold the real value of samples */
  22:.\main.c      **** int16 img0[NUM_FFT];			/* Array to hold the img value of samples */
  23:.\main.c      **** 
  24:.\main.c      **** int16 real1[NUM_FFT];		/* Array to hold the real value of samples */
  25:.\main.c      **** int16 img1[NUM_FFT];			/* Array to hold the img value of samples */
  26:.\main.c      **** 
  27:.\main.c      **** int16 twiddlereal[NUM_FFT/2];	/* Array to hold the real value of twiddle factor */
  28:.\main.c      **** int16 twiddleimg[NUM_FFT/2];	/* Array to hold the img value of twiddle factor */
  29:.\main.c      **** 
  30:.\main.c      **** int16 interreal[NUM_FFT/2];	/* Array to hold the real product of intermediate multiplication */
  31:.\main.c      **** int16 interimg[NUM_FFT/2];		/* Array to hold the img product of intermediate multiplication */
  32:.\main.c      **** 
  33:.\main.c      **** float x;
  34:.\main.c      **** float x2;
  35:.\main.c      **** float x4;
  36:.\main.c      **** float x6;
  37:.\main.c      **** float product;
  38:.\main.c      **** 
  39:.\main.c      **** void main()
  40:.\main.c      **** {
  36              		.loc 1 40 0
  37              		.cfi_startproc
  38 0000 F0B5     		push	{r4, r5, r6, r7, lr}
  39              	.LCFI0:
  40              		.cfi_def_cfa_offset 20
  41              		.cfi_offset 4, -20
  42              		.cfi_offset 5, -16
  43              		.cfi_offset 6, -12
  44              		.cfi_offset 7, -8
  45              		.cfi_offset 14, -4
  46 0002 5F46     		mov	r7, fp
  47 0004 5646     		mov	r6, sl
  48 0006 4D46     		mov	r5, r9
  49 0008 4446     		mov	r4, r8
  50 000a F0B4     		push	{r4, r5, r6, r7}
  51              	.LCFI1:
  52              		.cfi_def_cfa_offset 36
  53              		.cfi_offset 8, -36
  54              		.cfi_offset 9, -32
  55              		.cfi_offset 10, -28
  56              		.cfi_offset 11, -24
  41:.\main.c      **** 	uint8 i, j; 
  42:.\main.c      **** 	uint8 revi;
  43:.\main.c      **** 	uint8 localman, localcounter;
  44:.\main.c      **** 	uint8 array0[4] = {0, 16, 32, 48};
  57              		.loc 1 44 0
  58 000c 3A4A     		ldr	r2, .L44+32
  59              		.loc 1 40 0
  60 000e DDB0     		sub	sp, sp, #372
  61              	.LCFI2:
  62              		.cfi_def_cfa_offset 408
  63              		.loc 1 44 0
  64 0010 131C     		mov	r3, r2
  45:.\main.c      **** 	uint8 array[8] = {0, 8, 16, 24, 32, 40, 48, 56};
  65              		.loc 1 45 0
ARM GAS  C:\Users\asha\AppData\Local\Temp\ccstE6wQ.s 			page 3


  66 0012 6846     		mov	r0, sp
  67              		.loc 1 44 0
  68 0014 10CB     		ldmia	r3!, {r4}
  69              		.loc 1 45 0
  70 0016 6530     		add	r0, r0, #101
  71 0018 FF30     		add	r0, r0, #255
  72              		.loc 1 44 0
  73 001a 5B94     		str	r4, [sp, #364]
  74              		.loc 1 45 0
  75 001c 0590     		str	r0, [sp, #20]
  76 001e 071C     		mov	r7, r0
  77 0020 30CB     		ldmia	r3!, {r4, r5}
  78 0022 30C7     		stmia	r7!, {r4, r5}
  46:.\main.c      **** 	uint8 array1[16] = {0, 4, 8, 12, 16, 20, 24, 28, 32, 36, 40, 44, 48, 52, 56, 60};
  79              		.loc 1 46 0
  80 0024 6F46     		mov	r7, sp
  81 0026 5537     		add	r7, r7, #85
  82 0028 FF37     		add	r7, r7, #255
  83 002a 161C     		mov	r6, r2
  84 002c 0497     		str	r7, [sp, #16]
  85 002e 391C     		mov	r1, r7
  86 0030 0C36     		add	r6, r6, #12
  87 0032 31CE     		ldmia	r6!, {r0, r4, r5}
  88 0034 31C1     		stmia	r1!, {r0, r4, r5}
  89 0036 3068     		ldr	r0, [r6]
  47:.\main.c      **** 	uint8 array2[32] = {0, 2, 4, 6, 8, 10, 12, 14, 16, 18, 20, 22, 24, 26, 28, 30, 32,
  48:.\main.c      **** 						34, 36, 38, 40, 42, 44, 46, 48, 50, 52, 54, 56, 58, 60, 62};
  90              		.loc 1 48 0
  91 0038 203F     		sub	r7, r7, #32
  92              		.loc 1 46 0
  93 003a 0860     		str	r0, [r1]
  94              		.loc 1 48 0
  95 003c 3B1C     		mov	r3, r7
  96 003e 0397     		str	r7, [sp, #12]
  97 0040 1C32     		add	r2, r2, #28
  98 0042 13CA     		ldmia	r2!, {r0, r1, r4}
  99 0044 13C3     		stmia	r3!, {r0, r1, r4}
 100 0046 1E1C     		mov	r6, r3
 101 0048 A1CA     		ldmia	r2!, {r0, r5, r7}
 102 004a A1C6     		stmia	r6!, {r0, r5, r7}
 103 004c 2349     		ldr	r1, .L44+4
 104 004e 2248     		ldr	r0, .L44
 105 0050 30CA     		ldmia	r2!, {r4, r5}
 106 0052 30C6     		stmia	r6!, {r4, r5}
 107 0054 224D     		ldr	r5, .L44+8
 108 0056 234E     		ldr	r6, .L44+12
 109 0058 0690     		str	r0, [sp, #24]
 110 005a 0791     		str	r1, [sp, #28]
 111 005c 2749     		ldr	r1, .L44+36
 112 005e 284A     		ldr	r2, .L44+40
 113 0060 0024     		mov	r4, #0
 114 0062 0027     		mov	r7, #0
 115 0064 8A46     		mov	sl, r1
 116 0066 9046     		mov	r8, r2
 117              	.L3:
  49:.\main.c      **** 	
  50:.\main.c      ****     /* CyGlobalIntEnable; */ /* Uncomment this line to enable global interrupts. */
ARM GAS  C:\Users\asha\AppData\Local\Temp\ccstE6wQ.s 			page 4


  51:.\main.c      **** 	
  52:.\main.c      **** 	/* Calculate the twiddle factors */
  53:.\main.c      **** 	for(i=0; i< (NUM_FFT/2); i++)
  54:.\main.c      **** 	{
  55:.\main.c      **** //		x = (2 * pi * i / 64);
  56:.\main.c      **** //		x2 = x*x;
  57:.\main.c      **** //		x4 = x2*x2;
  58:.\main.c      **** //		x6 = x4*x2;
  59:.\main.c      **** //		product = (1 - (x2/2) + (x4/24) - (x6/720))* 256;
  60:.\main.c      **** //		twiddlereal[i] = (int16) product ;
  61:.\main.c      **** //		product = (x*(1 - (x2/6) + (x4/120) - (x6/5040)))*(-256);
  62:.\main.c      **** //		twiddleimg[i] = (int16) product ;
  63:.\main.c      **** 		product = cos(2 * pi * i / NUM_FFT);
  64:.\main.c      **** 		twiddlereal[i] = (int16) (product *256);
 118              		.loc 1 64 0
 119 0068 0698     		ldr	r0, [sp, #24]
 120 006a 0799     		ldr	r1, [sp, #28]
 121 006c FFF7FEFF 		bl	__aeabi_d2f
 122 0070 2449     		ldr	r1, .L44+44
 123 0072 FFF7FEFF 		bl	__aeabi_fmul
 124 0076 FFF7FEFF 		bl	__aeabi_f2iz
 125 007a A146     		mov	r9, r4
 126 007c D144     		add	r9, r9, sl
 127 007e 4946     		mov	r1, r9
 128 0080 0880     		strh	r0, [r1]
  65:.\main.c      **** 		product = sin(2 * pi * i / NUM_FFT);
 129              		.loc 1 65 0
 130 0082 311C     		mov	r1, r6
 131 0084 281C     		mov	r0, r5
 132 0086 FFF7FEFF 		bl	__aeabi_d2f
  66:.\main.c      **** 		twiddleimg[i] = (int16)(product *(-256));
 133              		.loc 1 66 0
 134 008a 4246     		mov	r2, r8
 135 008c 1E49     		ldr	r1, .L44+48
 136 008e A618     		add	r6, r4, r2
 137              		.loc 1 65 0
 138 0090 051C     		add	r5, r0, #0
 139              		.loc 1 66 0
 140 0092 FFF7FEFF 		bl	__aeabi_fmul
 141 0096 FFF7FEFF 		bl	__aeabi_f2iz
 142              		.loc 1 53 0
 143 009a 0234     		add	r4, r4, #2
 144              		.loc 1 66 0
 145 009c 3080     		strh	r0, [r6]
 146              		.loc 1 53 0
 147 009e 0137     		add	r7, r7, #1
 148 00a0 402C     		cmp	r4, #64
 149 00a2 33D0     		beq	.L2
 150 00a4 381C     		mov	r0, r7
 151 00a6 FFF7FEFF 		bl	__aeabi_i2d
 152 00aa 0F4A     		ldr	r2, .L44+16
 153 00ac 0F4B     		ldr	r3, .L44+20
 154 00ae FFF7FEFF 		bl	__aeabi_dmul
 155 00b2 0F4A     		ldr	r2, .L44+24
 156 00b4 0F4B     		ldr	r3, .L44+28
 157 00b6 FFF7FEFF 		bl	__aeabi_dmul
 158 00ba 051C     		mov	r5, r0
ARM GAS  C:\Users\asha\AppData\Local\Temp\ccstE6wQ.s 			page 5


 159 00bc 0E1C     		mov	r6, r1
 160              		.loc 1 39 0
 161 00be FFF7FEFF 		bl	cos
 162 00c2 0690     		str	r0, [sp, #24]
 163 00c4 0791     		str	r1, [sp, #28]
 164 00c6 281C     		mov	r0, r5
 165 00c8 311C     		mov	r1, r6
 166 00ca FFF7FEFF 		bl	sin
 167 00ce 051C     		mov	r5, r0
 168 00d0 0E1C     		mov	r6, r1
 169 00d2 C9E7     		b	.L3
 170              	.L45:
 171 00d4 C046C046 		.align	3
 172              	.L44:
 173 00d8 00000000 		.word	0
 174 00dc 0000F03F 		.word	1072693248
 175 00e0 00000000 		.word	0
 176 00e4 00000000 		.word	0
 177 00e8 6E861BF0 		.word	-266631570
 178 00ec F9211940 		.word	1075388921
 179 00f0 00000000 		.word	0
 180 00f4 0000903F 		.word	1066401792
 181 00f8 00000000 		.word	.LANCHOR0
 182 00fc 00000000 		.word	twiddlereal
 183 0100 00000000 		.word	twiddleimg
 184 0104 00008043 		.word	1132462080
 185 0108 000080C3 		.word	-1015021568
 186              	.L2:
 187 010c 3A4B     		ldr	r3, .L46
  67:.\main.c      **** 	}
  68:.\main.c      **** 	
  69:.\main.c      ****     /* First phase of FFT is arranging the input samples in bit reversed format */
  70:.\main.c      **** 	for(i=0; i< NUM_FFT; i++)
  71:.\main.c      **** 	{
  72:.\main.c      **** 		revi = 0;
  73:.\main.c      **** 		
  74:.\main.c      **** 		localman = i;
  75:.\main.c      **** 		localman = (localman << 6) & (0x40);
  76:.\main.c      **** 		revi = revi | localman;
  77:.\main.c      **** 		
  78:.\main.c      **** 		localman = i;
  79:.\main.c      **** 		localman = (localman << 4) & (0x20);
  80:.\main.c      **** 		revi = revi | localman;
  81:.\main.c      **** 		
  82:.\main.c      **** 		localman = i;
  83:.\main.c      **** 		localman = (localman << 2) & (0x10);
  84:.\main.c      **** 		revi = revi | localman;
 188              		.loc 1 84 0
 189 010e 0827     		mov	r7, #8
 190              		.loc 1 39 0
 191 0110 1D60     		str	r5, [r3]
 192              		.loc 1 84 0
 193 0112 BC46     		mov	ip, r7
  85:.\main.c      **** 		
  86:.\main.c      **** 		localman = i;
  87:.\main.c      **** 		localman = (localman << 0) & (0x08);
  88:.\main.c      **** 		revi = revi | localman;
ARM GAS  C:\Users\asha\AppData\Local\Temp\ccstE6wQ.s 			page 6


 194              		.loc 1 88 0
 195 0114 4022     		mov	r2, #64
  89:.\main.c      **** 		
  90:.\main.c      **** 		localman = i;
  91:.\main.c      **** 		localman = (localman >> 2) & (0x04);
  92:.\main.c      **** 		revi = revi | localman;
 196              		.loc 1 92 0
 197 0116 2027     		mov	r7, #32
 198              		.loc 1 39 0
 199 0118 3849     		ldr	r1, .L46+4
 200 011a 394D     		ldr	r5, .L46+8
 201 011c 0023     		mov	r3, #0
 202              		.loc 1 80 0
 203 011e 0424     		mov	r4, #4
 204 0120 0220     		mov	r0, #2
 205              		.loc 1 88 0
 206 0122 9146     		mov	r9, r2
 207              		.loc 1 92 0
 208 0124 BB46     		mov	fp, r7
 209              	.L4:
 210              		.loc 1 39 0
 211 0126 DAB2     		uxtb	r2, r3
 212              	.LVL0:
 213              		.loc 1 80 0
 214 0128 9708     		lsr	r7, r2, #2
 215 012a 1609     		lsr	r6, r2, #4
 216 012c 2740     		and	r7, r7, r4
 217 012e 0640     		and	r6, r6, r0
 218 0130 3E43     		orr	r6, r6, r7
 219              	.LVL1:
 220              		.loc 1 84 0
 221 0132 6746     		mov	r7, ip
 222 0134 3A40     		and	r2, r2, r7
 223              	.LVL2:
 224 0136 3243     		orr	r2, r2, r6
 225              	.LVL3:
 226              		.loc 1 88 0
 227 0138 4F46     		mov	r7, r9
 228 013a 9E01     		lsl	r6, r3, #6
 229 013c 3E40     		and	r6, r6, r7
 230 013e 1643     		orr	r6, r6, r2
 231              	.LVL4:
 232              		.loc 1 92 0
 233 0140 5F46     		mov	r7, fp
 234 0142 1A01     		lsl	r2, r3, #4
 235 0144 3A40     		and	r2, r2, r7
 236 0146 1643     		orr	r6, r6, r2
 237              	.LVL5:
  93:.\main.c      **** 		
  94:.\main.c      **** 		localman = i;
  95:.\main.c      **** 		localman = (localman >> 4) & (0x02);
  96:.\main.c      **** 		revi = revi | localman;
  97:.\main.c      **** 
  98:.\main.c      **** 		localman = i;
  99:.\main.c      **** 		localman = (localman >> 6) & (0x01);
 100:.\main.c      **** 		revi = revi | localman;
 101:.\main.c      **** 		
ARM GAS  C:\Users\asha\AppData\Local\Temp\ccstE6wQ.s 			page 7


 102:.\main.c      **** 		revsamples[i] = samples[revi];
 238              		.loc 1 102 0
 239 0148 1027     		mov	r7, #16
 240 014a 9A00     		lsl	r2, r3, #2
 241 014c 3A40     		and	r2, r2, r7
 242 014e 3243     		orr	r2, r2, r6
 243 0150 9200     		lsl	r2, r2, #2
 244 0152 5659     		ldr	r6, [r2, r5]
 245              	.LVL6:
 246 0154 0133     		add	r3, r3, #1
 247 0156 40C1     		stmia	r1!, {r6}
 248              		.loc 1 70 0
 249 0158 402B     		cmp	r3, #64
 250 015a E4D1     		bne	.L4
 251 015c 294C     		ldr	r4, .L46+12
 252 015e 2A48     		ldr	r0, .L46+16
 253 0160 2A49     		ldr	r1, .L46+20
 254 0162 2B4B     		ldr	r3, .L46+24
 255 0164 2894     		str	r4, [sp, #160]
 256 0166 2B4D     		ldr	r5, .L46+28
 257 0168 2B4C     		ldr	r4, .L46+32
 258 016a 1890     		str	r0, [sp, #96]
 259 016c 1B91     		str	r1, [sp, #108]
 260 016e 1C93     		str	r3, [sp, #112]
 103:.\main.c      **** 	}
 104:.\main.c      **** 	
 105:.\main.c      **** 	for(;;)
 106:.\main.c      **** 	{
 107:.\main.c      **** 	
 108:.\main.c      **** 	/* First stage of FFT radix 2 implementation */
 109:.\main.c      **** 	Pin_Write(1);
 110:.\main.c      **** 	for(i=0; i< NUM_FFT; )
 111:.\main.c      **** 	{
 112:.\main.c      **** 		real0[i] = revsamples[i] + revsamples[i+1];
 113:.\main.c      **** 		real0[i+1] = revsamples[i] - revsamples[i+1];
 114:.\main.c      **** 		i = i+2;
 115:.\main.c      **** 	}
 116:.\main.c      **** 	
 117:.\main.c      **** 	/* Second stage of FFT radix 2 implementation */
 118:.\main.c      **** 	for(i=0; i< NUM_FFT; )
 119:.\main.c      **** 	{
 120:.\main.c      **** 		real1[i] = real0[i] + real0[i+2];
 121:.\main.c      **** 		img1[i] = img0[i] + img0[i+2];
 122:.\main.c      **** 		
 123:.\main.c      **** 		real1[i+1] = real0[i+1] + ((real0[i+3] * twiddlereal[32])/256);
 124:.\main.c      **** 		img1[i+1] = (real0[i+3] * twiddleimg[32])/256;
 125:.\main.c      **** 		
 126:.\main.c      **** 		real1[i+2] = real0[i] - real0[i+2];
 127:.\main.c      **** 		img1[i+2] = img0[i] - img0[i+2];
 128:.\main.c      **** 		
 129:.\main.c      **** 		real1[i+3] = real0[i+1] -(( real0[i+3] * twiddlereal[32])/256);
 130:.\main.c      **** 		img1[i+3] = (-1) * real0[i+3] * twiddleimg[32] / 256;
 261              		.loc 1 130 0
 262 0170 1E1C     		mov	r6, r3
 263              		.loc 1 120 0
 264 0172 8146     		mov	r9, r0
 265 0174 0F1C     		mov	r7, r1
ARM GAS  C:\Users\asha\AppData\Local\Temp\ccstE6wQ.s 			page 8


 266              	.L17:
 267              		.loc 1 109 0
 268 0176 0120     		mov	r0, #1
 269 0178 FFF7FEFF 		bl	Pin_Write
 270              		.loc 1 112 0
 271 017c 1F48     		ldr	r0, .L46+4
 272 017e 0288     		ldrh	r2, [r0]
 273 0180 8388     		ldrh	r3, [r0, #4]
 274 0182 1898     		ldr	r0, [sp, #96]
 275 0184 9918     		add	r1, r3, r2
 276              		.loc 1 113 0
 277 0186 D31A     		sub	r3, r2, r3
 278              		.loc 1 112 0
 279 0188 0180     		strh	r1, [r0]
 280              		.loc 1 113 0
 281 018a 4380     		strh	r3, [r0, #2]
 282 018c 021C     		mov	r2, r0
 283 018e 1B48     		ldr	r0, .L46+4
 284              		.loc 1 112 0
 285 0190 1A49     		ldr	r1, .L46+4
 286              		.loc 1 113 0
 287 0192 0830     		add	r0, r0, #8
 288 0194 131C     		mov	r3, r2
 289              		.loc 1 112 0
 290 0196 0A89     		ldrh	r2, [r1, #8]
 291 0198 8188     		ldrh	r1, [r0, #4]
 292 019a 9346     		mov	fp, r2
 293 019c 8C46     		mov	ip, r1
 294 019e 0691     		str	r1, [sp, #24]
 295 01a0 DC44     		add	ip, ip, fp
 296 01a2 1899     		ldr	r1, [sp, #96]
 297 01a4 6246     		mov	r2, ip
 298 01a6 8A80     		strh	r2, [r1, #4]
 299              		.loc 1 113 0
 300 01a8 069A     		ldr	r2, [sp, #24]
 301 01aa 5946     		mov	r1, fp
 302 01ac 0433     		add	r3, r3, #4
 303 01ae 891A     		sub	r1, r1, r2
 304 01b0 5980     		strh	r1, [r3, #2]
 305 01b2 0830     		add	r0, r0, #8
 306 01b4 0433     		add	r3, r3, #4
 307              	.L5:
 308              		.loc 1 112 0
 309 01b6 0288     		ldrh	r2, [r0]
 310 01b8 9346     		mov	fp, r2
 311 01ba 8288     		ldrh	r2, [r0, #4]
 312 01bc 9446     		mov	ip, r2
 313 01be DC44     		add	ip, ip, fp
 314 01c0 6146     		mov	r1, ip
 315 01c2 1980     		strh	r1, [r3]
 316              		.loc 1 113 0
 317 01c4 5946     		mov	r1, fp
 318 01c6 8A1A     		sub	r2, r1, r2
 319 01c8 011C     		mov	r1, r0
 320              		.loc 1 112 0
 321 01ca 0089     		ldrh	r0, [r0, #8]
 322              		.loc 1 113 0
ARM GAS  C:\Users\asha\AppData\Local\Temp\ccstE6wQ.s 			page 9


 323 01cc 0831     		add	r1, r1, #8
 324              		.loc 1 112 0
 325 01ce 8446     		mov	ip, r0
 326 01d0 8888     		ldrh	r0, [r1, #4]
 327              		.loc 1 113 0
 328 01d2 5A80     		strh	r2, [r3, #2]
 329              		.loc 1 112 0
 330 01d4 8346     		mov	fp, r0
 331              		.loc 1 113 0
 332 01d6 1A1D     		add	r2, r3, #4
 333              		.loc 1 112 0
 334 01d8 E344     		add	fp, fp, ip
 335              		.loc 1 113 0
 336 01da 0692     		str	r2, [sp, #24]
 337              		.loc 1 112 0
 338 01dc 5A46     		mov	r2, fp
 339 01de 9A80     		strh	r2, [r3, #4]
 340              		.loc 1 113 0
 341 01e0 6346     		mov	r3, ip
 342 01e2 069A     		ldr	r2, [sp, #24]
 343 01e4 181A     		sub	r0, r3, r0
 344 01e6 5080     		strh	r0, [r2, #2]
 345 01e8 081C     		mov	r0, r1
 346              		.loc 1 110 0
 347 01ea 0C49     		ldr	r1, .L46+36
 348              		.loc 1 113 0
 349 01ec 131C     		mov	r3, r2
 350 01ee 0830     		add	r0, r0, #8
 351 01f0 0433     		add	r3, r3, #4
 352              		.loc 1 110 0
 353 01f2 8842     		cmp	r0, r1
 354 01f4 DFD1     		bne	.L5
 355 01f6 13E0     		b	.L47
 356              	.L48:
 357              		.align	2
 358              	.L46:
 359 01f8 00000000 		.word	product
 360 01fc 00000000 		.word	revsamples
 361 0200 00000000 		.word	.LANCHOR1
 362 0204 00000000 		.word	img0
 363 0208 00000000 		.word	real0
 364 020c 00000000 		.word	real1
 365 0210 00000000 		.word	img1
 366 0214 00000000 		.word	interreal
 367 0218 00000000 		.word	interimg
 368 021c 00010000 		.word	revsamples+256
 369              	.L47:
 370 0220 4023     		mov	r3, #64
 371 0222 5246     		mov	r2, sl
 372 0224 D25E     		ldrsh	r2, [r2, r3]
 373 0226 4046     		mov	r0, r8
 374 0228 0D92     		str	r2, [sp, #52]
 375 022a 4021     		mov	r1, #64
 376 022c 435E     		ldrsh	r3, [r0, r1]
 377              		.loc 1 120 0
 378 022e 189A     		ldr	r2, [sp, #96]
 379              		.loc 1 110 0
ARM GAS  C:\Users\asha\AppData\Local\Temp\ccstE6wQ.s 			page 10


 380 0230 0693     		str	r3, [sp, #24]
 381              		.loc 1 120 0
 382 0232 1088     		ldrh	r0, [r2]
 383 0234 1899     		ldr	r1, [sp, #96]
 384 0236 0990     		str	r0, [sp, #36]
 385 0238 8B88     		ldrh	r3, [r1, #4]
 386 023a 1B9A     		ldr	r2, [sp, #108]
 387 023c 1918     		add	r1, r3, r0
 388              		.loc 1 121 0
 389 023e 2898     		ldr	r0, [sp, #160]
 390              		.loc 1 120 0
 391 0240 0A93     		str	r3, [sp, #40]
 392 0242 1180     		strh	r1, [r2]
 393              		.loc 1 121 0
 394 0244 0288     		ldrh	r2, [r0]
 395 0246 8388     		ldrh	r3, [r0, #4]
 396 0248 1C98     		ldr	r0, [sp, #112]
 397 024a 9918     		add	r1, r3, r2
 398 024c 0180     		strh	r1, [r0]
 399              		.loc 1 123 0
 400 024e 1899     		ldr	r1, [sp, #96]
 401              		.loc 1 121 0
 402 0250 0F93     		str	r3, [sp, #60]
 403              		.loc 1 123 0
 404 0252 4B88     		ldrh	r3, [r1, #2]
 405 0254 1898     		ldr	r0, [sp, #96]
 406 0256 1093     		str	r3, [sp, #64]
 407 0258 0623     		mov	r3, #6
 408 025a C35E     		ldrsh	r3, [r0, r3]
 409 025c 0D99     		ldr	r1, [sp, #52]
 410 025e 5943     		mul	r1, r3
 411 0260 C817     		asr	r0, r1, #31
 412 0262 8C46     		mov	ip, r1
 413 0264 010E     		lsr	r1, r0, #24
 414 0266 8B46     		mov	fp, r1
 415 0268 DC44     		add	ip, ip, fp
 416 026a 1099     		ldr	r1, [sp, #64]
 417 026c 6046     		mov	r0, ip
 418 026e 0012     		asr	r0, r0, #8
 419 0270 8C46     		mov	ip, r1
 420 0272 8444     		add	ip, ip, r0
 421 0274 0E90     		str	r0, [sp, #56]
 422 0276 1B98     		ldr	r0, [sp, #108]
 423 0278 6146     		mov	r1, ip
 424 027a 4180     		strh	r1, [r0, #2]
 425              		.loc 1 124 0
 426 027c 0698     		ldr	r0, [sp, #24]
 427 027e 5843     		mul	r0, r3
 428 0280 C117     		asr	r1, r0, #31
 429 0282 8446     		mov	ip, r0
 430 0284 080E     		lsr	r0, r1, #24
 431 0286 8346     		mov	fp, r0
 432 0288 DC44     		add	ip, ip, fp
 433 028a 1C98     		ldr	r0, [sp, #112]
 434 028c 6146     		mov	r1, ip
 435 028e 0912     		asr	r1, r1, #8
 436 0290 4180     		strh	r1, [r0, #2]
ARM GAS  C:\Users\asha\AppData\Local\Temp\ccstE6wQ.s 			page 11


 437              		.loc 1 126 0
 438 0292 0A99     		ldr	r1, [sp, #40]
 439 0294 0998     		ldr	r0, [sp, #36]
 440 0296 401A     		sub	r0, r0, r1
 441 0298 011C     		add	r1, r0, #0
 442 029a 1B98     		ldr	r0, [sp, #108]
 443 029c 8180     		strh	r1, [r0, #4]
 444              		.loc 1 127 0
 445 029e 0F99     		ldr	r1, [sp, #60]
 446 02a0 1C98     		ldr	r0, [sp, #112]
 447 02a2 521A     		sub	r2, r2, r1
 448 02a4 8280     		strh	r2, [r0, #4]
 449              		.loc 1 129 0
 450 02a6 0E99     		ldr	r1, [sp, #56]
 451 02a8 1098     		ldr	r0, [sp, #64]
 452 02aa 421A     		sub	r2, r0, r1
 453 02ac 1B98     		ldr	r0, [sp, #108]
 454 02ae C280     		strh	r2, [r0, #6]
 455              		.loc 1 130 0
 456 02b0 069A     		ldr	r2, [sp, #24]
 457 02b2 5842     		neg	r0, r3
 458 02b4 5043     		mul	r0, r2
 459 02b6 C117     		asr	r1, r0, #31
 460 02b8 0A0E     		lsr	r2, r1, #24
 461 02ba 1318     		add	r3, r2, r0
 462 02bc 1C99     		ldr	r1, [sp, #112]
 463 02be 1812     		asr	r0, r3, #8
 464              		.loc 1 120 0
 465 02c0 189B     		ldr	r3, [sp, #96]
 466              		.loc 1 130 0
 467 02c2 C880     		strh	r0, [r1, #6]
 468              		.loc 1 120 0
 469 02c4 1989     		ldrh	r1, [r3, #8]
 470 02c6 189A     		ldr	r2, [sp, #96]
 471 02c8 0A91     		str	r1, [sp, #40]
 472 02ca 9089     		ldrh	r0, [r2, #12]
 473 02cc 1B9A     		ldr	r2, [sp, #108]
 474 02ce 4318     		add	r3, r0, r1
 475              		.loc 1 121 0
 476 02d0 2899     		ldr	r1, [sp, #160]
 477              		.loc 1 120 0
 478 02d2 1381     		strh	r3, [r2, #8]
 479 02d4 0990     		str	r0, [sp, #36]
 480              		.loc 1 121 0
 481 02d6 0A89     		ldrh	r2, [r1, #8]
 482 02d8 8889     		ldrh	r0, [r1, #12]
 483 02da 1C9B     		ldr	r3, [sp, #112]
 484 02dc 1090     		str	r0, [sp, #64]
 485 02de 8118     		add	r1, r0, r2
 486              		.loc 1 123 0
 487 02e0 1898     		ldr	r0, [sp, #96]
 488              		.loc 1 121 0
 489 02e2 1981     		strh	r1, [r3, #8]
 490              		.loc 1 123 0
 491 02e4 4389     		ldrh	r3, [r0, #10]
 492 02e6 1899     		ldr	r1, [sp, #96]
 493 02e8 0F93     		str	r3, [sp, #60]
ARM GAS  C:\Users\asha\AppData\Local\Temp\ccstE6wQ.s 			page 12


 494 02ea 0E23     		mov	r3, #14
 495 02ec CB5E     		ldrsh	r3, [r1, r3]
 496 02ee 0D98     		ldr	r0, [sp, #52]
 497 02f0 5843     		mul	r0, r3
 498 02f2 C117     		asr	r1, r0, #31
 499 02f4 8446     		mov	ip, r0
 500 02f6 080E     		lsr	r0, r1, #24
 501 02f8 8346     		mov	fp, r0
 502 02fa DC44     		add	ip, ip, fp
 503 02fc 0F98     		ldr	r0, [sp, #60]
 504 02fe 6146     		mov	r1, ip
 505 0300 0912     		asr	r1, r1, #8
 506 0302 8446     		mov	ip, r0
 507 0304 8C44     		add	ip, ip, r1
 508 0306 0E91     		str	r1, [sp, #56]
 509 0308 1B99     		ldr	r1, [sp, #108]
 510 030a 6046     		mov	r0, ip
 511 030c 4881     		strh	r0, [r1, #10]
 512              		.loc 1 124 0
 513 030e 0699     		ldr	r1, [sp, #24]
 514 0310 5943     		mul	r1, r3
 515 0312 C817     		asr	r0, r1, #31
 516 0314 8C46     		mov	ip, r1
 517 0316 010E     		lsr	r1, r0, #24
 518 0318 8B46     		mov	fp, r1
 519 031a DC44     		add	ip, ip, fp
 520 031c 1C99     		ldr	r1, [sp, #112]
 521 031e 6046     		mov	r0, ip
 522 0320 0012     		asr	r0, r0, #8
 523 0322 4881     		strh	r0, [r1, #10]
 524              		.loc 1 126 0
 525 0324 0998     		ldr	r0, [sp, #36]
 526 0326 0A99     		ldr	r1, [sp, #40]
 527 0328 091A     		sub	r1, r1, r0
 528 032a 081C     		add	r0, r1, #0
 529 032c 1B99     		ldr	r1, [sp, #108]
 530 032e 8881     		strh	r0, [r1, #12]
 531              		.loc 1 127 0
 532 0330 1099     		ldr	r1, [sp, #64]
 533 0332 1C98     		ldr	r0, [sp, #112]
 534 0334 521A     		sub	r2, r2, r1
 535 0336 8281     		strh	r2, [r0, #12]
 536              		.loc 1 129 0
 537 0338 0F99     		ldr	r1, [sp, #60]
 538 033a 0E98     		ldr	r0, [sp, #56]
 539 033c 0A1A     		sub	r2, r1, r0
 540 033e 1B99     		ldr	r1, [sp, #108]
 541 0340 CA81     		strh	r2, [r1, #14]
 542              		.loc 1 130 0
 543 0342 069A     		ldr	r2, [sp, #24]
 544 0344 5942     		neg	r1, r3
 545 0346 5143     		mul	r1, r2
 546 0348 C817     		asr	r0, r1, #31
 547 034a 020E     		lsr	r2, r0, #24
 548 034c 5318     		add	r3, r2, r1
 549 034e 1C99     		ldr	r1, [sp, #112]
 550 0350 1812     		asr	r0, r3, #8
ARM GAS  C:\Users\asha\AppData\Local\Temp\ccstE6wQ.s 			page 13


 551              		.loc 1 120 0
 552 0352 189B     		ldr	r3, [sp, #96]
 553              		.loc 1 130 0
 554 0354 C881     		strh	r0, [r1, #14]
 555              		.loc 1 120 0
 556 0356 198A     		ldrh	r1, [r3, #16]
 557 0358 189A     		ldr	r2, [sp, #96]
 558 035a 0A91     		str	r1, [sp, #40]
 559 035c 908A     		ldrh	r0, [r2, #20]
 560 035e 1B9A     		ldr	r2, [sp, #108]
 561 0360 0990     		str	r0, [sp, #36]
 562 0362 4318     		add	r3, r0, r1
 563              		.loc 1 121 0
 564 0364 2898     		ldr	r0, [sp, #160]
 565              		.loc 1 120 0
 566 0366 1382     		strh	r3, [r2, #16]
 567              		.loc 1 121 0
 568 0368 028A     		ldrh	r2, [r0, #16]
 569 036a 838A     		ldrh	r3, [r0, #20]
 570 036c 1C98     		ldr	r0, [sp, #112]
 571 036e 9918     		add	r1, r3, r2
 572 0370 0182     		strh	r1, [r0, #16]
 573              		.loc 1 123 0
 574 0372 1899     		ldr	r1, [sp, #96]
 575              		.loc 1 121 0
 576 0374 1093     		str	r3, [sp, #64]
 577              		.loc 1 123 0
 578 0376 4B8A     		ldrh	r3, [r1, #18]
 579 0378 0F93     		str	r3, [sp, #60]
 580 037a 1898     		ldr	r0, [sp, #96]
 581 037c 0D99     		ldr	r1, [sp, #52]
 582 037e 1623     		mov	r3, #22
 583 0380 C35E     		ldrsh	r3, [r0, r3]
 584 0382 5943     		mul	r1, r3
 585 0384 C817     		asr	r0, r1, #31
 586 0386 8C46     		mov	ip, r1
 587 0388 010E     		lsr	r1, r0, #24
 588 038a 8B46     		mov	fp, r1
 589 038c DC44     		add	ip, ip, fp
 590 038e 0F99     		ldr	r1, [sp, #60]
 591 0390 6046     		mov	r0, ip
 592 0392 0012     		asr	r0, r0, #8
 593 0394 8C46     		mov	ip, r1
 594 0396 0E90     		str	r0, [sp, #56]
 595 0398 8444     		add	ip, ip, r0
 596 039a 1B98     		ldr	r0, [sp, #108]
 597 039c 6146     		mov	r1, ip
 598 039e 4182     		strh	r1, [r0, #18]
 599              		.loc 1 124 0
 600 03a0 0698     		ldr	r0, [sp, #24]
 601 03a2 5843     		mul	r0, r3
 602 03a4 C117     		asr	r1, r0, #31
 603 03a6 8446     		mov	ip, r0
 604 03a8 080E     		lsr	r0, r1, #24
 605 03aa 8346     		mov	fp, r0
 606 03ac DC44     		add	ip, ip, fp
 607 03ae 1C98     		ldr	r0, [sp, #112]
ARM GAS  C:\Users\asha\AppData\Local\Temp\ccstE6wQ.s 			page 14


 608 03b0 6146     		mov	r1, ip
 609 03b2 0912     		asr	r1, r1, #8
 610 03b4 4182     		strh	r1, [r0, #18]
 611              		.loc 1 126 0
 612 03b6 0999     		ldr	r1, [sp, #36]
 613 03b8 0A98     		ldr	r0, [sp, #40]
 614 03ba 401A     		sub	r0, r0, r1
 615 03bc 011C     		add	r1, r0, #0
 616 03be 1B98     		ldr	r0, [sp, #108]
 617 03c0 8182     		strh	r1, [r0, #20]
 618              		.loc 1 127 0
 619 03c2 1099     		ldr	r1, [sp, #64]
 620 03c4 1C98     		ldr	r0, [sp, #112]
 621 03c6 521A     		sub	r2, r2, r1
 622 03c8 8282     		strh	r2, [r0, #20]
 623              		.loc 1 129 0
 624 03ca 0E99     		ldr	r1, [sp, #56]
 625 03cc 0F98     		ldr	r0, [sp, #60]
 626 03ce 421A     		sub	r2, r0, r1
 627 03d0 1B98     		ldr	r0, [sp, #108]
 628 03d2 C282     		strh	r2, [r0, #22]
 629              		.loc 1 130 0
 630 03d4 069A     		ldr	r2, [sp, #24]
 631 03d6 5842     		neg	r0, r3
 632 03d8 5043     		mul	r0, r2
 633 03da C117     		asr	r1, r0, #31
 634 03dc 0A0E     		lsr	r2, r1, #24
 635 03de 1318     		add	r3, r2, r0
 636 03e0 1C99     		ldr	r1, [sp, #112]
 637 03e2 1812     		asr	r0, r3, #8
 638              		.loc 1 120 0
 639 03e4 189B     		ldr	r3, [sp, #96]
 640              		.loc 1 130 0
 641 03e6 C882     		strh	r0, [r1, #22]
 642              		.loc 1 120 0
 643 03e8 198B     		ldrh	r1, [r3, #24]
 644 03ea 189A     		ldr	r2, [sp, #96]
 645 03ec 0A91     		str	r1, [sp, #40]
 646 03ee 908B     		ldrh	r0, [r2, #28]
 647 03f0 1B9A     		ldr	r2, [sp, #108]
 648 03f2 4318     		add	r3, r0, r1
 649              		.loc 1 121 0
 650 03f4 2899     		ldr	r1, [sp, #160]
 651              		.loc 1 120 0
 652 03f6 1383     		strh	r3, [r2, #24]
 653 03f8 0990     		str	r0, [sp, #36]
 654              		.loc 1 121 0
 655 03fa 888B     		ldrh	r0, [r1, #28]
 656 03fc 0A8B     		ldrh	r2, [r1, #24]
 657 03fe 1090     		str	r0, [sp, #64]
 658 0400 1C9B     		ldr	r3, [sp, #112]
 659 0402 8118     		add	r1, r0, r2
 660              		.loc 1 123 0
 661 0404 1898     		ldr	r0, [sp, #96]
 662              		.loc 1 121 0
 663 0406 1983     		strh	r1, [r3, #24]
 664              		.loc 1 123 0
ARM GAS  C:\Users\asha\AppData\Local\Temp\ccstE6wQ.s 			page 15


 665 0408 438B     		ldrh	r3, [r0, #26]
 666 040a 1899     		ldr	r1, [sp, #96]
 667 040c 0F93     		str	r3, [sp, #60]
 668 040e 1E23     		mov	r3, #30
 669 0410 CB5E     		ldrsh	r3, [r1, r3]
 670 0412 0D98     		ldr	r0, [sp, #52]
 671 0414 5843     		mul	r0, r3
 672 0416 C117     		asr	r1, r0, #31
 673 0418 8446     		mov	ip, r0
 674 041a 080E     		lsr	r0, r1, #24
 675 041c 8346     		mov	fp, r0
 676 041e DC44     		add	ip, ip, fp
 677 0420 0F98     		ldr	r0, [sp, #60]
 678 0422 6146     		mov	r1, ip
 679 0424 0912     		asr	r1, r1, #8
 680 0426 8446     		mov	ip, r0
 681 0428 0E91     		str	r1, [sp, #56]
 682 042a 8C44     		add	ip, ip, r1
 683 042c 1B99     		ldr	r1, [sp, #108]
 684 042e 6046     		mov	r0, ip
 685 0430 4883     		strh	r0, [r1, #26]
 686              		.loc 1 124 0
 687 0432 0699     		ldr	r1, [sp, #24]
 688 0434 5943     		mul	r1, r3
 689 0436 C817     		asr	r0, r1, #31
 690 0438 8C46     		mov	ip, r1
 691 043a 010E     		lsr	r1, r0, #24
 692 043c 8B46     		mov	fp, r1
 693 043e DC44     		add	ip, ip, fp
 694 0440 1C99     		ldr	r1, [sp, #112]
 695 0442 6046     		mov	r0, ip
 696 0444 0012     		asr	r0, r0, #8
 697 0446 4883     		strh	r0, [r1, #26]
 698              		.loc 1 126 0
 699 0448 0A99     		ldr	r1, [sp, #40]
 700 044a 0998     		ldr	r0, [sp, #36]
 701 044c 091A     		sub	r1, r1, r0
 702 044e 081C     		add	r0, r1, #0
 703 0450 1B99     		ldr	r1, [sp, #108]
 704 0452 8883     		strh	r0, [r1, #28]
 705              		.loc 1 127 0
 706 0454 1099     		ldr	r1, [sp, #64]
 707 0456 1C98     		ldr	r0, [sp, #112]
 708 0458 521A     		sub	r2, r2, r1
 709 045a 8283     		strh	r2, [r0, #28]
 710              		.loc 1 129 0
 711 045c 0F99     		ldr	r1, [sp, #60]
 712 045e 0E98     		ldr	r0, [sp, #56]
 713 0460 0A1A     		sub	r2, r1, r0
 714 0462 1B99     		ldr	r1, [sp, #108]
 715 0464 CA83     		strh	r2, [r1, #30]
 716              		.loc 1 130 0
 717 0466 069A     		ldr	r2, [sp, #24]
 718 0468 5942     		neg	r1, r3
 719 046a 5143     		mul	r1, r2
 720 046c C817     		asr	r0, r1, #31
 721 046e 020E     		lsr	r2, r0, #24
ARM GAS  C:\Users\asha\AppData\Local\Temp\ccstE6wQ.s 			page 16


 722 0470 5318     		add	r3, r2, r1
 723 0472 1C99     		ldr	r1, [sp, #112]
 724 0474 1812     		asr	r0, r3, #8
 725              		.loc 1 120 0
 726 0476 189B     		ldr	r3, [sp, #96]
 727              		.loc 1 130 0
 728 0478 C883     		strh	r0, [r1, #30]
 729              		.loc 1 120 0
 730 047a 198C     		ldrh	r1, [r3, #32]
 731 047c 189A     		ldr	r2, [sp, #96]
 732 047e 0A91     		str	r1, [sp, #40]
 733 0480 908C     		ldrh	r0, [r2, #36]
 734 0482 0990     		str	r0, [sp, #36]
 735 0484 1B9A     		ldr	r2, [sp, #108]
 736 0486 4318     		add	r3, r0, r1
 737              		.loc 1 121 0
 738 0488 2898     		ldr	r0, [sp, #160]
 739              		.loc 1 120 0
 740 048a 1384     		strh	r3, [r2, #32]
 741              		.loc 1 121 0
 742 048c 838C     		ldrh	r3, [r0, #36]
 743 048e 028C     		ldrh	r2, [r0, #32]
 744 0490 1C98     		ldr	r0, [sp, #112]
 745 0492 9918     		add	r1, r3, r2
 746 0494 0184     		strh	r1, [r0, #32]
 747              		.loc 1 123 0
 748 0496 1899     		ldr	r1, [sp, #96]
 749              		.loc 1 121 0
 750 0498 1093     		str	r3, [sp, #64]
 751              		.loc 1 123 0
 752 049a 4B8C     		ldrh	r3, [r1, #34]
 753 049c 1898     		ldr	r0, [sp, #96]
 754 049e 0F93     		str	r3, [sp, #60]
 755 04a0 2623     		mov	r3, #38
 756 04a2 C35E     		ldrsh	r3, [r0, r3]
 757 04a4 0D99     		ldr	r1, [sp, #52]
 758 04a6 5943     		mul	r1, r3
 759 04a8 C817     		asr	r0, r1, #31
 760 04aa 8C46     		mov	ip, r1
 761 04ac 010E     		lsr	r1, r0, #24
 762 04ae 8B46     		mov	fp, r1
 763 04b0 DC44     		add	ip, ip, fp
 764 04b2 0F99     		ldr	r1, [sp, #60]
 765 04b4 6046     		mov	r0, ip
 766 04b6 0012     		asr	r0, r0, #8
 767 04b8 8C46     		mov	ip, r1
 768 04ba 0E90     		str	r0, [sp, #56]
 769 04bc 8444     		add	ip, ip, r0
 770 04be 1B98     		ldr	r0, [sp, #108]
 771 04c0 6146     		mov	r1, ip
 772 04c2 4184     		strh	r1, [r0, #34]
 773              		.loc 1 124 0
 774 04c4 0698     		ldr	r0, [sp, #24]
 775 04c6 5843     		mul	r0, r3
 776 04c8 C117     		asr	r1, r0, #31
 777 04ca 8446     		mov	ip, r0
 778 04cc 080E     		lsr	r0, r1, #24
ARM GAS  C:\Users\asha\AppData\Local\Temp\ccstE6wQ.s 			page 17


 779 04ce 8346     		mov	fp, r0
 780 04d0 DC44     		add	ip, ip, fp
 781 04d2 1C98     		ldr	r0, [sp, #112]
 782 04d4 6146     		mov	r1, ip
 783 04d6 0912     		asr	r1, r1, #8
 784 04d8 4184     		strh	r1, [r0, #34]
 785              		.loc 1 126 0
 786 04da 0999     		ldr	r1, [sp, #36]
 787 04dc 0A98     		ldr	r0, [sp, #40]
 788 04de 401A     		sub	r0, r0, r1
 789 04e0 011C     		add	r1, r0, #0
 790 04e2 1B98     		ldr	r0, [sp, #108]
 791 04e4 8184     		strh	r1, [r0, #36]
 792              		.loc 1 127 0
 793 04e6 1099     		ldr	r1, [sp, #64]
 794 04e8 1C98     		ldr	r0, [sp, #112]
 795 04ea 521A     		sub	r2, r2, r1
 796 04ec 8284     		strh	r2, [r0, #36]
 797              		.loc 1 129 0
 798 04ee 0E99     		ldr	r1, [sp, #56]
 799 04f0 0F98     		ldr	r0, [sp, #60]
 800 04f2 421A     		sub	r2, r0, r1
 801 04f4 1B98     		ldr	r0, [sp, #108]
 802 04f6 C284     		strh	r2, [r0, #38]
 803              		.loc 1 130 0
 804 04f8 069A     		ldr	r2, [sp, #24]
 805 04fa 5842     		neg	r0, r3
 806 04fc 5043     		mul	r0, r2
 807 04fe C117     		asr	r1, r0, #31
 808 0500 0A0E     		lsr	r2, r1, #24
 809 0502 1318     		add	r3, r2, r0
 810 0504 1C99     		ldr	r1, [sp, #112]
 811 0506 1812     		asr	r0, r3, #8
 812 0508 C884     		strh	r0, [r1, #38]
 813              		.loc 1 120 0
 814 050a 189B     		ldr	r3, [sp, #96]
 815 050c 189A     		ldr	r2, [sp, #96]
 816 050e 198D     		ldrh	r1, [r3, #40]
 817 0510 0A91     		str	r1, [sp, #40]
 818 0512 908D     		ldrh	r0, [r2, #44]
 819 0514 1B9A     		ldr	r2, [sp, #108]
 820 0516 4318     		add	r3, r0, r1
 821              		.loc 1 121 0
 822 0518 2899     		ldr	r1, [sp, #160]
 823              		.loc 1 120 0
 824 051a 0990     		str	r0, [sp, #36]
 825 051c 1385     		strh	r3, [r2, #40]
 826              		.loc 1 121 0
 827 051e 888D     		ldrh	r0, [r1, #44]
 828 0520 0A8D     		ldrh	r2, [r1, #40]
 829 0522 1C9B     		ldr	r3, [sp, #112]
 830 0524 1090     		str	r0, [sp, #64]
 831 0526 8118     		add	r1, r0, r2
 832              		.loc 1 123 0
 833 0528 1898     		ldr	r0, [sp, #96]
 834              		.loc 1 121 0
 835 052a 1985     		strh	r1, [r3, #40]
ARM GAS  C:\Users\asha\AppData\Local\Temp\ccstE6wQ.s 			page 18


 836              		.loc 1 123 0
 837 052c 438D     		ldrh	r3, [r0, #42]
 838 052e 1899     		ldr	r1, [sp, #96]
 839 0530 0F93     		str	r3, [sp, #60]
 840 0532 2E23     		mov	r3, #46
 841 0534 CB5E     		ldrsh	r3, [r1, r3]
 842 0536 0D98     		ldr	r0, [sp, #52]
 843 0538 5843     		mul	r0, r3
 844 053a C117     		asr	r1, r0, #31
 845 053c 8446     		mov	ip, r0
 846 053e 080E     		lsr	r0, r1, #24
 847 0540 8346     		mov	fp, r0
 848 0542 DC44     		add	ip, ip, fp
 849 0544 0F98     		ldr	r0, [sp, #60]
 850 0546 6146     		mov	r1, ip
 851 0548 0912     		asr	r1, r1, #8
 852 054a 8446     		mov	ip, r0
 853 054c 8C44     		add	ip, ip, r1
 854 054e 0E91     		str	r1, [sp, #56]
 855 0550 1B99     		ldr	r1, [sp, #108]
 856 0552 6046     		mov	r0, ip
 857 0554 4885     		strh	r0, [r1, #42]
 858              		.loc 1 124 0
 859 0556 0699     		ldr	r1, [sp, #24]
 860 0558 5943     		mul	r1, r3
 861 055a C817     		asr	r0, r1, #31
 862 055c 8C46     		mov	ip, r1
 863 055e 010E     		lsr	r1, r0, #24
 864 0560 8B46     		mov	fp, r1
 865 0562 DC44     		add	ip, ip, fp
 866 0564 1C99     		ldr	r1, [sp, #112]
 867 0566 6046     		mov	r0, ip
 868 0568 0012     		asr	r0, r0, #8
 869 056a 4885     		strh	r0, [r1, #42]
 870              		.loc 1 126 0
 871 056c 0998     		ldr	r0, [sp, #36]
 872 056e 0A99     		ldr	r1, [sp, #40]
 873 0570 091A     		sub	r1, r1, r0
 874 0572 081C     		add	r0, r1, #0
 875 0574 1B99     		ldr	r1, [sp, #108]
 876 0576 8885     		strh	r0, [r1, #44]
 877              		.loc 1 127 0
 878 0578 1099     		ldr	r1, [sp, #64]
 879 057a 1C98     		ldr	r0, [sp, #112]
 880 057c 521A     		sub	r2, r2, r1
 881 057e 8285     		strh	r2, [r0, #44]
 882              		.loc 1 129 0
 883 0580 0F99     		ldr	r1, [sp, #60]
 884 0582 0E98     		ldr	r0, [sp, #56]
 885 0584 0A1A     		sub	r2, r1, r0
 886 0586 1B99     		ldr	r1, [sp, #108]
 887 0588 CA85     		strh	r2, [r1, #46]
 888              		.loc 1 130 0
 889 058a 069A     		ldr	r2, [sp, #24]
 890 058c 5942     		neg	r1, r3
 891 058e 5143     		mul	r1, r2
 892 0590 C817     		asr	r0, r1, #31
ARM GAS  C:\Users\asha\AppData\Local\Temp\ccstE6wQ.s 			page 19


 893 0592 020E     		lsr	r2, r0, #24
 894 0594 5318     		add	r3, r2, r1
 895 0596 1C99     		ldr	r1, [sp, #112]
 896 0598 1812     		asr	r0, r3, #8
 897              		.loc 1 120 0
 898 059a 189B     		ldr	r3, [sp, #96]
 899              		.loc 1 130 0
 900 059c C885     		strh	r0, [r1, #46]
 901              		.loc 1 120 0
 902 059e 198E     		ldrh	r1, [r3, #48]
 903 05a0 189A     		ldr	r2, [sp, #96]
 904 05a2 0A91     		str	r1, [sp, #40]
 905 05a4 908E     		ldrh	r0, [r2, #52]
 906 05a6 1B9A     		ldr	r2, [sp, #108]
 907 05a8 0990     		str	r0, [sp, #36]
 908 05aa 4318     		add	r3, r0, r1
 909              		.loc 1 121 0
 910 05ac 2898     		ldr	r0, [sp, #160]
 911              		.loc 1 120 0
 912 05ae 1386     		strh	r3, [r2, #48]
 913              		.loc 1 121 0
 914 05b0 028E     		ldrh	r2, [r0, #48]
 915 05b2 838E     		ldrh	r3, [r0, #52]
 916 05b4 1C98     		ldr	r0, [sp, #112]
 917 05b6 9918     		add	r1, r3, r2
 918 05b8 0186     		strh	r1, [r0, #48]
 919              		.loc 1 123 0
 920 05ba 1899     		ldr	r1, [sp, #96]
 921              		.loc 1 121 0
 922 05bc 1093     		str	r3, [sp, #64]
 923              		.loc 1 123 0
 924 05be 4B8E     		ldrh	r3, [r1, #50]
 925 05c0 1898     		ldr	r0, [sp, #96]
 926 05c2 0F93     		str	r3, [sp, #60]
 927 05c4 3623     		mov	r3, #54
 928 05c6 C35E     		ldrsh	r3, [r0, r3]
 929 05c8 0D99     		ldr	r1, [sp, #52]
 930 05ca 5943     		mul	r1, r3
 931 05cc C817     		asr	r0, r1, #31
 932 05ce 8C46     		mov	ip, r1
 933 05d0 010E     		lsr	r1, r0, #24
 934 05d2 8B46     		mov	fp, r1
 935 05d4 DC44     		add	ip, ip, fp
 936 05d6 0F99     		ldr	r1, [sp, #60]
 937 05d8 6046     		mov	r0, ip
 938 05da 0012     		asr	r0, r0, #8
 939 05dc 8C46     		mov	ip, r1
 940 05de 8444     		add	ip, ip, r0
 941 05e0 0E90     		str	r0, [sp, #56]
 942 05e2 1B98     		ldr	r0, [sp, #108]
 943 05e4 6146     		mov	r1, ip
 944 05e6 4186     		strh	r1, [r0, #50]
 945              		.loc 1 124 0
 946 05e8 0698     		ldr	r0, [sp, #24]
 947 05ea 5843     		mul	r0, r3
 948 05ec C117     		asr	r1, r0, #31
 949 05ee 8446     		mov	ip, r0
ARM GAS  C:\Users\asha\AppData\Local\Temp\ccstE6wQ.s 			page 20


 950 05f0 080E     		lsr	r0, r1, #24
 951 05f2 8346     		mov	fp, r0
 952 05f4 DC44     		add	ip, ip, fp
 953 05f6 6146     		mov	r1, ip
 954 05f8 1C98     		ldr	r0, [sp, #112]
 955 05fa 0912     		asr	r1, r1, #8
 956 05fc 4186     		strh	r1, [r0, #50]
 957              		.loc 1 126 0
 958 05fe 0999     		ldr	r1, [sp, #36]
 959 0600 0A98     		ldr	r0, [sp, #40]
 960 0602 401A     		sub	r0, r0, r1
 961 0604 011C     		add	r1, r0, #0
 962 0606 1B98     		ldr	r0, [sp, #108]
 963 0608 8186     		strh	r1, [r0, #52]
 964              		.loc 1 127 0
 965 060a 1099     		ldr	r1, [sp, #64]
 966 060c 1C98     		ldr	r0, [sp, #112]
 967 060e 521A     		sub	r2, r2, r1
 968 0610 8286     		strh	r2, [r0, #52]
 969              		.loc 1 129 0
 970 0612 0E99     		ldr	r1, [sp, #56]
 971 0614 0F98     		ldr	r0, [sp, #60]
 972 0616 421A     		sub	r2, r0, r1
 973 0618 1B98     		ldr	r0, [sp, #108]
 974 061a C286     		strh	r2, [r0, #54]
 975              		.loc 1 130 0
 976 061c 069A     		ldr	r2, [sp, #24]
 977 061e 5842     		neg	r0, r3
 978 0620 5043     		mul	r0, r2
 979 0622 C117     		asr	r1, r0, #31
 980 0624 0A0E     		lsr	r2, r1, #24
 981 0626 1318     		add	r3, r2, r0
 982 0628 1C99     		ldr	r1, [sp, #112]
 983 062a 1812     		asr	r0, r3, #8
 984              		.loc 1 120 0
 985 062c 189B     		ldr	r3, [sp, #96]
 986              		.loc 1 130 0
 987 062e C886     		strh	r0, [r1, #54]
 988              		.loc 1 120 0
 989 0630 198F     		ldrh	r1, [r3, #56]
 990 0632 189A     		ldr	r2, [sp, #96]
 991 0634 0A91     		str	r1, [sp, #40]
 992 0636 908F     		ldrh	r0, [r2, #60]
 993 0638 1B9A     		ldr	r2, [sp, #108]
 994 063a 4318     		add	r3, r0, r1
 995              		.loc 1 121 0
 996 063c 2899     		ldr	r1, [sp, #160]
 997              		.loc 1 120 0
 998 063e 1387     		strh	r3, [r2, #56]
 999 0640 0990     		str	r0, [sp, #36]
 1000              		.loc 1 121 0
 1001 0642 0A8F     		ldrh	r2, [r1, #56]
 1002 0644 888F     		ldrh	r0, [r1, #60]
 1003 0646 1C9B     		ldr	r3, [sp, #112]
 1004 0648 1090     		str	r0, [sp, #64]
 1005 064a 8118     		add	r1, r0, r2
 1006              		.loc 1 123 0
ARM GAS  C:\Users\asha\AppData\Local\Temp\ccstE6wQ.s 			page 21


 1007 064c 1898     		ldr	r0, [sp, #96]
 1008              		.loc 1 121 0
 1009 064e 1987     		strh	r1, [r3, #56]
 1010              		.loc 1 123 0
 1011 0650 438F     		ldrh	r3, [r0, #58]
 1012 0652 1899     		ldr	r1, [sp, #96]
 1013 0654 0F93     		str	r3, [sp, #60]
 1014 0656 3E23     		mov	r3, #62
 1015 0658 CB5E     		ldrsh	r3, [r1, r3]
 1016 065a 0D98     		ldr	r0, [sp, #52]
 1017 065c 5843     		mul	r0, r3
 1018 065e C117     		asr	r1, r0, #31
 1019 0660 8446     		mov	ip, r0
 1020 0662 080E     		lsr	r0, r1, #24
 1021 0664 8346     		mov	fp, r0
 1022 0666 DC44     		add	ip, ip, fp
 1023 0668 6146     		mov	r1, ip
 1024 066a 0912     		asr	r1, r1, #8
 1025 066c 0E91     		str	r1, [sp, #56]
 1026 066e 0F98     		ldr	r0, [sp, #60]
 1027 0670 8446     		mov	ip, r0
 1028 0672 8C44     		add	ip, ip, r1
 1029 0674 1B99     		ldr	r1, [sp, #108]
 1030 0676 6046     		mov	r0, ip
 1031 0678 4887     		strh	r0, [r1, #58]
 1032              		.loc 1 124 0
 1033 067a 0699     		ldr	r1, [sp, #24]
 1034 067c 5943     		mul	r1, r3
 1035 067e C817     		asr	r0, r1, #31
 1036 0680 8C46     		mov	ip, r1
 1037 0682 010E     		lsr	r1, r0, #24
 1038 0684 8B46     		mov	fp, r1
 1039 0686 DC44     		add	ip, ip, fp
 1040 0688 1C99     		ldr	r1, [sp, #112]
 1041 068a 6046     		mov	r0, ip
 1042 068c 0012     		asr	r0, r0, #8
 1043 068e 4887     		strh	r0, [r1, #58]
 1044              		.loc 1 126 0
 1045 0690 0998     		ldr	r0, [sp, #36]
 1046 0692 0A99     		ldr	r1, [sp, #40]
 1047 0694 091A     		sub	r1, r1, r0
 1048 0696 081C     		add	r0, r1, #0
 1049 0698 1B99     		ldr	r1, [sp, #108]
 1050 069a 8887     		strh	r0, [r1, #60]
 1051              		.loc 1 127 0
 1052 069c 1099     		ldr	r1, [sp, #64]
 1053 069e 1C98     		ldr	r0, [sp, #112]
 1054 06a0 521A     		sub	r2, r2, r1
 1055 06a2 8287     		strh	r2, [r0, #60]
 1056              		.loc 1 129 0
 1057 06a4 0F99     		ldr	r1, [sp, #60]
 1058 06a6 0E98     		ldr	r0, [sp, #56]
 1059 06a8 0A1A     		sub	r2, r1, r0
 1060 06aa 1B98     		ldr	r0, [sp, #108]
 1061              		.loc 1 130 0
 1062 06ac 0699     		ldr	r1, [sp, #24]
 1063              		.loc 1 129 0
ARM GAS  C:\Users\asha\AppData\Local\Temp\ccstE6wQ.s 			page 22


 1064 06ae C287     		strh	r2, [r0, #62]
 1065              		.loc 1 130 0
 1066 06b0 5842     		neg	r0, r3
 1067 06b2 4843     		mul	r0, r1
 1068 06b4 C217     		asr	r2, r0, #31
 1069 06b6 110E     		lsr	r1, r2, #24
 1070 06b8 0B18     		add	r3, r1, r0
 1071 06ba 1C99     		ldr	r1, [sp, #112]
 1072 06bc 1A12     		asr	r2, r3, #8
 1073              		.loc 1 120 0
 1074 06be 189B     		ldr	r3, [sp, #96]
 1075              		.loc 1 130 0
 1076 06c0 CA87     		strh	r2, [r1, #62]
 1077              		.loc 1 120 0
 1078 06c2 4020     		mov	r0, #64
 1079 06c4 195A     		ldrh	r1, [r3, r0]
 1080 06c6 189A     		ldr	r2, [sp, #96]
 1081 06c8 0A91     		str	r1, [sp, #40]
 1082 06ca 4423     		mov	r3, #68
 1083 06cc D05A     		ldrh	r0, [r2, r3]
 1084 06ce 0990     		str	r0, [sp, #36]
 1085 06d0 4218     		add	r2, r0, r1
 1086 06d2 1B98     		ldr	r0, [sp, #108]
 1087 06d4 4021     		mov	r1, #64
 1088 06d6 4252     		strh	r2, [r0, r1]
 1089              		.loc 1 121 0
 1090 06d8 289A     		ldr	r2, [sp, #160]
 1091 06da 525A     		ldrh	r2, [r2, r1]
 1092 06dc 2899     		ldr	r1, [sp, #160]
 1093 06de 0E92     		str	r2, [sp, #56]
 1094 06e0 C85A     		ldrh	r0, [r1, r3]
 1095 06e2 1090     		str	r0, [sp, #64]
 1096 06e4 1C99     		ldr	r1, [sp, #112]
 1097 06e6 8218     		add	r2, r0, r2
 1098 06e8 4020     		mov	r0, #64
 1099 06ea 0A52     		strh	r2, [r1, r0]
 1100              		.loc 1 123 0
 1101 06ec 1899     		ldr	r1, [sp, #96]
 1102 06ee 4220     		mov	r0, #66
 1103 06f0 0A5A     		ldrh	r2, [r1, r0]
 1104 06f2 4621     		mov	r1, #70
 1105 06f4 0F92     		str	r2, [sp, #60]
 1106 06f6 189A     		ldr	r2, [sp, #96]
 1107 06f8 525E     		ldrsh	r2, [r2, r1]
 1108 06fa 0D99     		ldr	r1, [sp, #52]
 1109 06fc 0C92     		str	r2, [sp, #48]
 1110 06fe 5143     		mul	r1, r2
 1111 0700 CA17     		asr	r2, r1, #31
 1112 0702 8C46     		mov	ip, r1
 1113 0704 110E     		lsr	r1, r2, #24
 1114 0706 8B46     		mov	fp, r1
 1115 0708 DC44     		add	ip, ip, fp
 1116 070a 0F99     		ldr	r1, [sp, #60]
 1117 070c 6246     		mov	r2, ip
 1118 070e 1212     		asr	r2, r2, #8
 1119 0710 8C46     		mov	ip, r1
 1120 0712 0B92     		str	r2, [sp, #44]
ARM GAS  C:\Users\asha\AppData\Local\Temp\ccstE6wQ.s 			page 23


 1121 0714 9444     		add	ip, ip, r2
 1122 0716 1B9A     		ldr	r2, [sp, #108]
 1123 0718 6146     		mov	r1, ip
 1124 071a 1152     		strh	r1, [r2, r0]
 1125              		.loc 1 124 0
 1126 071c 0C99     		ldr	r1, [sp, #48]
 1127 071e 069A     		ldr	r2, [sp, #24]
 1128 0720 4A43     		mul	r2, r1
 1129 0722 D117     		asr	r1, r2, #31
 1130 0724 9446     		mov	ip, r2
 1131 0726 0A0E     		lsr	r2, r1, #24
 1132 0728 9346     		mov	fp, r2
 1133 072a DC44     		add	ip, ip, fp
 1134 072c 1C99     		ldr	r1, [sp, #112]
 1135 072e 6246     		mov	r2, ip
 1136 0730 1212     		asr	r2, r2, #8
 1137 0732 0A52     		strh	r2, [r1, r0]
 1138              		.loc 1 126 0
 1139 0734 0A99     		ldr	r1, [sp, #40]
 1140 0736 099A     		ldr	r2, [sp, #36]
 1141 0738 881A     		sub	r0, r1, r2
 1142 073a 1B99     		ldr	r1, [sp, #108]
 1143              		.loc 1 127 0
 1144 073c 0E9A     		ldr	r2, [sp, #56]
 1145              		.loc 1 126 0
 1146 073e C852     		strh	r0, [r1, r3]
 1147              		.loc 1 127 0
 1148 0740 1099     		ldr	r1, [sp, #64]
 1149 0742 501A     		sub	r0, r2, r1
 1150 0744 1C9A     		ldr	r2, [sp, #112]
 1151              		.loc 1 129 0
 1152 0746 0B99     		ldr	r1, [sp, #44]
 1153              		.loc 1 127 0
 1154 0748 D052     		strh	r0, [r2, r3]
 1155              		.loc 1 129 0
 1156 074a 0F9A     		ldr	r2, [sp, #60]
 1157 074c 1B98     		ldr	r0, [sp, #108]
 1158 074e 531A     		sub	r3, r2, r1
 1159              		.loc 1 130 0
 1160 0750 0C9A     		ldr	r2, [sp, #48]
 1161              		.loc 1 129 0
 1162 0752 4621     		mov	r1, #70
 1163 0754 4352     		strh	r3, [r0, r1]
 1164              		.loc 1 130 0
 1165 0756 0698     		ldr	r0, [sp, #24]
 1166 0758 5142     		neg	r1, r2
 1167 075a 4143     		mul	r1, r0
 1168 075c CB17     		asr	r3, r1, #31
 1169 075e 1A0E     		lsr	r2, r3, #24
 1170 0760 5018     		add	r0, r2, r1
 1171 0762 1C9A     		ldr	r2, [sp, #112]
 1172 0764 0312     		asr	r3, r0, #8
 1173 0766 4621     		mov	r1, #70
 1174              		.loc 1 120 0
 1175 0768 1898     		ldr	r0, [sp, #96]
 1176              		.loc 1 130 0
 1177 076a 5352     		strh	r3, [r2, r1]
ARM GAS  C:\Users\asha\AppData\Local\Temp\ccstE6wQ.s 			page 24


 1178              		.loc 1 120 0
 1179 076c 4822     		mov	r2, #72
 1180 076e 835A     		ldrh	r3, [r0, r2]
 1181 0770 0A93     		str	r3, [sp, #40]
 1182 0772 1899     		ldr	r1, [sp, #96]
 1183 0774 4C23     		mov	r3, #76
 1184 0776 C85A     		ldrh	r0, [r1, r3]
 1185 0778 0990     		str	r0, [sp, #36]
 1186 077a 8346     		mov	fp, r0
 1187 077c 0A98     		ldr	r0, [sp, #40]
 1188 077e 8344     		add	fp, fp, r0
 1189 0780 1B98     		ldr	r0, [sp, #108]
 1190 0782 5946     		mov	r1, fp
 1191 0784 8152     		strh	r1, [r0, r2]
 1192              		.loc 1 121 0
 1193 0786 2898     		ldr	r0, [sp, #160]
 1194 0788 2899     		ldr	r1, [sp, #160]
 1195 078a 805A     		ldrh	r0, [r0, r2]
 1196 078c 0E90     		str	r0, [sp, #56]
 1197 078e C95A     		ldrh	r1, [r1, r3]
 1198 0790 8C46     		mov	ip, r1
 1199 0792 8444     		add	ip, ip, r0
 1200 0794 1C98     		ldr	r0, [sp, #112]
 1201 0796 1091     		str	r1, [sp, #64]
 1202 0798 6146     		mov	r1, ip
 1203 079a 8152     		strh	r1, [r0, r2]
 1204              		.loc 1 123 0
 1205 079c 189A     		ldr	r2, [sp, #96]
 1206 079e 4A20     		mov	r0, #74
 1207 07a0 115A     		ldrh	r1, [r2, r0]
 1208 07a2 4E22     		mov	r2, #78
 1209 07a4 0F91     		str	r1, [sp, #60]
 1210 07a6 1899     		ldr	r1, [sp, #96]
 1211 07a8 895E     		ldrsh	r1, [r1, r2]
 1212 07aa 0D9A     		ldr	r2, [sp, #52]
 1213 07ac 0C91     		str	r1, [sp, #48]
 1214 07ae 4A43     		mul	r2, r1
 1215 07b0 D117     		asr	r1, r2, #31
 1216 07b2 9446     		mov	ip, r2
 1217 07b4 0A0E     		lsr	r2, r1, #24
 1218 07b6 9346     		mov	fp, r2
 1219 07b8 DC44     		add	ip, ip, fp
 1220 07ba 0F9A     		ldr	r2, [sp, #60]
 1221 07bc 6146     		mov	r1, ip
 1222 07be 0912     		asr	r1, r1, #8
 1223 07c0 9446     		mov	ip, r2
 1224 07c2 8C44     		add	ip, ip, r1
 1225 07c4 0B91     		str	r1, [sp, #44]
 1226 07c6 1B99     		ldr	r1, [sp, #108]
 1227 07c8 6246     		mov	r2, ip
 1228 07ca 0A52     		strh	r2, [r1, r0]
 1229              		.loc 1 124 0
 1230 07cc 0C9A     		ldr	r2, [sp, #48]
 1231 07ce 0699     		ldr	r1, [sp, #24]
 1232 07d0 5143     		mul	r1, r2
 1233 07d2 CA17     		asr	r2, r1, #31
 1234 07d4 8C46     		mov	ip, r1
ARM GAS  C:\Users\asha\AppData\Local\Temp\ccstE6wQ.s 			page 25


 1235 07d6 110E     		lsr	r1, r2, #24
 1236 07d8 8B46     		mov	fp, r1
 1237 07da DC44     		add	ip, ip, fp
 1238 07dc 1C9A     		ldr	r2, [sp, #112]
 1239 07de 6146     		mov	r1, ip
 1240 07e0 0912     		asr	r1, r1, #8
 1241 07e2 1152     		strh	r1, [r2, r0]
 1242              		.loc 1 126 0
 1243 07e4 0A9A     		ldr	r2, [sp, #40]
 1244 07e6 0999     		ldr	r1, [sp, #36]
 1245 07e8 501A     		sub	r0, r2, r1
 1246 07ea 1B99     		ldr	r1, [sp, #108]
 1247              		.loc 1 127 0
 1248 07ec 109A     		ldr	r2, [sp, #64]
 1249              		.loc 1 126 0
 1250 07ee C852     		strh	r0, [r1, r3]
 1251              		.loc 1 127 0
 1252 07f0 0E99     		ldr	r1, [sp, #56]
 1253 07f2 881A     		sub	r0, r1, r2
 1254 07f4 1C99     		ldr	r1, [sp, #112]
 1255 07f6 C852     		strh	r0, [r1, r3]
 1256              		.loc 1 129 0
 1257 07f8 0F9A     		ldr	r2, [sp, #60]
 1258 07fa 0B98     		ldr	r0, [sp, #44]
 1259 07fc 1B99     		ldr	r1, [sp, #108]
 1260 07fe 131A     		sub	r3, r2, r0
 1261              		.loc 1 130 0
 1262 0800 0C98     		ldr	r0, [sp, #48]
 1263              		.loc 1 129 0
 1264 0802 4E22     		mov	r2, #78
 1265 0804 8B52     		strh	r3, [r1, r2]
 1266              		.loc 1 130 0
 1267 0806 069B     		ldr	r3, [sp, #24]
 1268 0808 4142     		neg	r1, r0
 1269 080a 5943     		mul	r1, r3
 1270 080c C817     		asr	r0, r1, #31
 1271 080e 030E     		lsr	r3, r0, #24
 1272 0810 5818     		add	r0, r3, r1
 1273 0812 1C99     		ldr	r1, [sp, #112]
 1274 0814 0312     		asr	r3, r0, #8
 1275              		.loc 1 120 0
 1276 0816 1898     		ldr	r0, [sp, #96]
 1277              		.loc 1 130 0
 1278 0818 8B52     		strh	r3, [r1, r2]
 1279              		.loc 1 120 0
 1280 081a 5022     		mov	r2, #80
 1281 081c 835A     		ldrh	r3, [r0, r2]
 1282 081e 1899     		ldr	r1, [sp, #96]
 1283 0820 0A93     		str	r3, [sp, #40]
 1284 0822 5423     		mov	r3, #84
 1285 0824 C85A     		ldrh	r0, [r1, r3]
 1286 0826 0990     		str	r0, [sp, #36]
 1287 0828 8346     		mov	fp, r0
 1288 082a 0A98     		ldr	r0, [sp, #40]
 1289 082c 8344     		add	fp, fp, r0
 1290 082e 1B98     		ldr	r0, [sp, #108]
 1291 0830 5946     		mov	r1, fp
ARM GAS  C:\Users\asha\AppData\Local\Temp\ccstE6wQ.s 			page 26


 1292 0832 8152     		strh	r1, [r0, r2]
 1293              		.loc 1 121 0
 1294 0834 2898     		ldr	r0, [sp, #160]
 1295 0836 2899     		ldr	r1, [sp, #160]
 1296 0838 805A     		ldrh	r0, [r0, r2]
 1297 083a 0E90     		str	r0, [sp, #56]
 1298 083c C95A     		ldrh	r1, [r1, r3]
 1299 083e 8C46     		mov	ip, r1
 1300 0840 8444     		add	ip, ip, r0
 1301 0842 1C98     		ldr	r0, [sp, #112]
 1302 0844 1091     		str	r1, [sp, #64]
 1303 0846 6146     		mov	r1, ip
 1304 0848 8152     		strh	r1, [r0, r2]
 1305              		.loc 1 123 0
 1306 084a 189A     		ldr	r2, [sp, #96]
 1307 084c 5220     		mov	r0, #82
 1308 084e 115A     		ldrh	r1, [r2, r0]
 1309 0850 5622     		mov	r2, #86
 1310 0852 0F91     		str	r1, [sp, #60]
 1311 0854 1899     		ldr	r1, [sp, #96]
 1312 0856 895E     		ldrsh	r1, [r1, r2]
 1313 0858 0D9A     		ldr	r2, [sp, #52]
 1314 085a 0C91     		str	r1, [sp, #48]
 1315 085c 4A43     		mul	r2, r1
 1316 085e D117     		asr	r1, r2, #31
 1317 0860 9446     		mov	ip, r2
 1318 0862 0A0E     		lsr	r2, r1, #24
 1319 0864 9346     		mov	fp, r2
 1320 0866 DC44     		add	ip, ip, fp
 1321 0868 0F9A     		ldr	r2, [sp, #60]
 1322 086a 6146     		mov	r1, ip
 1323 086c 0912     		asr	r1, r1, #8
 1324 086e 9446     		mov	ip, r2
 1325 0870 8C44     		add	ip, ip, r1
 1326 0872 0B91     		str	r1, [sp, #44]
 1327 0874 1B99     		ldr	r1, [sp, #108]
 1328 0876 6246     		mov	r2, ip
 1329 0878 0A52     		strh	r2, [r1, r0]
 1330              		.loc 1 124 0
 1331 087a 0C9A     		ldr	r2, [sp, #48]
 1332 087c 0699     		ldr	r1, [sp, #24]
 1333 087e 5143     		mul	r1, r2
 1334 0880 CA17     		asr	r2, r1, #31
 1335 0882 8C46     		mov	ip, r1
 1336 0884 110E     		lsr	r1, r2, #24
 1337 0886 8B46     		mov	fp, r1
 1338 0888 DC44     		add	ip, ip, fp
 1339 088a 1C9A     		ldr	r2, [sp, #112]
 1340 088c 6146     		mov	r1, ip
 1341 088e 0912     		asr	r1, r1, #8
 1342 0890 1152     		strh	r1, [r2, r0]
 1343              		.loc 1 126 0
 1344 0892 0A9A     		ldr	r2, [sp, #40]
 1345 0894 0999     		ldr	r1, [sp, #36]
 1346 0896 501A     		sub	r0, r2, r1
 1347 0898 1B99     		ldr	r1, [sp, #108]
 1348              		.loc 1 127 0
ARM GAS  C:\Users\asha\AppData\Local\Temp\ccstE6wQ.s 			page 27


 1349 089a 109A     		ldr	r2, [sp, #64]
 1350              		.loc 1 126 0
 1351 089c C852     		strh	r0, [r1, r3]
 1352              		.loc 1 127 0
 1353 089e 0E99     		ldr	r1, [sp, #56]
 1354 08a0 881A     		sub	r0, r1, r2
 1355 08a2 1C99     		ldr	r1, [sp, #112]
 1356              		.loc 1 129 0
 1357 08a4 0F9A     		ldr	r2, [sp, #60]
 1358              		.loc 1 127 0
 1359 08a6 C852     		strh	r0, [r1, r3]
 1360              		.loc 1 129 0
 1361 08a8 0B98     		ldr	r0, [sp, #44]
 1362 08aa 1B99     		ldr	r1, [sp, #108]
 1363 08ac 131A     		sub	r3, r2, r0
 1364 08ae 5622     		mov	r2, #86
 1365              		.loc 1 130 0
 1366 08b0 0C98     		ldr	r0, [sp, #48]
 1367              		.loc 1 129 0
 1368 08b2 8B52     		strh	r3, [r1, r2]
 1369              		.loc 1 130 0
 1370 08b4 069B     		ldr	r3, [sp, #24]
 1371 08b6 4142     		neg	r1, r0
 1372 08b8 5943     		mul	r1, r3
 1373 08ba C817     		asr	r0, r1, #31
 1374 08bc 030E     		lsr	r3, r0, #24
 1375 08be 5818     		add	r0, r3, r1
 1376 08c0 1C99     		ldr	r1, [sp, #112]
 1377 08c2 0312     		asr	r3, r0, #8
 1378              		.loc 1 120 0
 1379 08c4 1898     		ldr	r0, [sp, #96]
 1380              		.loc 1 130 0
 1381 08c6 8B52     		strh	r3, [r1, r2]
 1382              		.loc 1 120 0
 1383 08c8 5822     		mov	r2, #88
 1384 08ca 835A     		ldrh	r3, [r0, r2]
 1385 08cc 1899     		ldr	r1, [sp, #96]
 1386 08ce 0A93     		str	r3, [sp, #40]
 1387 08d0 5C23     		mov	r3, #92
 1388 08d2 C85A     		ldrh	r0, [r1, r3]
 1389 08d4 0990     		str	r0, [sp, #36]
 1390 08d6 8346     		mov	fp, r0
 1391 08d8 0A98     		ldr	r0, [sp, #40]
 1392 08da 8344     		add	fp, fp, r0
 1393 08dc 1B98     		ldr	r0, [sp, #108]
 1394 08de 5946     		mov	r1, fp
 1395 08e0 8152     		strh	r1, [r0, r2]
 1396              		.loc 1 121 0
 1397 08e2 2898     		ldr	r0, [sp, #160]
 1398 08e4 2899     		ldr	r1, [sp, #160]
 1399 08e6 805A     		ldrh	r0, [r0, r2]
 1400 08e8 0E90     		str	r0, [sp, #56]
 1401 08ea C95A     		ldrh	r1, [r1, r3]
 1402 08ec 8C46     		mov	ip, r1
 1403 08ee 1091     		str	r1, [sp, #64]
 1404 08f0 8444     		add	ip, ip, r0
 1405 08f2 1C98     		ldr	r0, [sp, #112]
ARM GAS  C:\Users\asha\AppData\Local\Temp\ccstE6wQ.s 			page 28


 1406 08f4 6146     		mov	r1, ip
 1407 08f6 8152     		strh	r1, [r0, r2]
 1408              		.loc 1 123 0
 1409 08f8 189A     		ldr	r2, [sp, #96]
 1410 08fa 5A20     		mov	r0, #90
 1411 08fc 115A     		ldrh	r1, [r2, r0]
 1412 08fe 5E22     		mov	r2, #94
 1413 0900 0F91     		str	r1, [sp, #60]
 1414 0902 1899     		ldr	r1, [sp, #96]
 1415 0904 895E     		ldrsh	r1, [r1, r2]
 1416 0906 0D9A     		ldr	r2, [sp, #52]
 1417 0908 0C91     		str	r1, [sp, #48]
 1418 090a 4A43     		mul	r2, r1
 1419 090c D117     		asr	r1, r2, #31
 1420 090e 9446     		mov	ip, r2
 1421 0910 0A0E     		lsr	r2, r1, #24
 1422 0912 9346     		mov	fp, r2
 1423 0914 DC44     		add	ip, ip, fp
 1424 0916 0F9A     		ldr	r2, [sp, #60]
 1425 0918 6146     		mov	r1, ip
 1426 091a 0912     		asr	r1, r1, #8
 1427 091c 9446     		mov	ip, r2
 1428 091e 0B91     		str	r1, [sp, #44]
 1429 0920 8C44     		add	ip, ip, r1
 1430 0922 1B99     		ldr	r1, [sp, #108]
 1431 0924 6246     		mov	r2, ip
 1432 0926 0A52     		strh	r2, [r1, r0]
 1433              		.loc 1 124 0
 1434 0928 0C9A     		ldr	r2, [sp, #48]
 1435 092a 0699     		ldr	r1, [sp, #24]
 1436 092c 5143     		mul	r1, r2
 1437 092e CA17     		asr	r2, r1, #31
 1438 0930 8C46     		mov	ip, r1
 1439 0932 110E     		lsr	r1, r2, #24
 1440 0934 8B46     		mov	fp, r1
 1441 0936 DC44     		add	ip, ip, fp
 1442 0938 1C9A     		ldr	r2, [sp, #112]
 1443 093a 6146     		mov	r1, ip
 1444 093c 0912     		asr	r1, r1, #8
 1445 093e 1152     		strh	r1, [r2, r0]
 1446              		.loc 1 126 0
 1447 0940 0A9A     		ldr	r2, [sp, #40]
 1448 0942 0999     		ldr	r1, [sp, #36]
 1449 0944 501A     		sub	r0, r2, r1
 1450 0946 1B99     		ldr	r1, [sp, #108]
 1451              		.loc 1 127 0
 1452 0948 109A     		ldr	r2, [sp, #64]
 1453              		.loc 1 126 0
 1454 094a C852     		strh	r0, [r1, r3]
 1455              		.loc 1 127 0
 1456 094c 0E99     		ldr	r1, [sp, #56]
 1457 094e 881A     		sub	r0, r1, r2
 1458 0950 1C99     		ldr	r1, [sp, #112]
 1459              		.loc 1 129 0
 1460 0952 0F9A     		ldr	r2, [sp, #60]
 1461              		.loc 1 127 0
 1462 0954 C852     		strh	r0, [r1, r3]
ARM GAS  C:\Users\asha\AppData\Local\Temp\ccstE6wQ.s 			page 29


 1463              		.loc 1 129 0
 1464 0956 0B98     		ldr	r0, [sp, #44]
 1465 0958 1B99     		ldr	r1, [sp, #108]
 1466 095a 131A     		sub	r3, r2, r0
 1467 095c 5E22     		mov	r2, #94
 1468              		.loc 1 130 0
 1469 095e 0C98     		ldr	r0, [sp, #48]
 1470              		.loc 1 129 0
 1471 0960 8B52     		strh	r3, [r1, r2]
 1472              		.loc 1 130 0
 1473 0962 069B     		ldr	r3, [sp, #24]
 1474 0964 4142     		neg	r1, r0
 1475 0966 5943     		mul	r1, r3
 1476 0968 C817     		asr	r0, r1, #31
 1477 096a 030E     		lsr	r3, r0, #24
 1478 096c 5818     		add	r0, r3, r1
 1479 096e 1C99     		ldr	r1, [sp, #112]
 1480 0970 0312     		asr	r3, r0, #8
 1481              		.loc 1 120 0
 1482 0972 1898     		ldr	r0, [sp, #96]
 1483              		.loc 1 130 0
 1484 0974 8B52     		strh	r3, [r1, r2]
 1485              		.loc 1 120 0
 1486 0976 6022     		mov	r2, #96
 1487 0978 835A     		ldrh	r3, [r0, r2]
 1488 097a 0A93     		str	r3, [sp, #40]
 1489 097c 1899     		ldr	r1, [sp, #96]
 1490 097e 6423     		mov	r3, #100
 1491 0980 C85A     		ldrh	r0, [r1, r3]
 1492 0982 0990     		str	r0, [sp, #36]
 1493 0984 8346     		mov	fp, r0
 1494 0986 0A98     		ldr	r0, [sp, #40]
 1495 0988 8344     		add	fp, fp, r0
 1496 098a 1B98     		ldr	r0, [sp, #108]
 1497 098c 5946     		mov	r1, fp
 1498 098e 8152     		strh	r1, [r0, r2]
 1499              		.loc 1 121 0
 1500 0990 2898     		ldr	r0, [sp, #160]
 1501 0992 2899     		ldr	r1, [sp, #160]
 1502 0994 805A     		ldrh	r0, [r0, r2]
 1503 0996 0E90     		str	r0, [sp, #56]
 1504 0998 C95A     		ldrh	r1, [r1, r3]
 1505 099a 8C46     		mov	ip, r1
 1506 099c 8444     		add	ip, ip, r0
 1507 099e 1C98     		ldr	r0, [sp, #112]
 1508 09a0 1091     		str	r1, [sp, #64]
 1509 09a2 6146     		mov	r1, ip
 1510 09a4 8152     		strh	r1, [r0, r2]
 1511              		.loc 1 123 0
 1512 09a6 189A     		ldr	r2, [sp, #96]
 1513 09a8 6220     		mov	r0, #98
 1514 09aa 115A     		ldrh	r1, [r2, r0]
 1515 09ac 6622     		mov	r2, #102
 1516 09ae 0F91     		str	r1, [sp, #60]
 1517 09b0 1899     		ldr	r1, [sp, #96]
 1518 09b2 895E     		ldrsh	r1, [r1, r2]
 1519 09b4 0D9A     		ldr	r2, [sp, #52]
ARM GAS  C:\Users\asha\AppData\Local\Temp\ccstE6wQ.s 			page 30


 1520 09b6 0C91     		str	r1, [sp, #48]
 1521 09b8 4A43     		mul	r2, r1
 1522 09ba D117     		asr	r1, r2, #31
 1523 09bc 9446     		mov	ip, r2
 1524 09be 0A0E     		lsr	r2, r1, #24
 1525 09c0 9346     		mov	fp, r2
 1526 09c2 DC44     		add	ip, ip, fp
 1527 09c4 0F9A     		ldr	r2, [sp, #60]
 1528 09c6 6146     		mov	r1, ip
 1529 09c8 0912     		asr	r1, r1, #8
 1530 09ca 9446     		mov	ip, r2
 1531 09cc 8C44     		add	ip, ip, r1
 1532 09ce 0B91     		str	r1, [sp, #44]
 1533 09d0 1B99     		ldr	r1, [sp, #108]
 1534 09d2 6246     		mov	r2, ip
 1535 09d4 0A52     		strh	r2, [r1, r0]
 1536              		.loc 1 124 0
 1537 09d6 0C9A     		ldr	r2, [sp, #48]
 1538 09d8 0699     		ldr	r1, [sp, #24]
 1539 09da 5143     		mul	r1, r2
 1540 09dc CA17     		asr	r2, r1, #31
 1541 09de 8C46     		mov	ip, r1
 1542 09e0 110E     		lsr	r1, r2, #24
 1543 09e2 8B46     		mov	fp, r1
 1544 09e4 DC44     		add	ip, ip, fp
 1545 09e6 1C9A     		ldr	r2, [sp, #112]
 1546 09e8 6146     		mov	r1, ip
 1547 09ea 0912     		asr	r1, r1, #8
 1548 09ec 1152     		strh	r1, [r2, r0]
 1549              		.loc 1 126 0
 1550 09ee 0A9A     		ldr	r2, [sp, #40]
 1551 09f0 0999     		ldr	r1, [sp, #36]
 1552 09f2 501A     		sub	r0, r2, r1
 1553 09f4 1B99     		ldr	r1, [sp, #108]
 1554              		.loc 1 127 0
 1555 09f6 109A     		ldr	r2, [sp, #64]
 1556              		.loc 1 126 0
 1557 09f8 C852     		strh	r0, [r1, r3]
 1558              		.loc 1 127 0
 1559 09fa 0E99     		ldr	r1, [sp, #56]
 1560 09fc 881A     		sub	r0, r1, r2
 1561 09fe 1C99     		ldr	r1, [sp, #112]
 1562 0a00 C852     		strh	r0, [r1, r3]
 1563              		.loc 1 129 0
 1564 0a02 0F9A     		ldr	r2, [sp, #60]
 1565 0a04 0B98     		ldr	r0, [sp, #44]
 1566 0a06 1B99     		ldr	r1, [sp, #108]
 1567 0a08 131A     		sub	r3, r2, r0
 1568 0a0a 6622     		mov	r2, #102
 1569              		.loc 1 130 0
 1570 0a0c 0C98     		ldr	r0, [sp, #48]
 1571              		.loc 1 129 0
 1572 0a0e 8B52     		strh	r3, [r1, r2]
 1573              		.loc 1 130 0
 1574 0a10 069B     		ldr	r3, [sp, #24]
 1575 0a12 4142     		neg	r1, r0
 1576 0a14 5943     		mul	r1, r3
ARM GAS  C:\Users\asha\AppData\Local\Temp\ccstE6wQ.s 			page 31


 1577 0a16 C817     		asr	r0, r1, #31
 1578 0a18 030E     		lsr	r3, r0, #24
 1579 0a1a 5818     		add	r0, r3, r1
 1580 0a1c 1C99     		ldr	r1, [sp, #112]
 1581 0a1e 0312     		asr	r3, r0, #8
 1582              		.loc 1 120 0
 1583 0a20 1898     		ldr	r0, [sp, #96]
 1584              		.loc 1 130 0
 1585 0a22 8B52     		strh	r3, [r1, r2]
 1586              		.loc 1 120 0
 1587 0a24 6822     		mov	r2, #104
 1588 0a26 835A     		ldrh	r3, [r0, r2]
 1589 0a28 1899     		ldr	r1, [sp, #96]
 1590 0a2a 0A93     		str	r3, [sp, #40]
 1591 0a2c 6C23     		mov	r3, #108
 1592 0a2e C85A     		ldrh	r0, [r1, r3]
 1593 0a30 0990     		str	r0, [sp, #36]
 1594 0a32 8346     		mov	fp, r0
 1595 0a34 0A98     		ldr	r0, [sp, #40]
 1596 0a36 8344     		add	fp, fp, r0
 1597 0a38 1B98     		ldr	r0, [sp, #108]
 1598 0a3a 5946     		mov	r1, fp
 1599 0a3c 8152     		strh	r1, [r0, r2]
 1600              		.loc 1 121 0
 1601 0a3e 2898     		ldr	r0, [sp, #160]
 1602 0a40 2899     		ldr	r1, [sp, #160]
 1603 0a42 805A     		ldrh	r0, [r0, r2]
 1604 0a44 0E90     		str	r0, [sp, #56]
 1605 0a46 C95A     		ldrh	r1, [r1, r3]
 1606 0a48 8C46     		mov	ip, r1
 1607 0a4a 8444     		add	ip, ip, r0
 1608 0a4c 1C98     		ldr	r0, [sp, #112]
 1609 0a4e 1091     		str	r1, [sp, #64]
 1610 0a50 6146     		mov	r1, ip
 1611 0a52 8152     		strh	r1, [r0, r2]
 1612              		.loc 1 123 0
 1613 0a54 189A     		ldr	r2, [sp, #96]
 1614 0a56 6A20     		mov	r0, #106
 1615 0a58 115A     		ldrh	r1, [r2, r0]
 1616 0a5a 6E22     		mov	r2, #110
 1617 0a5c 0F91     		str	r1, [sp, #60]
 1618 0a5e 1899     		ldr	r1, [sp, #96]
 1619 0a60 895E     		ldrsh	r1, [r1, r2]
 1620 0a62 0D9A     		ldr	r2, [sp, #52]
 1621 0a64 0B91     		str	r1, [sp, #44]
 1622 0a66 4A43     		mul	r2, r1
 1623 0a68 D117     		asr	r1, r2, #31
 1624 0a6a 9446     		mov	ip, r2
 1625 0a6c 0A0E     		lsr	r2, r1, #24
 1626 0a6e 9346     		mov	fp, r2
 1627 0a70 DC44     		add	ip, ip, fp
 1628 0a72 0F9A     		ldr	r2, [sp, #60]
 1629 0a74 6146     		mov	r1, ip
 1630 0a76 0912     		asr	r1, r1, #8
 1631 0a78 9446     		mov	ip, r2
 1632 0a7a 8C44     		add	ip, ip, r1
 1633 0a7c 1891     		str	r1, [sp, #96]
ARM GAS  C:\Users\asha\AppData\Local\Temp\ccstE6wQ.s 			page 32


 1634 0a7e 1B99     		ldr	r1, [sp, #108]
 1635 0a80 6246     		mov	r2, ip
 1636 0a82 0A52     		strh	r2, [r1, r0]
 1637              		.loc 1 124 0
 1638 0a84 0B9A     		ldr	r2, [sp, #44]
 1639 0a86 0699     		ldr	r1, [sp, #24]
 1640 0a88 5143     		mul	r1, r2
 1641 0a8a CA17     		asr	r2, r1, #31
 1642 0a8c 8C46     		mov	ip, r1
 1643 0a8e 110E     		lsr	r1, r2, #24
 1644 0a90 8B46     		mov	fp, r1
 1645 0a92 DC44     		add	ip, ip, fp
 1646 0a94 1C9A     		ldr	r2, [sp, #112]
 1647 0a96 6146     		mov	r1, ip
 1648 0a98 0912     		asr	r1, r1, #8
 1649 0a9a 1152     		strh	r1, [r2, r0]
 1650              		.loc 1 126 0
 1651 0a9c 0A9A     		ldr	r2, [sp, #40]
 1652 0a9e 0999     		ldr	r1, [sp, #36]
 1653 0aa0 501A     		sub	r0, r2, r1
 1654 0aa2 1B99     		ldr	r1, [sp, #108]
 1655              		.loc 1 127 0
 1656 0aa4 109A     		ldr	r2, [sp, #64]
 1657              		.loc 1 126 0
 1658 0aa6 C852     		strh	r0, [r1, r3]
 1659              		.loc 1 127 0
 1660 0aa8 0E99     		ldr	r1, [sp, #56]
 1661 0aaa 881A     		sub	r0, r1, r2
 1662 0aac 1C99     		ldr	r1, [sp, #112]
 1663              		.loc 1 129 0
 1664 0aae 0F9A     		ldr	r2, [sp, #60]
 1665              		.loc 1 127 0
 1666 0ab0 C852     		strh	r0, [r1, r3]
 1667              		.loc 1 129 0
 1668 0ab2 1898     		ldr	r0, [sp, #96]
 1669 0ab4 1B99     		ldr	r1, [sp, #108]
 1670 0ab6 131A     		sub	r3, r2, r0
 1671 0ab8 6E22     		mov	r2, #110
 1672              		.loc 1 130 0
 1673 0aba 0B98     		ldr	r0, [sp, #44]
 1674              		.loc 1 129 0
 1675 0abc 8B52     		strh	r3, [r1, r2]
 1676              		.loc 1 130 0
 1677 0abe 069B     		ldr	r3, [sp, #24]
 1678 0ac0 4142     		neg	r1, r0
 1679 0ac2 5943     		mul	r1, r3
 1680 0ac4 C817     		asr	r0, r1, #31
 1681 0ac6 030E     		lsr	r3, r0, #24
 1682 0ac8 5818     		add	r0, r3, r1
 1683 0aca 0112     		asr	r1, r0, #8
 1684              		.loc 1 120 0
 1685 0acc 4B46     		mov	r3, r9
 1686              		.loc 1 130 0
 1687 0ace B152     		strh	r1, [r6, r2]
 1688              		.loc 1 120 0
 1689 0ad0 1893     		str	r3, [sp, #96]
 1690              		.loc 1 130 0
ARM GAS  C:\Users\asha\AppData\Local\Temp\ccstE6wQ.s 			page 33


 1691 0ad2 1C96     		str	r6, [sp, #112]
 1692              		.loc 1 120 0
 1693 0ad4 7022     		mov	r2, #112
 1694 0ad6 4846     		mov	r0, r9
 1695 0ad8 805A     		ldrh	r0, [r0, r2]
 1696 0ada 7423     		mov	r3, #116
 1697 0adc 0A90     		str	r0, [sp, #40]
 1698 0ade 4946     		mov	r1, r9
 1699 0ae0 C95A     		ldrh	r1, [r1, r3]
 1700 0ae2 1B97     		str	r7, [sp, #108]
 1701 0ae4 8B46     		mov	fp, r1
 1702 0ae6 0991     		str	r1, [sp, #36]
 1703 0ae8 8344     		add	fp, fp, r0
 1704              		.loc 1 121 0
 1705 0aea EF49     		ldr	r1, .L49
 1706              		.loc 1 120 0
 1707 0aec 5846     		mov	r0, fp
 1708 0aee B852     		strh	r0, [r7, r2]
 1709              		.loc 1 121 0
 1710 0af0 2891     		str	r1, [sp, #160]
 1711 0af2 885A     		ldrh	r0, [r1, r2]
 1712 0af4 0E90     		str	r0, [sp, #56]
 1713 0af6 C95A     		ldrh	r1, [r1, r3]
 1714 0af8 8C46     		mov	ip, r1
 1715 0afa 8444     		add	ip, ip, r0
 1716 0afc 6046     		mov	r0, ip
 1717 0afe 1091     		str	r1, [sp, #64]
 1718 0b00 B052     		strh	r0, [r6, r2]
 1719              		.loc 1 123 0
 1720 0b02 4946     		mov	r1, r9
 1721 0b04 7220     		mov	r0, #114
 1722 0b06 0A5A     		ldrh	r2, [r1, r0]
 1723 0b08 7621     		mov	r1, #118
 1724 0b0a 0F92     		str	r2, [sp, #60]
 1725 0b0c 4A46     		mov	r2, r9
 1726 0b0e 525E     		ldrsh	r2, [r2, r1]
 1727 0b10 0D99     		ldr	r1, [sp, #52]
 1728 0b12 0C92     		str	r2, [sp, #48]
 1729 0b14 5143     		mul	r1, r2
 1730 0b16 CA17     		asr	r2, r1, #31
 1731 0b18 8C46     		mov	ip, r1
 1732 0b1a 110E     		lsr	r1, r2, #24
 1733 0b1c 8B46     		mov	fp, r1
 1734 0b1e DC44     		add	ip, ip, fp
 1735 0b20 0F99     		ldr	r1, [sp, #60]
 1736 0b22 6246     		mov	r2, ip
 1737 0b24 1212     		asr	r2, r2, #8
 1738 0b26 8C46     		mov	ip, r1
 1739 0b28 9444     		add	ip, ip, r2
 1740 0b2a 6146     		mov	r1, ip
 1741 0b2c 0B92     		str	r2, [sp, #44]
 1742 0b2e 3952     		strh	r1, [r7, r0]
 1743              		.loc 1 124 0
 1744 0b30 0C9A     		ldr	r2, [sp, #48]
 1745 0b32 0699     		ldr	r1, [sp, #24]
 1746 0b34 5143     		mul	r1, r2
 1747 0b36 CA17     		asr	r2, r1, #31
ARM GAS  C:\Users\asha\AppData\Local\Temp\ccstE6wQ.s 			page 34


 1748 0b38 8C46     		mov	ip, r1
 1749 0b3a 110E     		lsr	r1, r2, #24
 1750 0b3c 8B46     		mov	fp, r1
 1751 0b3e DC44     		add	ip, ip, fp
 1752 0b40 6146     		mov	r1, ip
 1753 0b42 0912     		asr	r1, r1, #8
 1754 0b44 3152     		strh	r1, [r6, r0]
 1755              		.loc 1 126 0
 1756 0b46 0A9A     		ldr	r2, [sp, #40]
 1757 0b48 0999     		ldr	r1, [sp, #36]
 1758 0b4a 501A     		sub	r0, r2, r1
 1759              		.loc 1 127 0
 1760 0b4c 0E9A     		ldr	r2, [sp, #56]
 1761 0b4e 1099     		ldr	r1, [sp, #64]
 1762              		.loc 1 126 0
 1763 0b50 F852     		strh	r0, [r7, r3]
 1764              		.loc 1 127 0
 1765 0b52 501A     		sub	r0, r2, r1
 1766 0b54 F052     		strh	r0, [r6, r3]
 1767              		.loc 1 129 0
 1768 0b56 0B99     		ldr	r1, [sp, #44]
 1769 0b58 0F98     		ldr	r0, [sp, #60]
 1770 0b5a 7622     		mov	r2, #118
 1771 0b5c 431A     		sub	r3, r0, r1
 1772 0b5e BB52     		strh	r3, [r7, r2]
 1773              		.loc 1 130 0
 1774 0b60 0C9B     		ldr	r3, [sp, #48]
 1775 0b62 0698     		ldr	r0, [sp, #24]
 1776 0b64 5A42     		neg	r2, r3
 1777 0b66 4243     		mul	r2, r0
 1778 0b68 D117     		asr	r1, r2, #31
 1779 0b6a 0B0E     		lsr	r3, r1, #24
 1780 0b6c 9818     		add	r0, r3, r2
 1781 0b6e 0112     		asr	r1, r0, #8
 1782 0b70 7622     		mov	r2, #118
 1783 0b72 B152     		strh	r1, [r6, r2]
 1784              		.loc 1 120 0
 1785 0b74 4B46     		mov	r3, r9
 1786 0b76 7822     		mov	r2, #120
 1787 0b78 9B5A     		ldrh	r3, [r3, r2]
 1788 0b7a 4846     		mov	r0, r9
 1789 0b7c 0A93     		str	r3, [sp, #40]
 1790 0b7e 7C23     		mov	r3, #124
 1791 0b80 C05A     		ldrh	r0, [r0, r3]
 1792 0b82 0A99     		ldr	r1, [sp, #40]
 1793 0b84 8346     		mov	fp, r0
 1794 0b86 8B44     		add	fp, fp, r1
 1795 0b88 0990     		str	r0, [sp, #36]
 1796              		.loc 1 121 0
 1797 0b8a C749     		ldr	r1, .L49
 1798              		.loc 1 120 0
 1799 0b8c 5846     		mov	r0, fp
 1800 0b8e B852     		strh	r0, [r7, r2]
 1801              		.loc 1 121 0
 1802 0b90 895A     		ldrh	r1, [r1, r2]
 1803 0b92 C548     		ldr	r0, .L49
 1804 0b94 0E91     		str	r1, [sp, #56]
ARM GAS  C:\Users\asha\AppData\Local\Temp\ccstE6wQ.s 			page 35


 1805 0b96 C05A     		ldrh	r0, [r0, r3]
 1806 0b98 8446     		mov	ip, r0
 1807 0b9a 8C44     		add	ip, ip, r1
 1808 0b9c 1090     		str	r0, [sp, #64]
 1809 0b9e 6046     		mov	r0, ip
 1810 0ba0 B052     		strh	r0, [r6, r2]
 1811              		.loc 1 123 0
 1812 0ba2 7A20     		mov	r0, #122
 1813 0ba4 4A46     		mov	r2, r9
 1814 0ba6 115A     		ldrh	r1, [r2, r0]
 1815 0ba8 7E22     		mov	r2, #126
 1816 0baa 0F91     		str	r1, [sp, #60]
 1817 0bac 4946     		mov	r1, r9
 1818 0bae 895E     		ldrsh	r1, [r1, r2]
 1819 0bb0 0D9A     		ldr	r2, [sp, #52]
 1820 0bb2 0B91     		str	r1, [sp, #44]
 1821 0bb4 4A43     		mul	r2, r1
 1822 0bb6 D117     		asr	r1, r2, #31
 1823 0bb8 9446     		mov	ip, r2
 1824 0bba 0A0E     		lsr	r2, r1, #24
 1825 0bbc 9346     		mov	fp, r2
 1826 0bbe DC44     		add	ip, ip, fp
 1827 0bc0 0F9A     		ldr	r2, [sp, #60]
 1828 0bc2 6146     		mov	r1, ip
 1829 0bc4 0912     		asr	r1, r1, #8
 1830 0bc6 9446     		mov	ip, r2
 1831 0bc8 8C44     		add	ip, ip, r1
 1832 0bca 6246     		mov	r2, ip
 1833 0bcc 0D91     		str	r1, [sp, #52]
 1834 0bce 3A52     		strh	r2, [r7, r0]
 1835              		.loc 1 124 0
 1836 0bd0 0B99     		ldr	r1, [sp, #44]
 1837 0bd2 069A     		ldr	r2, [sp, #24]
 1838 0bd4 4A43     		mul	r2, r1
 1839 0bd6 D117     		asr	r1, r2, #31
 1840 0bd8 9446     		mov	ip, r2
 1841 0bda 0A0E     		lsr	r2, r1, #24
 1842 0bdc 9346     		mov	fp, r2
 1843 0bde DC44     		add	ip, ip, fp
 1844 0be0 6246     		mov	r2, ip
 1845 0be2 1212     		asr	r2, r2, #8
 1846 0be4 3252     		strh	r2, [r6, r0]
 1847              		.loc 1 126 0
 1848 0be6 0A99     		ldr	r1, [sp, #40]
 1849 0be8 0998     		ldr	r0, [sp, #36]
 1850 0bea 0A1A     		sub	r2, r1, r0
 1851              		.loc 1 127 0
 1852 0bec 1098     		ldr	r0, [sp, #64]
 1853 0bee 0E99     		ldr	r1, [sp, #56]
 1854              		.loc 1 126 0
 1855 0bf0 FA52     		strh	r2, [r7, r3]
 1856              		.loc 1 127 0
 1857 0bf2 0A1A     		sub	r2, r1, r0
 1858 0bf4 F252     		strh	r2, [r6, r3]
 1859              		.loc 1 129 0
 1860 0bf6 0D98     		ldr	r0, [sp, #52]
 1861 0bf8 0F9A     		ldr	r2, [sp, #60]
ARM GAS  C:\Users\asha\AppData\Local\Temp\ccstE6wQ.s 			page 36


 1862 0bfa 7E21     		mov	r1, #126
 1863 0bfc 131A     		sub	r3, r2, r0
 1864              		.loc 1 130 0
 1865 0bfe 0B9A     		ldr	r2, [sp, #44]
 1866 0c00 0698     		ldr	r0, [sp, #24]
 1867              		.loc 1 129 0
 1868 0c02 7B52     		strh	r3, [r7, r1]
 1869              		.loc 1 130 0
 1870 0c04 5142     		neg	r1, r2
 1871 0c06 4143     		mul	r1, r0
 1872 0c08 CB17     		asr	r3, r1, #31
 1873 0c0a 1A0E     		lsr	r2, r3, #24
 1874 0c0c 5018     		add	r0, r2, r1
 1875 0c0e 0312     		asr	r3, r0, #8
 1876 0c10 7E22     		mov	r2, #126
 1877 0c12 B352     		strh	r3, [r6, r2]
 1878 0c14 A549     		ldr	r1, .L49+4
 1879 0c16 A64B     		ldr	r3, .L49+8
 1880 0c18 A348     		ldr	r0, .L49
 1881 0c1a A64A     		ldr	r2, .L49+12
 1882 0c1c 1091     		str	r1, [sp, #64]
 1883 0c1e 0D93     		str	r3, [sp, #52]
 1884 0c20 191C     		mov	r1, r3
 1885 0c22 A24B     		ldr	r3, .L49+4
 1886 0c24 0690     		str	r0, [sp, #24]
 1887 0c26 8346     		mov	fp, r0
 1888 0c28 0020     		mov	r0, #0
 1889 0c2a 0F92     		str	r2, [sp, #60]
 1890 0c2c 0E90     		str	r0, [sp, #56]
 1891 0c2e 1F93     		str	r3, [sp, #124]
 1892 0c30 2092     		str	r2, [sp, #128]
 1893 0c32 5846     		mov	r0, fp
 1894              	.L6:
 131:.\main.c      **** 		
 132:.\main.c      **** 		i = i + 4;
 133:.\main.c      **** 	}
 134:.\main.c      **** 	
 135:.\main.c      **** 	/* Third stage of FFT radix 2 implementation */
 136:.\main.c      **** 	for(i=0; i< NUM_FFT; )
 137:.\main.c      **** 	{
 138:.\main.c      **** 		
 139:.\main.c      **** 		for(j = 0; j< 4; j++)
 140:.\main.c      **** 		{
 141:.\main.c      **** 			interreal[j] = ((real1[i + j + 4] * twiddlereal[array0[j]]) - (img1[i + j + 4] * twiddleimg[arra
 1895              		.loc 1 141 0
 1896 0c34 1F9A     		ldr	r2, [sp, #124]
 1897 0c36 0823     		mov	r3, #8
 1898 0c38 D25E     		ldrsh	r2, [r2, r3]
 1899 0c3a 0C92     		str	r2, [sp, #48]
 1900 0c3c 5BAA     		add	r2, sp, #364
 1901 0c3e 1378     		ldrb	r3, [r2]
 1902 0c40 5A00     		lsl	r2, r3, #1
 1903 0c42 131C     		mov	r3, r2
 1904 0c44 5344     		add	r3, r3, sl
 1905 0c46 9346     		mov	fp, r2
 1906 0c48 0022     		mov	r2, #0
 1907 0c4a 9B5E     		ldrsh	r3, [r3, r2]
ARM GAS  C:\Users\asha\AppData\Local\Temp\ccstE6wQ.s 			page 37


 1908 0c4c 0B93     		str	r3, [sp, #44]
 1909 0c4e 209B     		ldr	r3, [sp, #128]
 1910 0c50 0822     		mov	r2, #8
 1911 0c52 9B5E     		ldrsh	r3, [r3, r2]
 1912 0c54 0A93     		str	r3, [sp, #40]
 1913 0c56 5B46     		mov	r3, fp
 1914 0c58 4344     		add	r3, r3, r8
 1915 0c5a 0022     		mov	r2, #0
 1916 0c5c 9B5E     		ldrsh	r3, [r3, r2]
 1917 0c5e 0B9A     		ldr	r2, [sp, #44]
 1918 0c60 0993     		str	r3, [sp, #36]
 1919 0c62 0C9B     		ldr	r3, [sp, #48]
 1920 0c64 5343     		mul	r3, r2
 1921 0c66 099A     		ldr	r2, [sp, #36]
 1922 0c68 9C46     		mov	ip, r3
 1923 0c6a 0A9B     		ldr	r3, [sp, #40]
 1924 0c6c 5343     		mul	r3, r2
 1925 0c6e 6246     		mov	r2, ip
 1926 0c70 D21A     		sub	r2, r2, r3
 1927 0c72 D317     		asr	r3, r2, #31
 1928 0c74 9446     		mov	ip, r2
 1929 0c76 1A0E     		lsr	r2, r3, #24
 1930 0c78 9346     		mov	fp, r2
 1931 0c7a DC44     		add	ip, ip, fp
 1932 0c7c 6346     		mov	r3, ip
 1933 0c7e 1B12     		asr	r3, r3, #8
 1934 0c80 1193     		str	r3, [sp, #68]
 1935 0c82 11AA     		add	r2, sp, #68
 1936 0c84 1388     		ldrh	r3, [r2]
 142:.\main.c      **** 			interimg[j] = ((real1[i + j + 4] * twiddleimg[array0[j]]) + (img1[i + j + 4] * twiddlereal[array
 1937              		.loc 1 142 0
 1938 0c86 0B9A     		ldr	r2, [sp, #44]
 1939              		.loc 1 141 0
 1940 0c88 2B80     		strh	r3, [r5]
 1941              		.loc 1 142 0
 1942 0c8a 0A9B     		ldr	r3, [sp, #40]
 1943 0c8c 5343     		mul	r3, r2
 1944 0c8e 099A     		ldr	r2, [sp, #36]
 1945 0c90 9C46     		mov	ip, r3
 1946 0c92 0C9B     		ldr	r3, [sp, #48]
 1947 0c94 5343     		mul	r3, r2
 1948 0c96 9B46     		mov	fp, r3
 1949 0c98 DC44     		add	ip, ip, fp
 1950 0c9a 6346     		mov	r3, ip
 1951 0c9c DA17     		asr	r2, r3, #31
 1952 0c9e 130E     		lsr	r3, r2, #24
 1953 0ca0 9B46     		mov	fp, r3
 1954 0ca2 DC44     		add	ip, ip, fp
 1955 0ca4 6246     		mov	r2, ip
 1956 0ca6 1312     		asr	r3, r2, #8
 1957 0ca8 1393     		str	r3, [sp, #76]
 1958 0caa 13AA     		add	r2, sp, #76
 1959 0cac 1388     		ldrh	r3, [r2]
 1960              		.loc 1 141 0
 1961 0cae 1F9A     		ldr	r2, [sp, #124]
 1962              		.loc 1 142 0
 1963 0cb0 2380     		strh	r3, [r4]
ARM GAS  C:\Users\asha\AppData\Local\Temp\ccstE6wQ.s 			page 38


 1964              		.loc 1 141 0
 1965 0cb2 0A23     		mov	r3, #10
 1966 0cb4 D25E     		ldrsh	r2, [r2, r3]
 1967 0cb6 0C92     		str	r2, [sp, #48]
 1968 0cb8 7F4A     		ldr	r2, .L49+16
 1969 0cba 6A44     		add	r2, r2, sp
 1970 0cbc 1378     		ldrb	r3, [r2]
 1971 0cbe 5A00     		lsl	r2, r3, #1
 1972 0cc0 131C     		mov	r3, r2
 1973 0cc2 5344     		add	r3, r3, sl
 1974 0cc4 9346     		mov	fp, r2
 1975 0cc6 0022     		mov	r2, #0
 1976 0cc8 9B5E     		ldrsh	r3, [r3, r2]
 1977 0cca 0B93     		str	r3, [sp, #44]
 1978 0ccc 209B     		ldr	r3, [sp, #128]
 1979 0cce 0A22     		mov	r2, #10
 1980 0cd0 9B5E     		ldrsh	r3, [r3, r2]
 1981 0cd2 0A93     		str	r3, [sp, #40]
 1982 0cd4 5B46     		mov	r3, fp
 1983 0cd6 4344     		add	r3, r3, r8
 1984 0cd8 0022     		mov	r2, #0
 1985 0cda 9B5E     		ldrsh	r3, [r3, r2]
 1986 0cdc 0B9A     		ldr	r2, [sp, #44]
 1987 0cde 0993     		str	r3, [sp, #36]
 1988 0ce0 0C9B     		ldr	r3, [sp, #48]
 1989 0ce2 5343     		mul	r3, r2
 1990 0ce4 099A     		ldr	r2, [sp, #36]
 1991 0ce6 9C46     		mov	ip, r3
 1992 0ce8 0A9B     		ldr	r3, [sp, #40]
 1993 0cea 5343     		mul	r3, r2
 1994 0cec 6246     		mov	r2, ip
 1995 0cee D21A     		sub	r2, r2, r3
 1996 0cf0 D317     		asr	r3, r2, #31
 1997 0cf2 9446     		mov	ip, r2
 1998 0cf4 1A0E     		lsr	r2, r3, #24
 1999 0cf6 9346     		mov	fp, r2
 2000 0cf8 DC44     		add	ip, ip, fp
 2001 0cfa 6346     		mov	r3, ip
 2002 0cfc 1B12     		asr	r3, r3, #8
 2003 0cfe 1493     		str	r3, [sp, #80]
 2004 0d00 14AA     		add	r2, sp, #80
 2005 0d02 1388     		ldrh	r3, [r2]
 2006              		.loc 1 142 0
 2007 0d04 0B9A     		ldr	r2, [sp, #44]
 2008              		.loc 1 141 0
 2009 0d06 6B80     		strh	r3, [r5, #2]
 2010              		.loc 1 142 0
 2011 0d08 0A9B     		ldr	r3, [sp, #40]
 2012 0d0a 5343     		mul	r3, r2
 2013 0d0c 099A     		ldr	r2, [sp, #36]
 2014 0d0e 9C46     		mov	ip, r3
 2015 0d10 0C9B     		ldr	r3, [sp, #48]
 2016 0d12 5343     		mul	r3, r2
 2017 0d14 9B46     		mov	fp, r3
 2018 0d16 DC44     		add	ip, ip, fp
 2019 0d18 6346     		mov	r3, ip
 2020 0d1a DA17     		asr	r2, r3, #31
ARM GAS  C:\Users\asha\AppData\Local\Temp\ccstE6wQ.s 			page 39


 2021 0d1c 130E     		lsr	r3, r2, #24
 2022 0d1e 9B46     		mov	fp, r3
 2023 0d20 DC44     		add	ip, ip, fp
 2024 0d22 6246     		mov	r2, ip
 2025 0d24 1312     		asr	r3, r2, #8
 2026 0d26 1593     		str	r3, [sp, #84]
 2027 0d28 15AA     		add	r2, sp, #84
 2028 0d2a 1388     		ldrh	r3, [r2]
 2029              		.loc 1 141 0
 2030 0d2c 1F9A     		ldr	r2, [sp, #124]
 2031              		.loc 1 142 0
 2032 0d2e 6380     		strh	r3, [r4, #2]
 2033              		.loc 1 141 0
 2034 0d30 0C23     		mov	r3, #12
 2035 0d32 D25E     		ldrsh	r2, [r2, r3]
 2036 0d34 B723     		mov	r3, #183
 2037 0d36 0C92     		str	r2, [sp, #48]
 2038 0d38 5A00     		lsl	r2, r3, #1
 2039 0d3a 6A44     		add	r2, r2, sp
 2040 0d3c 1378     		ldrb	r3, [r2]
 2041 0d3e 5A00     		lsl	r2, r3, #1
 2042 0d40 131C     		mov	r3, r2
 2043 0d42 5344     		add	r3, r3, sl
 2044 0d44 9346     		mov	fp, r2
 2045 0d46 0022     		mov	r2, #0
 2046 0d48 9B5E     		ldrsh	r3, [r3, r2]
 2047 0d4a 0B93     		str	r3, [sp, #44]
 2048 0d4c 209B     		ldr	r3, [sp, #128]
 2049 0d4e 0C22     		mov	r2, #12
 2050 0d50 9B5E     		ldrsh	r3, [r3, r2]
 2051 0d52 0A93     		str	r3, [sp, #40]
 2052 0d54 5B46     		mov	r3, fp
 2053 0d56 4344     		add	r3, r3, r8
 2054 0d58 0022     		mov	r2, #0
 2055 0d5a 9B5E     		ldrsh	r3, [r3, r2]
 2056 0d5c 0B9A     		ldr	r2, [sp, #44]
 2057 0d5e 0993     		str	r3, [sp, #36]
 2058 0d60 0C9B     		ldr	r3, [sp, #48]
 2059 0d62 5343     		mul	r3, r2
 2060 0d64 099A     		ldr	r2, [sp, #36]
 2061 0d66 9C46     		mov	ip, r3
 2062 0d68 0A9B     		ldr	r3, [sp, #40]
 2063 0d6a 5343     		mul	r3, r2
 2064 0d6c 6246     		mov	r2, ip
 2065 0d6e D21A     		sub	r2, r2, r3
 2066 0d70 D317     		asr	r3, r2, #31
 2067 0d72 9446     		mov	ip, r2
 2068 0d74 1A0E     		lsr	r2, r3, #24
 2069 0d76 9346     		mov	fp, r2
 2070 0d78 DC44     		add	ip, ip, fp
 2071 0d7a 6346     		mov	r3, ip
 2072 0d7c 1B12     		asr	r3, r3, #8
 2073 0d7e 1693     		str	r3, [sp, #88]
 2074 0d80 16AA     		add	r2, sp, #88
 2075 0d82 1388     		ldrh	r3, [r2]
 2076 0d84 AB80     		strh	r3, [r5, #4]
 2077              		.loc 1 142 0
ARM GAS  C:\Users\asha\AppData\Local\Temp\ccstE6wQ.s 			page 40


 2078 0d86 0B9A     		ldr	r2, [sp, #44]
 2079 0d88 0A9B     		ldr	r3, [sp, #40]
 2080 0d8a 5343     		mul	r3, r2
 2081 0d8c 099A     		ldr	r2, [sp, #36]
 2082 0d8e 9C46     		mov	ip, r3
 2083 0d90 0C9B     		ldr	r3, [sp, #48]
 2084 0d92 5343     		mul	r3, r2
 2085 0d94 9B46     		mov	fp, r3
 2086 0d96 DC44     		add	ip, ip, fp
 2087 0d98 6346     		mov	r3, ip
 2088 0d9a DA17     		asr	r2, r3, #31
 2089 0d9c 130E     		lsr	r3, r2, #24
 2090 0d9e 9B46     		mov	fp, r3
 2091 0da0 DC44     		add	ip, ip, fp
 2092 0da2 6246     		mov	r2, ip
 2093 0da4 1312     		asr	r3, r2, #8
 2094 0da6 1793     		str	r3, [sp, #92]
 2095 0da8 17AA     		add	r2, sp, #92
 2096 0daa 1388     		ldrh	r3, [r2]
 2097              		.loc 1 141 0
 2098 0dac 1F9A     		ldr	r2, [sp, #124]
 2099              		.loc 1 142 0
 2100 0dae A380     		strh	r3, [r4, #4]
 2101              		.loc 1 141 0
 2102 0db0 0E23     		mov	r3, #14
 2103 0db2 D25E     		ldrsh	r2, [r2, r3]
 2104 0db4 0C92     		str	r2, [sp, #48]
 2105 0db6 414A     		ldr	r2, .L49+20
 2106 0db8 6A44     		add	r2, r2, sp
 2107 0dba 1378     		ldrb	r3, [r2]
 2108 0dbc 5A00     		lsl	r2, r3, #1
 2109 0dbe 131C     		mov	r3, r2
 2110 0dc0 5344     		add	r3, r3, sl
 2111 0dc2 9346     		mov	fp, r2
 2112 0dc4 0022     		mov	r2, #0
 2113 0dc6 9B5E     		ldrsh	r3, [r3, r2]
 2114 0dc8 0B93     		str	r3, [sp, #44]
 2115 0dca 209B     		ldr	r3, [sp, #128]
 2116 0dcc 0E22     		mov	r2, #14
 2117 0dce 9B5E     		ldrsh	r3, [r3, r2]
 2118 0dd0 0A93     		str	r3, [sp, #40]
 2119 0dd2 5B46     		mov	r3, fp
 2120 0dd4 4344     		add	r3, r3, r8
 2121 0dd6 0022     		mov	r2, #0
 2122 0dd8 9B5E     		ldrsh	r3, [r3, r2]
 2123 0dda 0B9A     		ldr	r2, [sp, #44]
 2124 0ddc 0993     		str	r3, [sp, #36]
 2125 0dde 0C9B     		ldr	r3, [sp, #48]
 2126 0de0 5343     		mul	r3, r2
 2127 0de2 099A     		ldr	r2, [sp, #36]
 2128 0de4 9C46     		mov	ip, r3
 2129 0de6 0A9B     		ldr	r3, [sp, #40]
 2130 0de8 5343     		mul	r3, r2
 2131 0dea 6246     		mov	r2, ip
 2132 0dec D21A     		sub	r2, r2, r3
 2133 0dee D317     		asr	r3, r2, #31
 2134 0df0 9446     		mov	ip, r2
ARM GAS  C:\Users\asha\AppData\Local\Temp\ccstE6wQ.s 			page 41


 2135 0df2 1A0E     		lsr	r2, r3, #24
 2136 0df4 9346     		mov	fp, r2
 2137 0df6 DC44     		add	ip, ip, fp
 2138 0df8 6346     		mov	r3, ip
 2139 0dfa 1B12     		asr	r3, r3, #8
 2140 0dfc 9AB2     		uxth	r2, r3
 2141 0dfe 1292     		str	r2, [sp, #72]
 2142 0e00 12AB     		add	r3, sp, #72
 2143 0e02 1A88     		ldrh	r2, [r3]
 2144              		.loc 1 142 0
 2145 0e04 0B9B     		ldr	r3, [sp, #44]
 2146              		.loc 1 141 0
 2147 0e06 EA80     		strh	r2, [r5, #6]
 2148              		.loc 1 142 0
 2149 0e08 0A9A     		ldr	r2, [sp, #40]
 2150 0e0a 5A43     		mul	r2, r3
 2151 0e0c 099B     		ldr	r3, [sp, #36]
 2152 0e0e 9446     		mov	ip, r2
 2153 0e10 0C9A     		ldr	r2, [sp, #48]
 2154 0e12 5A43     		mul	r2, r3
 2155 0e14 9346     		mov	fp, r2
 2156 0e16 DC44     		add	ip, ip, fp
 2157 0e18 6246     		mov	r2, ip
 2158 0e1a D317     		asr	r3, r2, #31
 2159 0e1c 1A0E     		lsr	r2, r3, #24
 2160 0e1e 9346     		mov	fp, r2
 2161 0e20 E344     		add	fp, fp, ip
 2162 0e22 5B46     		mov	r3, fp
 2163 0e24 1B12     		asr	r3, r3, #8
 2164 0e26 9AB2     		uxth	r2, r3
 2165 0e28 9346     		mov	fp, r2
 2166 0e2a E280     		strh	r2, [r4, #6]
 143:.\main.c      **** 			
 144:.\main.c      **** 		}
 145:.\main.c      **** 		
 146:.\main.c      **** 		
 147:.\main.c      **** 		for(localcounter = 0; localcounter<4; localcounter++)
 148:.\main.c      **** 		{
 149:.\main.c      **** 			real0[i + localcounter] = real1[i + localcounter] + interreal[localcounter];
 2167              		.loc 1 149 0
 2168 0e2c 1F9B     		ldr	r3, [sp, #124]
 2169 0e2e 11AA     		add	r2, sp, #68
 2170 0e30 1288     		ldrh	r2, [r2]
 2171 0e32 1B88     		ldrh	r3, [r3]
 2172 0e34 9446     		mov	ip, r2
 2173 0e36 9C44     		add	ip, ip, r3
 2174 0e38 1992     		str	r2, [sp, #100]
 2175 0e3a 1D93     		str	r3, [sp, #116]
 2176 0e3c 6346     		mov	r3, ip
 2177 0e3e 0B80     		strh	r3, [r1]
 150:.\main.c      **** 			img0[i + localcounter] = img1[i + localcounter] + interimg[localcounter];
 2178              		.loc 1 150 0
 2179 0e40 13AA     		add	r2, sp, #76
 2180 0e42 209B     		ldr	r3, [sp, #128]
 2181 0e44 1288     		ldrh	r2, [r2]
 2182 0e46 1B88     		ldrh	r3, [r3]
 2183 0e48 9446     		mov	ip, r2
ARM GAS  C:\Users\asha\AppData\Local\Temp\ccstE6wQ.s 			page 42


 2184 0e4a 9C44     		add	ip, ip, r3
 2185 0e4c 1E93     		str	r3, [sp, #120]
 2186 0e4e 6346     		mov	r3, ip
 2187 0e50 0380     		strh	r3, [r0]
 2188 0e52 1192     		str	r2, [sp, #68]
 2189              		.loc 1 149 0
 2190 0e54 1F9B     		ldr	r3, [sp, #124]
 2191 0e56 14AA     		add	r2, sp, #80
 2192 0e58 1288     		ldrh	r2, [r2]
 2193 0e5a 5B88     		ldrh	r3, [r3, #2]
 2194 0e5c 9446     		mov	ip, r2
 2195 0e5e 9C44     		add	ip, ip, r3
 2196 0e60 1493     		str	r3, [sp, #80]
 2197 0e62 6346     		mov	r3, ip
 2198 0e64 4B80     		strh	r3, [r1, #2]
 2199 0e66 0C92     		str	r2, [sp, #48]
 2200              		.loc 1 150 0
 2201 0e68 209B     		ldr	r3, [sp, #128]
 2202 0e6a 15AA     		add	r2, sp, #84
 2203 0e6c 1288     		ldrh	r2, [r2]
 2204 0e6e 5B88     		ldrh	r3, [r3, #2]
 2205 0e70 9446     		mov	ip, r2
 2206 0e72 9C44     		add	ip, ip, r3
 2207 0e74 1593     		str	r3, [sp, #84]
 2208 0e76 6346     		mov	r3, ip
 2209 0e78 4380     		strh	r3, [r0, #2]
 2210 0e7a 0B92     		str	r2, [sp, #44]
 2211              		.loc 1 149 0
 2212 0e7c 1F9B     		ldr	r3, [sp, #124]
 2213 0e7e 16AA     		add	r2, sp, #88
 2214 0e80 1288     		ldrh	r2, [r2]
 2215 0e82 9B88     		ldrh	r3, [r3, #4]
 2216 0e84 9446     		mov	ip, r2
 2217 0e86 9C44     		add	ip, ip, r3
 2218 0e88 1693     		str	r3, [sp, #88]
 2219 0e8a 6346     		mov	r3, ip
 2220 0e8c 8B80     		strh	r3, [r1, #4]
 2221 0e8e 0A92     		str	r2, [sp, #40]
 2222              		.loc 1 150 0
 2223 0e90 209B     		ldr	r3, [sp, #128]
 2224 0e92 17AA     		add	r2, sp, #92
 2225 0e94 1288     		ldrh	r2, [r2]
 2226 0e96 9B88     		ldrh	r3, [r3, #4]
 2227 0e98 9446     		mov	ip, r2
 2228 0e9a 9C44     		add	ip, ip, r3
 2229 0e9c 1793     		str	r3, [sp, #92]
 2230 0e9e 6346     		mov	r3, ip
 2231 0ea0 8380     		strh	r3, [r0, #4]
 2232 0ea2 0992     		str	r2, [sp, #36]
 2233              		.loc 1 149 0
 2234 0ea4 1F9B     		ldr	r3, [sp, #124]
 2235 0ea6 0BE0     		b	.L50
 2236              	.L51:
 2237              		.align	2
 2238              	.L49:
 2239 0ea8 00000000 		.word	img0
 2240 0eac 00000000 		.word	real1
ARM GAS  C:\Users\asha\AppData\Local\Temp\ccstE6wQ.s 			page 43


 2241 0eb0 00000000 		.word	real0
 2242 0eb4 00000000 		.word	img1
 2243 0eb8 6D010000 		.word	365
 2244 0ebc 6F010000 		.word	367
 2245              	.L50:
 2246 0ec0 12AA     		add	r2, sp, #72
 2247 0ec2 1288     		ldrh	r2, [r2]
 2248 0ec4 DB88     		ldrh	r3, [r3, #6]
 2249 0ec6 9446     		mov	ip, r2
 2250 0ec8 9C44     		add	ip, ip, r3
 2251 0eca 1392     		str	r2, [sp, #76]
 2252 0ecc 1A93     		str	r3, [sp, #104]
 2253 0ece 6346     		mov	r3, ip
 2254 0ed0 CB80     		strh	r3, [r1, #6]
 2255              		.loc 1 150 0
 2256 0ed2 209B     		ldr	r3, [sp, #128]
 2257 0ed4 5A46     		mov	r2, fp
 2258 0ed6 DB88     		ldrh	r3, [r3, #6]
 2259 0ed8 92B2     		uxth	r2, r2
 2260 0eda 9B46     		mov	fp, r3
 2261 0edc 9446     		mov	ip, r2
 2262 0ede DC44     		add	ip, ip, fp
 2263 0ee0 1292     		str	r2, [sp, #72]
 2264 0ee2 6246     		mov	r2, ip
 2265 0ee4 C280     		strh	r2, [r0, #6]
 151:.\main.c      **** 		}
 152:.\main.c      **** 		 
 153:.\main.c      **** 		for(localcounter = 4; localcounter<8; localcounter++)
 154:.\main.c      **** 		{
 155:.\main.c      **** 			real0[i + localcounter] = real1[i + localcounter - 4] - interreal[localcounter % 4];
 2266              		.loc 1 155 0
 2267 0ee6 199B     		ldr	r3, [sp, #100]
 2268 0ee8 1D9A     		ldr	r2, [sp, #116]
 2269 0eea D21A     		sub	r2, r2, r3
 2270 0eec 0A81     		strh	r2, [r1, #8]
 156:.\main.c      **** 			img0[i + localcounter] = img1[i + localcounter - 4] - interimg[localcounter % 4];
 2271              		.loc 1 156 0
 2272 0eee 1E9B     		ldr	r3, [sp, #120]
 2273 0ef0 119A     		ldr	r2, [sp, #68]
 2274 0ef2 9B1A     		sub	r3, r3, r2
 2275 0ef4 0381     		strh	r3, [r0, #8]
 2276              		.loc 1 155 0
 2277 0ef6 149A     		ldr	r2, [sp, #80]
 2278 0ef8 0C9B     		ldr	r3, [sp, #48]
 2279 0efa D21A     		sub	r2, r2, r3
 2280 0efc 4A81     		strh	r2, [r1, #10]
 2281              		.loc 1 156 0
 2282 0efe 159B     		ldr	r3, [sp, #84]
 2283 0f00 0B9A     		ldr	r2, [sp, #44]
 2284 0f02 9B1A     		sub	r3, r3, r2
 2285 0f04 4381     		strh	r3, [r0, #10]
 2286              		.loc 1 155 0
 2287 0f06 169A     		ldr	r2, [sp, #88]
 2288 0f08 0A9B     		ldr	r3, [sp, #40]
 2289 0f0a D21A     		sub	r2, r2, r3
 2290 0f0c 8A81     		strh	r2, [r1, #12]
 2291              		.loc 1 156 0
ARM GAS  C:\Users\asha\AppData\Local\Temp\ccstE6wQ.s 			page 44


 2292 0f0e 179B     		ldr	r3, [sp, #92]
 2293 0f10 099A     		ldr	r2, [sp, #36]
 2294 0f12 9B1A     		sub	r3, r3, r2
 2295 0f14 8381     		strh	r3, [r0, #12]
 2296              		.loc 1 155 0
 2297 0f16 1A9A     		ldr	r2, [sp, #104]
 2298 0f18 139B     		ldr	r3, [sp, #76]
 2299 0f1a D21A     		sub	r2, r2, r3
 2300 0f1c CA81     		strh	r2, [r1, #14]
 2301              		.loc 1 156 0
 2302 0f1e 129A     		ldr	r2, [sp, #72]
 2303 0f20 5B46     		mov	r3, fp
 2304 0f22 9B1A     		sub	r3, r3, r2
 157:.\main.c      **** 		}
 158:.\main.c      **** 		i = i+8;
 2305              		.loc 1 158 0
 2306 0f24 0E9A     		ldr	r2, [sp, #56]
 2307              		.loc 1 156 0
 2308 0f26 C381     		strh	r3, [r0, #14]
 2309              		.loc 1 158 0
 2310 0f28 9446     		mov	ip, r2
 2311 0f2a 0823     		mov	r3, #8
 2312 0f2c 9C44     		add	ip, ip, r3
 2313 0f2e 6246     		mov	r2, ip
 2314 0f30 D3B2     		uxtb	r3, r2
 2315 0f32 0E93     		str	r3, [sp, #56]
 2316 0f34 1F9A     		ldr	r2, [sp, #124]
 2317 0f36 209B     		ldr	r3, [sp, #128]
 2318 0f38 1032     		add	r2, r2, #16
 2319 0f3a 1033     		add	r3, r3, #16
 2320 0f3c 1F92     		str	r2, [sp, #124]
 2321 0f3e 2093     		str	r3, [sp, #128]
 2322              		.loc 1 136 0
 2323 0f40 0E9A     		ldr	r2, [sp, #56]
 2324              		.loc 1 158 0
 2325 0f42 1031     		add	r1, r1, #16
 2326 0f44 1030     		add	r0, r0, #16
 2327              		.loc 1 136 0
 2328 0f46 402A     		cmp	r2, #64
 2329 0f48 00D0     		beq	.LCB1975
 2330 0f4a 73E6     		b	.L6	@long jump
 2331              	.LCB1975:
 2332 0f4c F64B     		ldr	r3, .L52
 2333 0f4e F74A     		ldr	r2, .L52+4
 2334 0f50 9C46     		mov	ip, r3
 2335 0f52 F74B     		ldr	r3, .L52+8
 2336 0f54 0020     		mov	r0, #0
 2337 0f56 F749     		ldr	r1, .L52+12
 2338 0f58 0E90     		str	r0, [sp, #56]
 2339 0f5a 3093     		str	r3, [sp, #192]
 2340 0f5c 3192     		str	r2, [sp, #196]
 2341 0f5e 6046     		mov	r0, ip
 2342              	.L7:
 159:.\main.c      **** 	}
 160:.\main.c      **** 	
 161:.\main.c      **** 	/* Fourth stage of FFT radix 2 implementation */
 162:.\main.c      **** 	for(i=0; i< NUM_FFT;  )
ARM GAS  C:\Users\asha\AppData\Local\Temp\ccstE6wQ.s 			page 45


 163:.\main.c      **** 	{
 164:.\main.c      **** 		
 165:.\main.c      **** 		for(j = 0; j< 8; j++)
 166:.\main.c      **** 		{
 167:.\main.c      **** 			interreal[j] = ((real0[i + j + 8] * twiddlereal[array[j]]) - (img0[i + j + 8] * twiddleimg[array
 2343              		.loc 1 167 0
 2344 0f60 309A     		ldr	r2, [sp, #192]
 2345 0f62 1023     		mov	r3, #16
 2346 0f64 D25E     		ldrsh	r2, [r2, r3]
 2347 0f66 0C92     		str	r2, [sp, #48]
 2348 0f68 59AA     		add	r2, sp, #356
 2349 0f6a 1378     		ldrb	r3, [r2]
 2350 0f6c 5A00     		lsl	r2, r3, #1
 2351 0f6e 131C     		mov	r3, r2
 2352 0f70 5344     		add	r3, r3, sl
 2353 0f72 9346     		mov	fp, r2
 2354 0f74 0022     		mov	r2, #0
 2355 0f76 9B5E     		ldrsh	r3, [r3, r2]
 2356 0f78 0B93     		str	r3, [sp, #44]
 2357 0f7a 319B     		ldr	r3, [sp, #196]
 2358 0f7c 1022     		mov	r2, #16
 2359 0f7e 9B5E     		ldrsh	r3, [r3, r2]
 2360 0f80 0A93     		str	r3, [sp, #40]
 2361 0f82 5B46     		mov	r3, fp
 2362 0f84 4344     		add	r3, r3, r8
 2363 0f86 0022     		mov	r2, #0
 2364 0f88 9B5E     		ldrsh	r3, [r3, r2]
 2365 0f8a 0B9A     		ldr	r2, [sp, #44]
 2366 0f8c 0993     		str	r3, [sp, #36]
 2367 0f8e 0C9B     		ldr	r3, [sp, #48]
 2368 0f90 5343     		mul	r3, r2
 2369 0f92 099A     		ldr	r2, [sp, #36]
 2370 0f94 9C46     		mov	ip, r3
 2371 0f96 0A9B     		ldr	r3, [sp, #40]
 2372 0f98 5343     		mul	r3, r2
 2373 0f9a 6246     		mov	r2, ip
 2374 0f9c D21A     		sub	r2, r2, r3
 2375 0f9e D317     		asr	r3, r2, #31
 2376 0fa0 9446     		mov	ip, r2
 2377 0fa2 1A0E     		lsr	r2, r3, #24
 2378 0fa4 9346     		mov	fp, r2
 2379 0fa6 DC44     		add	ip, ip, fp
 2380 0fa8 6346     		mov	r3, ip
 2381 0faa 1B12     		asr	r3, r3, #8
 2382 0fac 1193     		str	r3, [sp, #68]
 2383 0fae 11AA     		add	r2, sp, #68
 2384 0fb0 1388     		ldrh	r3, [r2]
 168:.\main.c      **** 			interimg[j] = ((real0[i + j + 8] * twiddleimg[array[j]]) + (img0[i + j + 8] * twiddlereal[array[
 2385              		.loc 1 168 0
 2386 0fb2 0B9A     		ldr	r2, [sp, #44]
 2387              		.loc 1 167 0
 2388 0fb4 2B80     		strh	r3, [r5]
 2389              		.loc 1 168 0
 2390 0fb6 0A9B     		ldr	r3, [sp, #40]
 2391 0fb8 5343     		mul	r3, r2
 2392 0fba 099A     		ldr	r2, [sp, #36]
 2393 0fbc 9C46     		mov	ip, r3
ARM GAS  C:\Users\asha\AppData\Local\Temp\ccstE6wQ.s 			page 46


 2394 0fbe 0C9B     		ldr	r3, [sp, #48]
 2395 0fc0 5343     		mul	r3, r2
 2396 0fc2 9B46     		mov	fp, r3
 2397 0fc4 DC44     		add	ip, ip, fp
 2398 0fc6 6346     		mov	r3, ip
 2399 0fc8 DA17     		asr	r2, r3, #31
 2400 0fca 130E     		lsr	r3, r2, #24
 2401 0fcc 9B46     		mov	fp, r3
 2402 0fce DC44     		add	ip, ip, fp
 2403 0fd0 6246     		mov	r2, ip
 2404 0fd2 1312     		asr	r3, r2, #8
 2405 0fd4 1993     		str	r3, [sp, #100]
 2406 0fd6 19AA     		add	r2, sp, #100
 2407 0fd8 1388     		ldrh	r3, [r2]
 2408              		.loc 1 167 0
 2409 0fda 309A     		ldr	r2, [sp, #192]
 2410              		.loc 1 168 0
 2411 0fdc 2380     		strh	r3, [r4]
 2412              		.loc 1 167 0
 2413 0fde 1223     		mov	r3, #18
 2414 0fe0 D25E     		ldrsh	r2, [r2, r3]
 2415 0fe2 0C92     		str	r2, [sp, #48]
 2416 0fe4 D44A     		ldr	r2, .L52+16
 2417 0fe6 6A44     		add	r2, r2, sp
 2418 0fe8 1378     		ldrb	r3, [r2]
 2419 0fea 5A00     		lsl	r2, r3, #1
 2420 0fec 131C     		mov	r3, r2
 2421 0fee 5344     		add	r3, r3, sl
 2422 0ff0 9346     		mov	fp, r2
 2423 0ff2 0022     		mov	r2, #0
 2424 0ff4 9B5E     		ldrsh	r3, [r3, r2]
 2425 0ff6 0B93     		str	r3, [sp, #44]
 2426 0ff8 319B     		ldr	r3, [sp, #196]
 2427 0ffa 1222     		mov	r2, #18
 2428 0ffc 9B5E     		ldrsh	r3, [r3, r2]
 2429 0ffe 0A93     		str	r3, [sp, #40]
 2430 1000 5B46     		mov	r3, fp
 2431 1002 4344     		add	r3, r3, r8
 2432 1004 0022     		mov	r2, #0
 2433 1006 9B5E     		ldrsh	r3, [r3, r2]
 2434 1008 0B9A     		ldr	r2, [sp, #44]
 2435 100a 0993     		str	r3, [sp, #36]
 2436 100c 0C9B     		ldr	r3, [sp, #48]
 2437 100e 5343     		mul	r3, r2
 2438 1010 099A     		ldr	r2, [sp, #36]
 2439 1012 9C46     		mov	ip, r3
 2440 1014 0A9B     		ldr	r3, [sp, #40]
 2441 1016 5343     		mul	r3, r2
 2442 1018 6246     		mov	r2, ip
 2443 101a D21A     		sub	r2, r2, r3
 2444 101c D317     		asr	r3, r2, #31
 2445 101e 9446     		mov	ip, r2
 2446 1020 1A0E     		lsr	r2, r3, #24
 2447 1022 9346     		mov	fp, r2
 2448 1024 DC44     		add	ip, ip, fp
 2449 1026 6346     		mov	r3, ip
 2450 1028 1B12     		asr	r3, r3, #8
ARM GAS  C:\Users\asha\AppData\Local\Temp\ccstE6wQ.s 			page 47


 2451 102a 1293     		str	r3, [sp, #72]
 2452 102c 12AA     		add	r2, sp, #72
 2453 102e 1388     		ldrh	r3, [r2]
 2454              		.loc 1 168 0
 2455 1030 0B9A     		ldr	r2, [sp, #44]
 2456              		.loc 1 167 0
 2457 1032 6B80     		strh	r3, [r5, #2]
 2458              		.loc 1 168 0
 2459 1034 0A9B     		ldr	r3, [sp, #40]
 2460 1036 5343     		mul	r3, r2
 2461 1038 099A     		ldr	r2, [sp, #36]
 2462 103a 9C46     		mov	ip, r3
 2463 103c 0C9B     		ldr	r3, [sp, #48]
 2464 103e 5343     		mul	r3, r2
 2465 1040 9B46     		mov	fp, r3
 2466 1042 DC44     		add	ip, ip, fp
 2467 1044 6346     		mov	r3, ip
 2468 1046 DA17     		asr	r2, r3, #31
 2469 1048 130E     		lsr	r3, r2, #24
 2470 104a 9B46     		mov	fp, r3
 2471 104c DC44     		add	ip, ip, fp
 2472 104e 6246     		mov	r2, ip
 2473 1050 1312     		asr	r3, r2, #8
 2474 1052 1393     		str	r3, [sp, #76]
 2475 1054 13AA     		add	r2, sp, #76
 2476 1056 1388     		ldrh	r3, [r2]
 2477              		.loc 1 167 0
 2478 1058 309A     		ldr	r2, [sp, #192]
 2479              		.loc 1 168 0
 2480 105a 6380     		strh	r3, [r4, #2]
 2481              		.loc 1 167 0
 2482 105c 1423     		mov	r3, #20
 2483 105e D25E     		ldrsh	r2, [r2, r3]
 2484 1060 B323     		mov	r3, #179
 2485 1062 0C92     		str	r2, [sp, #48]
 2486 1064 5A00     		lsl	r2, r3, #1
 2487 1066 6A44     		add	r2, r2, sp
 2488 1068 1378     		ldrb	r3, [r2]
 2489 106a 5A00     		lsl	r2, r3, #1
 2490 106c 131C     		mov	r3, r2
 2491 106e 5344     		add	r3, r3, sl
 2492 1070 9346     		mov	fp, r2
 2493 1072 0022     		mov	r2, #0
 2494 1074 9B5E     		ldrsh	r3, [r3, r2]
 2495 1076 0B93     		str	r3, [sp, #44]
 2496 1078 319B     		ldr	r3, [sp, #196]
 2497 107a 1422     		mov	r2, #20
 2498 107c 9B5E     		ldrsh	r3, [r3, r2]
 2499 107e 0A93     		str	r3, [sp, #40]
 2500 1080 5B46     		mov	r3, fp
 2501 1082 4344     		add	r3, r3, r8
 2502 1084 0022     		mov	r2, #0
 2503 1086 9B5E     		ldrsh	r3, [r3, r2]
 2504 1088 0B9A     		ldr	r2, [sp, #44]
 2505 108a 0993     		str	r3, [sp, #36]
 2506 108c 0C9B     		ldr	r3, [sp, #48]
 2507 108e 5343     		mul	r3, r2
ARM GAS  C:\Users\asha\AppData\Local\Temp\ccstE6wQ.s 			page 48


 2508 1090 099A     		ldr	r2, [sp, #36]
 2509 1092 9C46     		mov	ip, r3
 2510 1094 0A9B     		ldr	r3, [sp, #40]
 2511 1096 5343     		mul	r3, r2
 2512 1098 6246     		mov	r2, ip
 2513 109a D21A     		sub	r2, r2, r3
 2514 109c D317     		asr	r3, r2, #31
 2515 109e 9446     		mov	ip, r2
 2516 10a0 1A0E     		lsr	r2, r3, #24
 2517 10a2 9346     		mov	fp, r2
 2518 10a4 DC44     		add	ip, ip, fp
 2519 10a6 6346     		mov	r3, ip
 2520 10a8 1B12     		asr	r3, r3, #8
 2521 10aa 1493     		str	r3, [sp, #80]
 2522 10ac 14AA     		add	r2, sp, #80
 2523 10ae 1388     		ldrh	r3, [r2]
 2524 10b0 AB80     		strh	r3, [r5, #4]
 2525              		.loc 1 168 0
 2526 10b2 0B9A     		ldr	r2, [sp, #44]
 2527 10b4 0A9B     		ldr	r3, [sp, #40]
 2528 10b6 5343     		mul	r3, r2
 2529 10b8 099A     		ldr	r2, [sp, #36]
 2530 10ba 9C46     		mov	ip, r3
 2531 10bc 0C9B     		ldr	r3, [sp, #48]
 2532 10be 5343     		mul	r3, r2
 2533 10c0 9B46     		mov	fp, r3
 2534 10c2 DC44     		add	ip, ip, fp
 2535 10c4 6346     		mov	r3, ip
 2536 10c6 DA17     		asr	r2, r3, #31
 2537 10c8 130E     		lsr	r3, r2, #24
 2538 10ca 9B46     		mov	fp, r3
 2539 10cc DC44     		add	ip, ip, fp
 2540 10ce 6246     		mov	r2, ip
 2541 10d0 1312     		asr	r3, r2, #8
 2542 10d2 1F93     		str	r3, [sp, #124]
 2543 10d4 1FAA     		add	r2, sp, #124
 2544 10d6 1388     		ldrh	r3, [r2]
 2545              		.loc 1 167 0
 2546 10d8 309A     		ldr	r2, [sp, #192]
 2547              		.loc 1 168 0
 2548 10da A380     		strh	r3, [r4, #4]
 2549              		.loc 1 167 0
 2550 10dc 1623     		mov	r3, #22
 2551 10de D25E     		ldrsh	r2, [r2, r3]
 2552 10e0 0C92     		str	r2, [sp, #48]
 2553 10e2 964A     		ldr	r2, .L52+20
 2554 10e4 6A44     		add	r2, r2, sp
 2555 10e6 1378     		ldrb	r3, [r2]
 2556 10e8 5A00     		lsl	r2, r3, #1
 2557 10ea 131C     		mov	r3, r2
 2558 10ec 5344     		add	r3, r3, sl
 2559 10ee 9346     		mov	fp, r2
 2560 10f0 0022     		mov	r2, #0
 2561 10f2 9B5E     		ldrsh	r3, [r3, r2]
 2562 10f4 0B93     		str	r3, [sp, #44]
 2563 10f6 319B     		ldr	r3, [sp, #196]
 2564 10f8 1622     		mov	r2, #22
ARM GAS  C:\Users\asha\AppData\Local\Temp\ccstE6wQ.s 			page 49


 2565 10fa 9B5E     		ldrsh	r3, [r3, r2]
 2566 10fc 0A93     		str	r3, [sp, #40]
 2567 10fe 5B46     		mov	r3, fp
 2568 1100 4344     		add	r3, r3, r8
 2569 1102 0022     		mov	r2, #0
 2570 1104 9B5E     		ldrsh	r3, [r3, r2]
 2571 1106 0B9A     		ldr	r2, [sp, #44]
 2572 1108 0993     		str	r3, [sp, #36]
 2573 110a 0C9B     		ldr	r3, [sp, #48]
 2574 110c 5343     		mul	r3, r2
 2575 110e 099A     		ldr	r2, [sp, #36]
 2576 1110 9C46     		mov	ip, r3
 2577 1112 0A9B     		ldr	r3, [sp, #40]
 2578 1114 5343     		mul	r3, r2
 2579 1116 6246     		mov	r2, ip
 2580 1118 D21A     		sub	r2, r2, r3
 2581 111a D317     		asr	r3, r2, #31
 2582 111c 9446     		mov	ip, r2
 2583 111e 1A0E     		lsr	r2, r3, #24
 2584 1120 9346     		mov	fp, r2
 2585 1122 DC44     		add	ip, ip, fp
 2586 1124 6346     		mov	r3, ip
 2587 1126 1B12     		asr	r3, r3, #8
 2588 1128 2093     		str	r3, [sp, #128]
 2589 112a 20AA     		add	r2, sp, #128
 2590 112c 1388     		ldrh	r3, [r2]
 2591              		.loc 1 168 0
 2592 112e 0B9A     		ldr	r2, [sp, #44]
 2593              		.loc 1 167 0
 2594 1130 EB80     		strh	r3, [r5, #6]
 2595              		.loc 1 168 0
 2596 1132 0A9B     		ldr	r3, [sp, #40]
 2597 1134 5343     		mul	r3, r2
 2598 1136 099A     		ldr	r2, [sp, #36]
 2599 1138 9C46     		mov	ip, r3
 2600 113a 0C9B     		ldr	r3, [sp, #48]
 2601 113c 5343     		mul	r3, r2
 2602 113e 9B46     		mov	fp, r3
 2603 1140 DC44     		add	ip, ip, fp
 2604 1142 6346     		mov	r3, ip
 2605 1144 DA17     		asr	r2, r3, #31
 2606 1146 130E     		lsr	r3, r2, #24
 2607 1148 9B46     		mov	fp, r3
 2608 114a DC44     		add	ip, ip, fp
 2609 114c 6246     		mov	r2, ip
 2610 114e 1312     		asr	r3, r2, #8
 2611 1150 2193     		str	r3, [sp, #132]
 2612 1152 21AA     		add	r2, sp, #132
 2613 1154 1388     		ldrh	r3, [r2]
 2614              		.loc 1 167 0
 2615 1156 309A     		ldr	r2, [sp, #192]
 2616              		.loc 1 168 0
 2617 1158 E380     		strh	r3, [r4, #6]
 2618              		.loc 1 167 0
 2619 115a 1823     		mov	r3, #24
 2620 115c D25E     		ldrsh	r2, [r2, r3]
 2621 115e 0C92     		str	r2, [sp, #48]
ARM GAS  C:\Users\asha\AppData\Local\Temp\ccstE6wQ.s 			page 50


 2622 1160 5AAA     		add	r2, sp, #360
 2623 1162 1378     		ldrb	r3, [r2]
 2624 1164 5A00     		lsl	r2, r3, #1
 2625 1166 131C     		mov	r3, r2
 2626 1168 5344     		add	r3, r3, sl
 2627 116a 9346     		mov	fp, r2
 2628 116c 0022     		mov	r2, #0
 2629 116e 9B5E     		ldrsh	r3, [r3, r2]
 2630 1170 0B93     		str	r3, [sp, #44]
 2631 1172 319B     		ldr	r3, [sp, #196]
 2632 1174 1822     		mov	r2, #24
 2633 1176 9B5E     		ldrsh	r3, [r3, r2]
 2634 1178 0A93     		str	r3, [sp, #40]
 2635 117a 5B46     		mov	r3, fp
 2636 117c 4344     		add	r3, r3, r8
 2637 117e 0022     		mov	r2, #0
 2638 1180 9B5E     		ldrsh	r3, [r3, r2]
 2639 1182 0B9A     		ldr	r2, [sp, #44]
 2640 1184 0993     		str	r3, [sp, #36]
 2641 1186 0C9B     		ldr	r3, [sp, #48]
 2642 1188 5343     		mul	r3, r2
 2643 118a 099A     		ldr	r2, [sp, #36]
 2644 118c 9C46     		mov	ip, r3
 2645 118e 0A9B     		ldr	r3, [sp, #40]
 2646 1190 5343     		mul	r3, r2
 2647 1192 6246     		mov	r2, ip
 2648 1194 D21A     		sub	r2, r2, r3
 2649 1196 D317     		asr	r3, r2, #31
 2650 1198 9446     		mov	ip, r2
 2651 119a 1A0E     		lsr	r2, r3, #24
 2652 119c 9346     		mov	fp, r2
 2653 119e DC44     		add	ip, ip, fp
 2654 11a0 6346     		mov	r3, ip
 2655 11a2 1B12     		asr	r3, r3, #8
 2656 11a4 2293     		str	r3, [sp, #136]
 2657 11a6 22AA     		add	r2, sp, #136
 2658 11a8 1388     		ldrh	r3, [r2]
 2659              		.loc 1 168 0
 2660 11aa 0B9A     		ldr	r2, [sp, #44]
 2661              		.loc 1 167 0
 2662 11ac 2B81     		strh	r3, [r5, #8]
 2663              		.loc 1 168 0
 2664 11ae 0A9B     		ldr	r3, [sp, #40]
 2665 11b0 5343     		mul	r3, r2
 2666 11b2 099A     		ldr	r2, [sp, #36]
 2667 11b4 9C46     		mov	ip, r3
 2668 11b6 0C9B     		ldr	r3, [sp, #48]
 2669 11b8 5343     		mul	r3, r2
 2670 11ba 9B46     		mov	fp, r3
 2671 11bc DC44     		add	ip, ip, fp
 2672 11be 6346     		mov	r3, ip
 2673 11c0 DA17     		asr	r2, r3, #31
 2674 11c2 130E     		lsr	r3, r2, #24
 2675 11c4 9B46     		mov	fp, r3
 2676 11c6 DC44     		add	ip, ip, fp
 2677 11c8 6246     		mov	r2, ip
 2678 11ca 1312     		asr	r3, r2, #8
ARM GAS  C:\Users\asha\AppData\Local\Temp\ccstE6wQ.s 			page 51


 2679 11cc 2393     		str	r3, [sp, #140]
 2680 11ce 23AA     		add	r2, sp, #140
 2681 11d0 1388     		ldrh	r3, [r2]
 2682              		.loc 1 167 0
 2683 11d2 309A     		ldr	r2, [sp, #192]
 2684              		.loc 1 168 0
 2685 11d4 2381     		strh	r3, [r4, #8]
 2686              		.loc 1 167 0
 2687 11d6 1A23     		mov	r3, #26
 2688 11d8 D25E     		ldrsh	r2, [r2, r3]
 2689 11da 0C92     		str	r2, [sp, #48]
 2690 11dc 584A     		ldr	r2, .L52+24
 2691 11de 6A44     		add	r2, r2, sp
 2692 11e0 1378     		ldrb	r3, [r2]
 2693 11e2 5A00     		lsl	r2, r3, #1
 2694 11e4 131C     		mov	r3, r2
 2695 11e6 5344     		add	r3, r3, sl
 2696 11e8 9346     		mov	fp, r2
 2697 11ea 0022     		mov	r2, #0
 2698 11ec 9B5E     		ldrsh	r3, [r3, r2]
 2699 11ee 0B93     		str	r3, [sp, #44]
 2700 11f0 319B     		ldr	r3, [sp, #196]
 2701 11f2 1A22     		mov	r2, #26
 2702 11f4 9B5E     		ldrsh	r3, [r3, r2]
 2703 11f6 0A93     		str	r3, [sp, #40]
 2704 11f8 5B46     		mov	r3, fp
 2705 11fa 4344     		add	r3, r3, r8
 2706 11fc 0022     		mov	r2, #0
 2707 11fe 9B5E     		ldrsh	r3, [r3, r2]
 2708 1200 0B9A     		ldr	r2, [sp, #44]
 2709 1202 0993     		str	r3, [sp, #36]
 2710 1204 0C9B     		ldr	r3, [sp, #48]
 2711 1206 5343     		mul	r3, r2
 2712 1208 099A     		ldr	r2, [sp, #36]
 2713 120a 9C46     		mov	ip, r3
 2714 120c 0A9B     		ldr	r3, [sp, #40]
 2715 120e 5343     		mul	r3, r2
 2716 1210 6246     		mov	r2, ip
 2717 1212 D21A     		sub	r2, r2, r3
 2718 1214 D317     		asr	r3, r2, #31
 2719 1216 9446     		mov	ip, r2
 2720 1218 1A0E     		lsr	r2, r3, #24
 2721 121a 9346     		mov	fp, r2
 2722 121c DC44     		add	ip, ip, fp
 2723 121e 6346     		mov	r3, ip
 2724 1220 1B12     		asr	r3, r3, #8
 2725 1222 24AA     		add	r2, sp, #144
 2726 1224 2493     		str	r3, [sp, #144]
 2727 1226 1388     		ldrh	r3, [r2]
 2728              		.loc 1 168 0
 2729 1228 0B9A     		ldr	r2, [sp, #44]
 2730              		.loc 1 167 0
 2731 122a 6B81     		strh	r3, [r5, #10]
 2732              		.loc 1 168 0
 2733 122c 0A9B     		ldr	r3, [sp, #40]
 2734 122e 5343     		mul	r3, r2
 2735 1230 099A     		ldr	r2, [sp, #36]
ARM GAS  C:\Users\asha\AppData\Local\Temp\ccstE6wQ.s 			page 52


 2736 1232 9C46     		mov	ip, r3
 2737 1234 0C9B     		ldr	r3, [sp, #48]
 2738 1236 5343     		mul	r3, r2
 2739 1238 9B46     		mov	fp, r3
 2740 123a DC44     		add	ip, ip, fp
 2741 123c 6346     		mov	r3, ip
 2742 123e DA17     		asr	r2, r3, #31
 2743 1240 130E     		lsr	r3, r2, #24
 2744 1242 9B46     		mov	fp, r3
 2745 1244 DC44     		add	ip, ip, fp
 2746 1246 6246     		mov	r2, ip
 2747 1248 1312     		asr	r3, r2, #8
 2748 124a 2593     		str	r3, [sp, #148]
 2749 124c 25AA     		add	r2, sp, #148
 2750 124e 1388     		ldrh	r3, [r2]
 2751              		.loc 1 167 0
 2752 1250 309A     		ldr	r2, [sp, #192]
 2753              		.loc 1 168 0
 2754 1252 6381     		strh	r3, [r4, #10]
 2755              		.loc 1 167 0
 2756 1254 1C23     		mov	r3, #28
 2757 1256 D25E     		ldrsh	r2, [r2, r3]
 2758 1258 B523     		mov	r3, #181
 2759 125a 0C92     		str	r2, [sp, #48]
 2760 125c 5A00     		lsl	r2, r3, #1
 2761 125e 6A44     		add	r2, r2, sp
 2762 1260 1378     		ldrb	r3, [r2]
 2763 1262 5A00     		lsl	r2, r3, #1
 2764 1264 131C     		mov	r3, r2
 2765 1266 5344     		add	r3, r3, sl
 2766 1268 9346     		mov	fp, r2
 2767 126a 0022     		mov	r2, #0
 2768 126c 9B5E     		ldrsh	r3, [r3, r2]
 2769 126e 0B93     		str	r3, [sp, #44]
 2770 1270 319B     		ldr	r3, [sp, #196]
 2771 1272 1C22     		mov	r2, #28
 2772 1274 9B5E     		ldrsh	r3, [r3, r2]
 2773 1276 0A93     		str	r3, [sp, #40]
 2774 1278 5B46     		mov	r3, fp
 2775 127a 4344     		add	r3, r3, r8
 2776 127c 0022     		mov	r2, #0
 2777 127e 9B5E     		ldrsh	r3, [r3, r2]
 2778 1280 0B9A     		ldr	r2, [sp, #44]
 2779 1282 0993     		str	r3, [sp, #36]
 2780 1284 0C9B     		ldr	r3, [sp, #48]
 2781 1286 5343     		mul	r3, r2
 2782 1288 099A     		ldr	r2, [sp, #36]
 2783 128a 9C46     		mov	ip, r3
 2784 128c 0A9B     		ldr	r3, [sp, #40]
 2785 128e 5343     		mul	r3, r2
 2786 1290 6246     		mov	r2, ip
 2787 1292 D21A     		sub	r2, r2, r3
 2788 1294 D317     		asr	r3, r2, #31
 2789 1296 9446     		mov	ip, r2
 2790 1298 1A0E     		lsr	r2, r3, #24
 2791 129a 9346     		mov	fp, r2
 2792 129c DC44     		add	ip, ip, fp
ARM GAS  C:\Users\asha\AppData\Local\Temp\ccstE6wQ.s 			page 53


 2793 129e 6346     		mov	r3, ip
 2794 12a0 1B12     		asr	r3, r3, #8
 2795 12a2 2693     		str	r3, [sp, #152]
 2796 12a4 26AA     		add	r2, sp, #152
 2797 12a6 1388     		ldrh	r3, [r2]
 2798              		.loc 1 168 0
 2799 12a8 0B9A     		ldr	r2, [sp, #44]
 2800              		.loc 1 167 0
 2801 12aa AB81     		strh	r3, [r5, #12]
 2802              		.loc 1 168 0
 2803 12ac 0A9B     		ldr	r3, [sp, #40]
 2804 12ae 5343     		mul	r3, r2
 2805 12b0 099A     		ldr	r2, [sp, #36]
 2806 12b2 9C46     		mov	ip, r3
 2807 12b4 0C9B     		ldr	r3, [sp, #48]
 2808 12b6 5343     		mul	r3, r2
 2809 12b8 9B46     		mov	fp, r3
 2810 12ba DC44     		add	ip, ip, fp
 2811 12bc 6346     		mov	r3, ip
 2812 12be DA17     		asr	r2, r3, #31
 2813 12c0 130E     		lsr	r3, r2, #24
 2814 12c2 9B46     		mov	fp, r3
 2815 12c4 DC44     		add	ip, ip, fp
 2816 12c6 6246     		mov	r2, ip
 2817 12c8 1312     		asr	r3, r2, #8
 2818 12ca 2793     		str	r3, [sp, #156]
 2819 12cc 27AA     		add	r2, sp, #156
 2820 12ce 1388     		ldrh	r3, [r2]
 2821 12d0 A381     		strh	r3, [r4, #12]
 2822              		.loc 1 167 0
 2823 12d2 309A     		ldr	r2, [sp, #192]
 2824 12d4 1E23     		mov	r3, #30
 2825 12d6 D25E     		ldrsh	r2, [r2, r3]
 2826 12d8 0C92     		str	r2, [sp, #48]
 2827 12da 1A4A     		ldr	r2, .L52+28
 2828 12dc 6A44     		add	r2, r2, sp
 2829 12de 1378     		ldrb	r3, [r2]
 2830 12e0 5A00     		lsl	r2, r3, #1
 2831 12e2 131C     		mov	r3, r2
 2832 12e4 5344     		add	r3, r3, sl
 2833 12e6 9346     		mov	fp, r2
 2834 12e8 0022     		mov	r2, #0
 2835 12ea 9B5E     		ldrsh	r3, [r3, r2]
 2836 12ec 0B93     		str	r3, [sp, #44]
 2837 12ee 319B     		ldr	r3, [sp, #196]
 2838 12f0 1E22     		mov	r2, #30
 2839 12f2 9B5E     		ldrsh	r3, [r3, r2]
 2840 12f4 0A93     		str	r3, [sp, #40]
 2841 12f6 5B46     		mov	r3, fp
 2842 12f8 4344     		add	r3, r3, r8
 2843 12fa 0022     		mov	r2, #0
 2844 12fc 9B5E     		ldrsh	r3, [r3, r2]
 2845 12fe 0B9A     		ldr	r2, [sp, #44]
 2846 1300 0993     		str	r3, [sp, #36]
 2847 1302 0C9B     		ldr	r3, [sp, #48]
 2848 1304 5343     		mul	r3, r2
 2849 1306 099A     		ldr	r2, [sp, #36]
ARM GAS  C:\Users\asha\AppData\Local\Temp\ccstE6wQ.s 			page 54


 2850 1308 9C46     		mov	ip, r3
 2851 130a 0A9B     		ldr	r3, [sp, #40]
 2852 130c 5343     		mul	r3, r2
 2853 130e 6246     		mov	r2, ip
 2854 1310 D21A     		sub	r2, r2, r3
 2855 1312 D317     		asr	r3, r2, #31
 2856 1314 9446     		mov	ip, r2
 2857 1316 1A0E     		lsr	r2, r3, #24
 2858 1318 9346     		mov	fp, r2
 2859 131a DC44     		add	ip, ip, fp
 2860 131c 6346     		mov	r3, ip
 2861 131e 1B12     		asr	r3, r3, #8
 2862 1320 9AB2     		uxth	r2, r3
 2863 1322 1A92     		str	r2, [sp, #104]
 2864 1324 10E0     		b	.L53
 2865              	.L54:
 2866 1326 C046     		.align	2
 2867              	.L52:
 2868 1328 00000000 		.word	img1
 2869 132c 00000000 		.word	img0
 2870 1330 00000000 		.word	real0
 2871 1334 00000000 		.word	real1
 2872 1338 65010000 		.word	357
 2873 133c 67010000 		.word	359
 2874 1340 69010000 		.word	361
 2875 1344 6B010000 		.word	363
 2876              	.L53:
 2877 1348 1AAB     		add	r3, sp, #104
 2878 134a 1A88     		ldrh	r2, [r3]
 2879              		.loc 1 168 0
 2880 134c 0B9B     		ldr	r3, [sp, #44]
 2881              		.loc 1 167 0
 2882 134e EA81     		strh	r2, [r5, #14]
 2883              		.loc 1 168 0
 2884 1350 0A9A     		ldr	r2, [sp, #40]
 2885 1352 5A43     		mul	r2, r3
 2886 1354 099B     		ldr	r3, [sp, #36]
 2887 1356 9446     		mov	ip, r2
 2888 1358 0C9A     		ldr	r2, [sp, #48]
 2889 135a 5A43     		mul	r2, r3
 2890 135c 9346     		mov	fp, r2
 2891 135e DC44     		add	ip, ip, fp
 2892 1360 6246     		mov	r2, ip
 2893 1362 D317     		asr	r3, r2, #31
 2894 1364 1A0E     		lsr	r2, r3, #24
 2895 1366 9346     		mov	fp, r2
 2896 1368 E344     		add	fp, fp, ip
 2897 136a 5B46     		mov	r3, fp
 2898 136c 1B12     		asr	r3, r3, #8
 2899 136e 9AB2     		uxth	r2, r3
 2900 1370 9346     		mov	fp, r2
 2901 1372 E281     		strh	r2, [r4, #14]
 169:.\main.c      **** 			
 170:.\main.c      **** 		}
 171:.\main.c      **** 		
 172:.\main.c      **** 		
 173:.\main.c      **** 		for(localcounter = 0; localcounter<8; localcounter++)
ARM GAS  C:\Users\asha\AppData\Local\Temp\ccstE6wQ.s 			page 55


 174:.\main.c      **** 		{
 175:.\main.c      **** 			real1[i + localcounter] = real0[i + localcounter] + interreal[localcounter];
 2902              		.loc 1 175 0
 2903 1374 309B     		ldr	r3, [sp, #192]
 2904 1376 11AA     		add	r2, sp, #68
 2905 1378 1288     		ldrh	r2, [r2]
 2906 137a 1B88     		ldrh	r3, [r3]
 2907 137c 9446     		mov	ip, r2
 2908 137e 9C44     		add	ip, ip, r3
 2909 1380 2C93     		str	r3, [sp, #176]
 2910 1382 6346     		mov	r3, ip
 2911 1384 0B80     		strh	r3, [r1]
 2912 1386 1E92     		str	r2, [sp, #120]
 176:.\main.c      **** 			img1[i + localcounter] = img0[i + localcounter] + interimg[localcounter];
 2913              		.loc 1 176 0
 2914 1388 319B     		ldr	r3, [sp, #196]
 2915 138a 19AA     		add	r2, sp, #100
 2916 138c 1288     		ldrh	r2, [r2]
 2917 138e 1B88     		ldrh	r3, [r3]
 2918 1390 9446     		mov	ip, r2
 2919 1392 9C44     		add	ip, ip, r3
 2920 1394 1D92     		str	r2, [sp, #116]
 2921 1396 2D93     		str	r3, [sp, #180]
 2922 1398 6346     		mov	r3, ip
 2923 139a 0380     		strh	r3, [r0]
 2924              		.loc 1 175 0
 2925 139c 12AA     		add	r2, sp, #72
 2926 139e 309B     		ldr	r3, [sp, #192]
 2927 13a0 1288     		ldrh	r2, [r2]
 2928 13a2 5B88     		ldrh	r3, [r3, #2]
 2929 13a4 9446     		mov	ip, r2
 2930 13a6 9C44     		add	ip, ip, r3
 2931 13a8 2E93     		str	r3, [sp, #184]
 2932 13aa 6346     		mov	r3, ip
 2933 13ac 4B80     		strh	r3, [r1, #2]
 2934 13ae 1792     		str	r2, [sp, #92]
 2935              		.loc 1 176 0
 2936 13b0 319B     		ldr	r3, [sp, #196]
 2937 13b2 13AA     		add	r2, sp, #76
 2938 13b4 1288     		ldrh	r2, [r2]
 2939 13b6 5B88     		ldrh	r3, [r3, #2]
 2940 13b8 9446     		mov	ip, r2
 2941 13ba 9C44     		add	ip, ip, r3
 2942 13bc 2F93     		str	r3, [sp, #188]
 2943 13be 6346     		mov	r3, ip
 2944 13c0 4380     		strh	r3, [r0, #2]
 2945 13c2 1692     		str	r2, [sp, #88]
 2946              		.loc 1 175 0
 2947 13c4 309B     		ldr	r3, [sp, #192]
 2948 13c6 14AA     		add	r2, sp, #80
 2949 13c8 1288     		ldrh	r2, [r2]
 2950 13ca 9B88     		ldrh	r3, [r3, #4]
 2951 13cc 9446     		mov	ip, r2
 2952 13ce 9C44     		add	ip, ip, r3
 2953 13d0 2993     		str	r3, [sp, #164]
 2954 13d2 6346     		mov	r3, ip
 2955 13d4 8B80     		strh	r3, [r1, #4]
ARM GAS  C:\Users\asha\AppData\Local\Temp\ccstE6wQ.s 			page 56


 2956 13d6 1592     		str	r2, [sp, #84]
 2957              		.loc 1 176 0
 2958 13d8 319B     		ldr	r3, [sp, #196]
 2959 13da 1FAA     		add	r2, sp, #124
 2960 13dc 1288     		ldrh	r2, [r2]
 2961 13de 9B88     		ldrh	r3, [r3, #4]
 2962 13e0 9446     		mov	ip, r2
 2963 13e2 9C44     		add	ip, ip, r3
 2964 13e4 2A93     		str	r3, [sp, #168]
 2965 13e6 6346     		mov	r3, ip
 2966 13e8 8380     		strh	r3, [r0, #4]
 2967 13ea 1492     		str	r2, [sp, #80]
 2968              		.loc 1 175 0
 2969 13ec 309B     		ldr	r3, [sp, #192]
 2970 13ee 20AA     		add	r2, sp, #128
 2971 13f0 1288     		ldrh	r2, [r2]
 2972 13f2 DB88     		ldrh	r3, [r3, #6]
 2973 13f4 9446     		mov	ip, r2
 2974 13f6 9C44     		add	ip, ip, r3
 2975 13f8 2093     		str	r3, [sp, #128]
 2976 13fa 6346     		mov	r3, ip
 2977 13fc CB80     		strh	r3, [r1, #6]
 2978 13fe 1392     		str	r2, [sp, #76]
 2979              		.loc 1 176 0
 2980 1400 319B     		ldr	r3, [sp, #196]
 2981 1402 21AA     		add	r2, sp, #132
 2982 1404 1288     		ldrh	r2, [r2]
 2983 1406 DB88     		ldrh	r3, [r3, #6]
 2984 1408 9446     		mov	ip, r2
 2985 140a 9C44     		add	ip, ip, r3
 2986 140c 1292     		str	r2, [sp, #72]
 2987 140e 2193     		str	r3, [sp, #132]
 2988 1410 6346     		mov	r3, ip
 2989 1412 C380     		strh	r3, [r0, #6]
 2990              		.loc 1 175 0
 2991 1414 22AA     		add	r2, sp, #136
 2992 1416 309B     		ldr	r3, [sp, #192]
 2993 1418 1288     		ldrh	r2, [r2]
 2994 141a 1B89     		ldrh	r3, [r3, #8]
 2995 141c 9446     		mov	ip, r2
 2996 141e 9C44     		add	ip, ip, r3
 2997 1420 2293     		str	r3, [sp, #136]
 2998 1422 6346     		mov	r3, ip
 2999 1424 0B81     		strh	r3, [r1, #8]
 3000 1426 1992     		str	r2, [sp, #100]
 3001              		.loc 1 176 0
 3002 1428 319B     		ldr	r3, [sp, #196]
 3003 142a 23AA     		add	r2, sp, #140
 3004 142c 1288     		ldrh	r2, [r2]
 3005 142e 1B89     		ldrh	r3, [r3, #8]
 3006 1430 9446     		mov	ip, r2
 3007 1432 9C44     		add	ip, ip, r3
 3008 1434 2393     		str	r3, [sp, #140]
 3009 1436 6346     		mov	r3, ip
 3010 1438 0381     		strh	r3, [r0, #8]
 3011 143a 1192     		str	r2, [sp, #68]
 3012              		.loc 1 175 0
ARM GAS  C:\Users\asha\AppData\Local\Temp\ccstE6wQ.s 			page 57


 3013 143c 309B     		ldr	r3, [sp, #192]
 3014 143e 24AA     		add	r2, sp, #144
 3015 1440 1288     		ldrh	r2, [r2]
 3016 1442 5B89     		ldrh	r3, [r3, #10]
 3017 1444 9446     		mov	ip, r2
 3018 1446 9C44     		add	ip, ip, r3
 3019 1448 2493     		str	r3, [sp, #144]
 3020 144a 6346     		mov	r3, ip
 3021 144c 4B81     		strh	r3, [r1, #10]
 3022 144e 0C92     		str	r2, [sp, #48]
 3023              		.loc 1 176 0
 3024 1450 319B     		ldr	r3, [sp, #196]
 3025 1452 25AA     		add	r2, sp, #148
 3026 1454 1288     		ldrh	r2, [r2]
 3027 1456 5B89     		ldrh	r3, [r3, #10]
 3028 1458 9446     		mov	ip, r2
 3029 145a 9C44     		add	ip, ip, r3
 3030 145c 2593     		str	r3, [sp, #148]
 3031 145e 6346     		mov	r3, ip
 3032 1460 4381     		strh	r3, [r0, #10]
 3033 1462 0B92     		str	r2, [sp, #44]
 3034              		.loc 1 175 0
 3035 1464 309B     		ldr	r3, [sp, #192]
 3036 1466 26AA     		add	r2, sp, #152
 3037 1468 1288     		ldrh	r2, [r2]
 3038 146a 9B89     		ldrh	r3, [r3, #12]
 3039 146c 9446     		mov	ip, r2
 3040 146e 9C44     		add	ip, ip, r3
 3041 1470 2693     		str	r3, [sp, #152]
 3042 1472 6346     		mov	r3, ip
 3043 1474 8B81     		strh	r3, [r1, #12]
 3044 1476 0A92     		str	r2, [sp, #40]
 3045              		.loc 1 176 0
 3046 1478 319B     		ldr	r3, [sp, #196]
 3047 147a 27AA     		add	r2, sp, #156
 3048 147c 1288     		ldrh	r2, [r2]
 3049 147e 9B89     		ldrh	r3, [r3, #12]
 3050 1480 9446     		mov	ip, r2
 3051 1482 9C44     		add	ip, ip, r3
 3052 1484 0992     		str	r2, [sp, #36]
 3053 1486 2793     		str	r3, [sp, #156]
 3054 1488 6346     		mov	r3, ip
 3055 148a 8381     		strh	r3, [r0, #12]
 3056              		.loc 1 175 0
 3057 148c 1AAA     		add	r2, sp, #104
 3058 148e 309B     		ldr	r3, [sp, #192]
 3059 1490 1288     		ldrh	r2, [r2]
 3060 1492 DB89     		ldrh	r3, [r3, #14]
 3061 1494 9446     		mov	ip, r2
 3062 1496 9C44     		add	ip, ip, r3
 3063 1498 2B93     		str	r3, [sp, #172]
 3064 149a 6346     		mov	r3, ip
 3065 149c CB81     		strh	r3, [r1, #14]
 3066              		.loc 1 176 0
 3067 149e 319B     		ldr	r3, [sp, #196]
 3068              		.loc 1 175 0
 3069 14a0 1F92     		str	r2, [sp, #124]
ARM GAS  C:\Users\asha\AppData\Local\Temp\ccstE6wQ.s 			page 58


 3070              		.loc 1 176 0
 3071 14a2 DB89     		ldrh	r3, [r3, #14]
 3072 14a4 5A46     		mov	r2, fp
 3073 14a6 92B2     		uxth	r2, r2
 3074 14a8 9B46     		mov	fp, r3
 3075 14aa 9446     		mov	ip, r2
 3076 14ac DC44     		add	ip, ip, fp
 3077 14ae 1A92     		str	r2, [sp, #104]
 3078 14b0 6246     		mov	r2, ip
 3079 14b2 C281     		strh	r2, [r0, #14]
 177:.\main.c      **** 		}
 178:.\main.c      **** 		 
 179:.\main.c      **** 		for(localcounter = 8; localcounter<16; localcounter++)
 180:.\main.c      **** 		{
 181:.\main.c      **** 			real1[i + localcounter] = real0[i + localcounter - 8] - interreal[localcounter % 8];
 3080              		.loc 1 181 0
 3081 14b4 1E9B     		ldr	r3, [sp, #120]
 3082 14b6 2C9A     		ldr	r2, [sp, #176]
 3083 14b8 D21A     		sub	r2, r2, r3
 3084 14ba 0A82     		strh	r2, [r1, #16]
 182:.\main.c      **** 			img1[i + localcounter] = img0[i + localcounter - 8] - interimg[localcounter % 8];
 3085              		.loc 1 182 0
 3086 14bc 2D9B     		ldr	r3, [sp, #180]
 3087 14be 1D9A     		ldr	r2, [sp, #116]
 3088 14c0 9B1A     		sub	r3, r3, r2
 3089 14c2 0382     		strh	r3, [r0, #16]
 3090              		.loc 1 181 0
 3091 14c4 2E9A     		ldr	r2, [sp, #184]
 3092 14c6 179B     		ldr	r3, [sp, #92]
 3093 14c8 D21A     		sub	r2, r2, r3
 3094 14ca 4A82     		strh	r2, [r1, #18]
 3095              		.loc 1 182 0
 3096 14cc 2F9B     		ldr	r3, [sp, #188]
 3097 14ce 169A     		ldr	r2, [sp, #88]
 3098 14d0 9B1A     		sub	r3, r3, r2
 3099 14d2 4382     		strh	r3, [r0, #18]
 3100              		.loc 1 181 0
 3101 14d4 299A     		ldr	r2, [sp, #164]
 3102 14d6 159B     		ldr	r3, [sp, #84]
 3103 14d8 D21A     		sub	r2, r2, r3
 3104 14da 8A82     		strh	r2, [r1, #20]
 3105              		.loc 1 182 0
 3106 14dc 2A9B     		ldr	r3, [sp, #168]
 3107 14de 149A     		ldr	r2, [sp, #80]
 3108 14e0 9B1A     		sub	r3, r3, r2
 3109 14e2 8382     		strh	r3, [r0, #20]
 3110              		.loc 1 181 0
 3111 14e4 209A     		ldr	r2, [sp, #128]
 3112 14e6 139B     		ldr	r3, [sp, #76]
 3113 14e8 D21A     		sub	r2, r2, r3
 3114 14ea CA82     		strh	r2, [r1, #22]
 3115              		.loc 1 182 0
 3116 14ec 219B     		ldr	r3, [sp, #132]
 3117 14ee 129A     		ldr	r2, [sp, #72]
 3118 14f0 9B1A     		sub	r3, r3, r2
 3119 14f2 C382     		strh	r3, [r0, #22]
 3120              		.loc 1 181 0
ARM GAS  C:\Users\asha\AppData\Local\Temp\ccstE6wQ.s 			page 59


 3121 14f4 199B     		ldr	r3, [sp, #100]
 3122 14f6 229A     		ldr	r2, [sp, #136]
 3123 14f8 D21A     		sub	r2, r2, r3
 3124 14fa 0A83     		strh	r2, [r1, #24]
 3125              		.loc 1 182 0
 3126 14fc 239B     		ldr	r3, [sp, #140]
 3127 14fe 119A     		ldr	r2, [sp, #68]
 3128 1500 9B1A     		sub	r3, r3, r2
 3129 1502 0383     		strh	r3, [r0, #24]
 3130              		.loc 1 181 0
 3131 1504 249A     		ldr	r2, [sp, #144]
 3132 1506 0C9B     		ldr	r3, [sp, #48]
 3133 1508 D21A     		sub	r2, r2, r3
 3134 150a 4A83     		strh	r2, [r1, #26]
 3135              		.loc 1 182 0
 3136 150c 259B     		ldr	r3, [sp, #148]
 3137 150e 0B9A     		ldr	r2, [sp, #44]
 3138 1510 9B1A     		sub	r3, r3, r2
 3139 1512 4383     		strh	r3, [r0, #26]
 3140              		.loc 1 181 0
 3141 1514 269A     		ldr	r2, [sp, #152]
 3142 1516 0A9B     		ldr	r3, [sp, #40]
 3143 1518 D21A     		sub	r2, r2, r3
 3144 151a 8A83     		strh	r2, [r1, #28]
 3145              		.loc 1 182 0
 3146 151c 279B     		ldr	r3, [sp, #156]
 3147 151e 099A     		ldr	r2, [sp, #36]
 3148 1520 9B1A     		sub	r3, r3, r2
 3149 1522 8383     		strh	r3, [r0, #28]
 3150              		.loc 1 181 0
 3151 1524 2B9A     		ldr	r2, [sp, #172]
 3152 1526 1F9B     		ldr	r3, [sp, #124]
 3153 1528 D21A     		sub	r2, r2, r3
 3154 152a CA83     		strh	r2, [r1, #30]
 3155              		.loc 1 182 0
 3156 152c 1A9A     		ldr	r2, [sp, #104]
 3157 152e 5B46     		mov	r3, fp
 3158 1530 9B1A     		sub	r3, r3, r2
 183:.\main.c      **** 		}
 184:.\main.c      **** 		i = i+16;
 3159              		.loc 1 184 0
 3160 1532 0E9A     		ldr	r2, [sp, #56]
 3161              		.loc 1 182 0
 3162 1534 C383     		strh	r3, [r0, #30]
 3163              		.loc 1 184 0
 3164 1536 9346     		mov	fp, r2
 3165 1538 1023     		mov	r3, #16
 3166 153a 9B44     		add	fp, fp, r3
 3167 153c 5A46     		mov	r2, fp
 3168 153e D3B2     		uxtb	r3, r2
 3169 1540 309A     		ldr	r2, [sp, #192]
 3170 1542 0E93     		str	r3, [sp, #56]
 3171 1544 2032     		add	r2, r2, #32
 3172 1546 319B     		ldr	r3, [sp, #196]
 3173 1548 3092     		str	r2, [sp, #192]
 3174              		.loc 1 162 0
 3175 154a 0E9A     		ldr	r2, [sp, #56]
ARM GAS  C:\Users\asha\AppData\Local\Temp\ccstE6wQ.s 			page 60


 3176              		.loc 1 184 0
 3177 154c 2033     		add	r3, r3, #32
 3178 154e 3193     		str	r3, [sp, #196]
 3179 1550 2031     		add	r1, r1, #32
 3180 1552 2030     		add	r0, r0, #32
 3181              		.loc 1 162 0
 3182 1554 402A     		cmp	r2, #64
 3183 1556 00D0     		beq	.LCB2731
 3184 1558 02E5     		b	.L7	@long jump
 3185              	.LCB2731:
 3186 155a 0021     		mov	r1, #0
 3187 155c 0A91     		str	r1, [sp, #40]
 3188              	.L8:
 185:.\main.c      **** 	}
 186:.\main.c      **** 		
 187:.\main.c      **** 	/* Fifth stage of Radix 2 FFT implementation */
 188:.\main.c      **** 	for(i=0; i< NUM_FFT; )
 189:.\main.c      **** 	{
 190:.\main.c      **** 		for(j = 0; j< 16; j++)
 191:.\main.c      **** 		{
 192:.\main.c      **** 			interreal[j] = ((real1[i + j + 16] * twiddlereal[array1[j]]) - (img1[i + j + 16] * twiddleimg[ar
 3189              		.loc 1 192 0
 3190 155e 1098     		ldr	r0, [sp, #64]
 3191 1560 2021     		mov	r1, #32
 3192 1562 425E     		ldrsh	r2, [r0, r1]
 3193 1564 55A9     		add	r1, sp, #340
 3194 1566 0C92     		str	r2, [sp, #48]
 3195 1568 0B78     		ldrb	r3, [r1]
 3196 156a 5046     		mov	r0, sl
 3197 156c 5B00     		lsl	r3, r3, #1
 3198 156e 185E     		ldrsh	r0, [r3, r0]
 3199 1570 0F9A     		ldr	r2, [sp, #60]
 3200 1572 0990     		str	r0, [sp, #36]
 3201 1574 4146     		mov	r1, r8
 3202 1576 5B5E     		ldrsh	r3, [r3, r1]
 3203 1578 2020     		mov	r0, #32
 3204 157a 105E     		ldrsh	r0, [r2, r0]
 3205 157c 0999     		ldr	r1, [sp, #36]
 3206 157e 0C9A     		ldr	r2, [sp, #48]
 3207 1580 4A43     		mul	r2, r1
 3208 1582 9446     		mov	ip, r2
 3209 1584 021C     		mov	r2, r0
 3210 1586 5A43     		mul	r2, r3
 3211 1588 6146     		mov	r1, ip
 3212 158a 891A     		sub	r1, r1, r2
 3213 158c CA17     		asr	r2, r1, #31
 3214 158e 8C46     		mov	ip, r1
 3215 1590 110E     		lsr	r1, r2, #24
 3216 1592 8B46     		mov	fp, r1
 3217 1594 DC44     		add	ip, ip, fp
 3218 1596 6246     		mov	r2, ip
 3219 1598 1112     		asr	r1, r2, #8
 3220 159a 0B91     		str	r1, [sp, #44]
 3221 159c 2C22     		mov	r2, #44
 3222 159e 6946     		mov	r1, sp
 3223 15a0 515A     		ldrh	r1, [r2, r1]
 193:.\main.c      **** 			interimg[j] = ((real1[i + j + 16] * twiddleimg[array1[j]]) + (img1[i + j + 16] * twiddlereal[arr
ARM GAS  C:\Users\asha\AppData\Local\Temp\ccstE6wQ.s 			page 61


 3224              		.loc 1 193 0
 3225 15a2 0C9A     		ldr	r2, [sp, #48]
 3226              		.loc 1 192 0
 3227 15a4 2980     		strh	r1, [r5]
 3228              		.loc 1 193 0
 3229 15a6 0999     		ldr	r1, [sp, #36]
 3230 15a8 5343     		mul	r3, r2
 3231 15aa 4143     		mul	r1, r0
 3232 15ac C918     		add	r1, r1, r3
 3233 15ae C817     		asr	r0, r1, #31
 3234 15b0 030E     		lsr	r3, r0, #24
 3235 15b2 5A18     		add	r2, r3, r1
 3236 15b4 1012     		asr	r0, r2, #8
 3237 15b6 0C90     		str	r0, [sp, #48]
 3238 15b8 6B46     		mov	r3, sp
 3239 15ba 3021     		mov	r1, #48
 3240 15bc CA5A     		ldrh	r2, [r1, r3]
 3241              		.loc 1 39 0
 3242 15be 0A9B     		ldr	r3, [sp, #40]
 3243              		.loc 1 193 0
 3244 15c0 2280     		strh	r2, [r4]
 3245              		.loc 1 39 0
 3246 15c2 F818     		add	r0, r7, r3
 3247              		.loc 1 192 0
 3248 15c4 2222     		mov	r2, #34
 3249 15c6 815E     		ldrsh	r1, [r0, r2]
 3250 15c8 EA4A     		ldr	r2, .L55
 3251 15ca 1391     		str	r1, [sp, #76]
 3252              		.loc 1 39 0
 3253 15cc 0990     		str	r0, [sp, #36]
 3254              		.loc 1 192 0
 3255 15ce 6A44     		add	r2, r2, sp
 3256 15d0 1378     		ldrb	r3, [r2]
 3257 15d2 5146     		mov	r1, sl
 3258 15d4 5B00     		lsl	r3, r3, #1
 3259 15d6 585E     		ldrsh	r0, [r3, r1]
 3260              		.loc 1 39 0
 3261 15d8 0A99     		ldr	r1, [sp, #40]
 3262              		.loc 1 192 0
 3263 15da 1290     		str	r0, [sp, #72]
 3264              		.loc 1 39 0
 3265 15dc 7018     		add	r0, r6, r1
 3266 15de 0E90     		str	r0, [sp, #56]
 3267              		.loc 1 192 0
 3268 15e0 4246     		mov	r2, r8
 3269 15e2 2221     		mov	r1, #34
 3270 15e4 405E     		ldrsh	r0, [r0, r1]
 3271 15e6 9B5E     		ldrsh	r3, [r3, r2]
 3272 15e8 1399     		ldr	r1, [sp, #76]
 3273 15ea 129A     		ldr	r2, [sp, #72]
 3274 15ec 5143     		mul	r1, r2
 3275 15ee 8C46     		mov	ip, r1
 3276 15f0 011C     		mov	r1, r0
 3277 15f2 5943     		mul	r1, r3
 3278 15f4 6246     		mov	r2, ip
 3279 15f6 521A     		sub	r2, r2, r1
 3280 15f8 D117     		asr	r1, r2, #31
ARM GAS  C:\Users\asha\AppData\Local\Temp\ccstE6wQ.s 			page 62


 3281 15fa 9446     		mov	ip, r2
 3282 15fc 0A0E     		lsr	r2, r1, #24
 3283 15fe 9346     		mov	fp, r2
 3284 1600 DC44     		add	ip, ip, fp
 3285 1602 6146     		mov	r1, ip
 3286 1604 0A12     		asr	r2, r1, #8
 3287 1606 1192     		str	r2, [sp, #68]
 3288 1608 11A9     		add	r1, sp, #68
 3289 160a 0A88     		ldrh	r2, [r1]
 3290 160c 6A80     		strh	r2, [r5, #2]
 3291              		.loc 1 193 0
 3292 160e 1299     		ldr	r1, [sp, #72]
 3293 1610 4143     		mul	r1, r0
 3294 1612 1398     		ldr	r0, [sp, #76]
 3295 1614 4343     		mul	r3, r0
 3296 1616 C818     		add	r0, r1, r3
 3297 1618 C217     		asr	r2, r0, #31
 3298 161a 130E     		lsr	r3, r2, #24
 3299 161c 1A18     		add	r2, r3, r0
 3300 161e 1112     		asr	r1, r2, #8
 3301 1620 1991     		str	r1, [sp, #100]
 3302 1622 19A8     		add	r0, sp, #100
 3303 1624 0388     		ldrh	r3, [r0]
 3304              		.loc 1 192 0
 3305 1626 099A     		ldr	r2, [sp, #36]
 3306              		.loc 1 193 0
 3307 1628 6380     		strh	r3, [r4, #2]
 3308              		.loc 1 192 0
 3309 162a AB20     		mov	r0, #171
 3310 162c 2423     		mov	r3, #36
 3311 162e D15E     		ldrsh	r1, [r2, r3]
 3312 1630 4200     		lsl	r2, r0, #1
 3313 1632 1491     		str	r1, [sp, #80]
 3314 1634 6A44     		add	r2, r2, sp
 3315 1636 1378     		ldrb	r3, [r2]
 3316 1638 5146     		mov	r1, sl
 3317 163a 5B00     		lsl	r3, r3, #1
 3318 163c 585E     		ldrsh	r0, [r3, r1]
 3319 163e 0E99     		ldr	r1, [sp, #56]
 3320 1640 1390     		str	r0, [sp, #76]
 3321 1642 4246     		mov	r2, r8
 3322 1644 9B5E     		ldrsh	r3, [r3, r2]
 3323 1646 2420     		mov	r0, #36
 3324 1648 085E     		ldrsh	r0, [r1, r0]
 3325 164a 139A     		ldr	r2, [sp, #76]
 3326 164c 1499     		ldr	r1, [sp, #80]
 3327 164e 5143     		mul	r1, r2
 3328 1650 8C46     		mov	ip, r1
 3329 1652 011C     		mov	r1, r0
 3330 1654 5943     		mul	r1, r3
 3331 1656 6246     		mov	r2, ip
 3332 1658 521A     		sub	r2, r2, r1
 3333 165a D117     		asr	r1, r2, #31
 3334 165c 9446     		mov	ip, r2
 3335 165e 0A0E     		lsr	r2, r1, #24
 3336 1660 9346     		mov	fp, r2
 3337 1662 DC44     		add	ip, ip, fp
ARM GAS  C:\Users\asha\AppData\Local\Temp\ccstE6wQ.s 			page 63


 3338 1664 6146     		mov	r1, ip
 3339 1666 0912     		asr	r1, r1, #8
 3340 1668 1291     		str	r1, [sp, #72]
 3341 166a 12AA     		add	r2, sp, #72
 3342 166c 1188     		ldrh	r1, [r2]
 3343              		.loc 1 193 0
 3344 166e 149A     		ldr	r2, [sp, #80]
 3345              		.loc 1 192 0
 3346 1670 A980     		strh	r1, [r5, #4]
 3347              		.loc 1 193 0
 3348 1672 1399     		ldr	r1, [sp, #76]
 3349 1674 5343     		mul	r3, r2
 3350 1676 4143     		mul	r1, r0
 3351 1678 CA18     		add	r2, r1, r3
 3352 167a D017     		asr	r0, r2, #31
 3353 167c 030E     		lsr	r3, r0, #24
 3354 167e 9918     		add	r1, r3, r2
 3355 1680 0812     		asr	r0, r1, #8
 3356 1682 1390     		str	r0, [sp, #76]
 3357 1684 13AA     		add	r2, sp, #76
 3358 1686 1388     		ldrh	r3, [r2]
 3359              		.loc 1 192 0
 3360 1688 0999     		ldr	r1, [sp, #36]
 3361              		.loc 1 193 0
 3362 168a A380     		strh	r3, [r4, #4]
 3363              		.loc 1 192 0
 3364 168c BA4A     		ldr	r2, .L55+4
 3365 168e 2623     		mov	r3, #38
 3366 1690 C85E     		ldrsh	r0, [r1, r3]
 3367 1692 6A44     		add	r2, r2, sp
 3368 1694 1690     		str	r0, [sp, #88]
 3369 1696 1378     		ldrb	r3, [r2]
 3370 1698 5146     		mov	r1, sl
 3371 169a 5B00     		lsl	r3, r3, #1
 3372 169c 585E     		ldrsh	r0, [r3, r1]
 3373 169e 0E99     		ldr	r1, [sp, #56]
 3374 16a0 1590     		str	r0, [sp, #84]
 3375 16a2 4246     		mov	r2, r8
 3376 16a4 2620     		mov	r0, #38
 3377 16a6 085E     		ldrsh	r0, [r1, r0]
 3378 16a8 9B5E     		ldrsh	r3, [r3, r2]
 3379 16aa 1699     		ldr	r1, [sp, #88]
 3380 16ac 159A     		ldr	r2, [sp, #84]
 3381 16ae 5143     		mul	r1, r2
 3382 16b0 8C46     		mov	ip, r1
 3383 16b2 011C     		mov	r1, r0
 3384 16b4 5943     		mul	r1, r3
 3385 16b6 6246     		mov	r2, ip
 3386 16b8 521A     		sub	r2, r2, r1
 3387 16ba D117     		asr	r1, r2, #31
 3388 16bc 9446     		mov	ip, r2
 3389 16be 0A0E     		lsr	r2, r1, #24
 3390 16c0 9346     		mov	fp, r2
 3391 16c2 DC44     		add	ip, ip, fp
 3392 16c4 6146     		mov	r1, ip
 3393 16c6 0912     		asr	r1, r1, #8
 3394 16c8 14AA     		add	r2, sp, #80
ARM GAS  C:\Users\asha\AppData\Local\Temp\ccstE6wQ.s 			page 64


 3395 16ca 1491     		str	r1, [sp, #80]
 3396 16cc 1188     		ldrh	r1, [r2]
 3397              		.loc 1 193 0
 3398 16ce 169A     		ldr	r2, [sp, #88]
 3399              		.loc 1 192 0
 3400 16d0 E980     		strh	r1, [r5, #6]
 3401              		.loc 1 193 0
 3402 16d2 1599     		ldr	r1, [sp, #84]
 3403 16d4 5343     		mul	r3, r2
 3404 16d6 4143     		mul	r1, r0
 3405 16d8 CA18     		add	r2, r1, r3
 3406 16da D017     		asr	r0, r2, #31
 3407 16dc 030E     		lsr	r3, r0, #24
 3408 16de 9918     		add	r1, r3, r2
 3409 16e0 0812     		asr	r0, r1, #8
 3410 16e2 1590     		str	r0, [sp, #84]
 3411 16e4 15AA     		add	r2, sp, #84
 3412 16e6 1388     		ldrh	r3, [r2]
 3413              		.loc 1 192 0
 3414 16e8 0999     		ldr	r1, [sp, #36]
 3415              		.loc 1 193 0
 3416 16ea E380     		strh	r3, [r4, #6]
 3417              		.loc 1 192 0
 3418 16ec 2823     		mov	r3, #40
 3419 16ee C85E     		ldrsh	r0, [r1, r3]
 3420 16f0 56AA     		add	r2, sp, #344
 3421 16f2 1A90     		str	r0, [sp, #104]
 3422 16f4 1378     		ldrb	r3, [r2]
 3423 16f6 5146     		mov	r1, sl
 3424 16f8 5B00     		lsl	r3, r3, #1
 3425 16fa 585E     		ldrsh	r0, [r3, r1]
 3426 16fc 0E99     		ldr	r1, [sp, #56]
 3427 16fe 1790     		str	r0, [sp, #92]
 3428 1700 4246     		mov	r2, r8
 3429 1702 9B5E     		ldrsh	r3, [r3, r2]
 3430 1704 2820     		mov	r0, #40
 3431 1706 085E     		ldrsh	r0, [r1, r0]
 3432 1708 179A     		ldr	r2, [sp, #92]
 3433 170a 1A99     		ldr	r1, [sp, #104]
 3434 170c 5143     		mul	r1, r2
 3435 170e 8C46     		mov	ip, r1
 3436 1710 011C     		mov	r1, r0
 3437 1712 5943     		mul	r1, r3
 3438 1714 6246     		mov	r2, ip
 3439 1716 521A     		sub	r2, r2, r1
 3440 1718 D117     		asr	r1, r2, #31
 3441 171a 9446     		mov	ip, r2
 3442 171c 0A0E     		lsr	r2, r1, #24
 3443 171e 9346     		mov	fp, r2
 3444 1720 DC44     		add	ip, ip, fp
 3445 1722 6146     		mov	r1, ip
 3446 1724 0912     		asr	r1, r1, #8
 3447 1726 1691     		str	r1, [sp, #88]
 3448 1728 16AA     		add	r2, sp, #88
 3449 172a 1188     		ldrh	r1, [r2]
 3450              		.loc 1 193 0
 3451 172c 1A9A     		ldr	r2, [sp, #104]
ARM GAS  C:\Users\asha\AppData\Local\Temp\ccstE6wQ.s 			page 65


 3452              		.loc 1 192 0
 3453 172e 2981     		strh	r1, [r5, #8]
 3454              		.loc 1 193 0
 3455 1730 1799     		ldr	r1, [sp, #92]
 3456 1732 5343     		mul	r3, r2
 3457 1734 4143     		mul	r1, r0
 3458 1736 CA18     		add	r2, r1, r3
 3459 1738 D017     		asr	r0, r2, #31
 3460 173a 030E     		lsr	r3, r0, #24
 3461 173c 9918     		add	r1, r3, r2
 3462 173e 0812     		asr	r0, r1, #8
 3463 1740 1790     		str	r0, [sp, #92]
 3464 1742 17AA     		add	r2, sp, #92
 3465 1744 1388     		ldrh	r3, [r2]
 3466              		.loc 1 192 0
 3467 1746 0999     		ldr	r1, [sp, #36]
 3468              		.loc 1 193 0
 3469 1748 2381     		strh	r3, [r4, #8]
 3470              		.loc 1 192 0
 3471 174a 8C4A     		ldr	r2, .L55+8
 3472 174c 2A23     		mov	r3, #42
 3473 174e C85E     		ldrsh	r0, [r1, r3]
 3474 1750 6A44     		add	r2, r2, sp
 3475 1752 1E90     		str	r0, [sp, #120]
 3476 1754 1378     		ldrb	r3, [r2]
 3477 1756 5146     		mov	r1, sl
 3478 1758 5B00     		lsl	r3, r3, #1
 3479 175a 585E     		ldrsh	r0, [r3, r1]
 3480 175c 0E99     		ldr	r1, [sp, #56]
 3481 175e 1A90     		str	r0, [sp, #104]
 3482 1760 4246     		mov	r2, r8
 3483 1762 2A20     		mov	r0, #42
 3484 1764 085E     		ldrsh	r0, [r1, r0]
 3485 1766 9B5E     		ldrsh	r3, [r3, r2]
 3486 1768 1E99     		ldr	r1, [sp, #120]
 3487 176a 1A9A     		ldr	r2, [sp, #104]
 3488 176c 5143     		mul	r1, r2
 3489 176e 8C46     		mov	ip, r1
 3490 1770 011C     		mov	r1, r0
 3491 1772 5943     		mul	r1, r3
 3492 1774 6246     		mov	r2, ip
 3493 1776 521A     		sub	r2, r2, r1
 3494 1778 D117     		asr	r1, r2, #31
 3495 177a 9446     		mov	ip, r2
 3496 177c 0A0E     		lsr	r2, r1, #24
 3497 177e 9346     		mov	fp, r2
 3498 1780 DC44     		add	ip, ip, fp
 3499 1782 6146     		mov	r1, ip
 3500 1784 0A12     		asr	r2, r1, #8
 3501 1786 1DA9     		add	r1, sp, #116
 3502 1788 1D92     		str	r2, [sp, #116]
 3503 178a 0A88     		ldrh	r2, [r1]
 3504              		.loc 1 193 0
 3505 178c 1A99     		ldr	r1, [sp, #104]
 3506              		.loc 1 192 0
 3507 178e 6A81     		strh	r2, [r5, #10]
 3508              		.loc 1 193 0
ARM GAS  C:\Users\asha\AppData\Local\Temp\ccstE6wQ.s 			page 66


 3509 1790 4143     		mul	r1, r0
 3510 1792 1E98     		ldr	r0, [sp, #120]
 3511 1794 4343     		mul	r3, r0
 3512 1796 C818     		add	r0, r1, r3
 3513 1798 C217     		asr	r2, r0, #31
 3514 179a 130E     		lsr	r3, r2, #24
 3515 179c 1A18     		add	r2, r3, r0
 3516 179e 1112     		asr	r1, r2, #8
 3517 17a0 1E91     		str	r1, [sp, #120]
 3518 17a2 1EA8     		add	r0, sp, #120
 3519 17a4 0388     		ldrh	r3, [r0]
 3520              		.loc 1 192 0
 3521 17a6 099A     		ldr	r2, [sp, #36]
 3522              		.loc 1 193 0
 3523 17a8 6381     		strh	r3, [r4, #10]
 3524              		.loc 1 192 0
 3525 17aa AD20     		mov	r0, #173
 3526 17ac 2C23     		mov	r3, #44
 3527 17ae D15E     		ldrsh	r1, [r2, r3]
 3528 17b0 4200     		lsl	r2, r0, #1
 3529 17b2 2091     		str	r1, [sp, #128]
 3530 17b4 6A44     		add	r2, r2, sp
 3531 17b6 1378     		ldrb	r3, [r2]
 3532 17b8 5146     		mov	r1, sl
 3533 17ba 5B00     		lsl	r3, r3, #1
 3534 17bc 585E     		ldrsh	r0, [r3, r1]
 3535 17be 0E99     		ldr	r1, [sp, #56]
 3536 17c0 1F90     		str	r0, [sp, #124]
 3537 17c2 4246     		mov	r2, r8
 3538 17c4 9B5E     		ldrsh	r3, [r3, r2]
 3539 17c6 2C20     		mov	r0, #44
 3540 17c8 085E     		ldrsh	r0, [r1, r0]
 3541 17ca 1F9A     		ldr	r2, [sp, #124]
 3542 17cc 2099     		ldr	r1, [sp, #128]
 3543 17ce 5143     		mul	r1, r2
 3544 17d0 8C46     		mov	ip, r1
 3545 17d2 011C     		mov	r1, r0
 3546 17d4 5943     		mul	r1, r3
 3547 17d6 6246     		mov	r2, ip
 3548 17d8 521A     		sub	r2, r2, r1
 3549 17da D117     		asr	r1, r2, #31
 3550 17dc 9446     		mov	ip, r2
 3551 17de 0A0E     		lsr	r2, r1, #24
 3552 17e0 9346     		mov	fp, r2
 3553 17e2 DC44     		add	ip, ip, fp
 3554 17e4 6146     		mov	r1, ip
 3555 17e6 0912     		asr	r1, r1, #8
 3556 17e8 1A91     		str	r1, [sp, #104]
 3557 17ea 1AAA     		add	r2, sp, #104
 3558 17ec 1188     		ldrh	r1, [r2]
 3559              		.loc 1 193 0
 3560 17ee 209A     		ldr	r2, [sp, #128]
 3561              		.loc 1 192 0
 3562 17f0 A981     		strh	r1, [r5, #12]
 3563              		.loc 1 193 0
 3564 17f2 1F99     		ldr	r1, [sp, #124]
 3565 17f4 5343     		mul	r3, r2
ARM GAS  C:\Users\asha\AppData\Local\Temp\ccstE6wQ.s 			page 67


 3566 17f6 4143     		mul	r1, r0
 3567 17f8 CA18     		add	r2, r1, r3
 3568 17fa D017     		asr	r0, r2, #31
 3569 17fc 030E     		lsr	r3, r0, #24
 3570 17fe 9918     		add	r1, r3, r2
 3571 1800 0812     		asr	r0, r1, #8
 3572 1802 1F90     		str	r0, [sp, #124]
 3573 1804 1FAA     		add	r2, sp, #124
 3574 1806 1388     		ldrh	r3, [r2]
 3575              		.loc 1 192 0
 3576 1808 0999     		ldr	r1, [sp, #36]
 3577              		.loc 1 193 0
 3578 180a A381     		strh	r3, [r4, #12]
 3579              		.loc 1 192 0
 3580 180c 5C4A     		ldr	r2, .L55+12
 3581 180e 2E23     		mov	r3, #46
 3582 1810 C85E     		ldrsh	r0, [r1, r3]
 3583 1812 6A44     		add	r2, r2, sp
 3584 1814 2190     		str	r0, [sp, #132]
 3585 1816 1378     		ldrb	r3, [r2]
 3586 1818 5146     		mov	r1, sl
 3587 181a 5B00     		lsl	r3, r3, #1
 3588 181c 585E     		ldrsh	r0, [r3, r1]
 3589 181e 0E99     		ldr	r1, [sp, #56]
 3590 1820 2090     		str	r0, [sp, #128]
 3591 1822 4246     		mov	r2, r8
 3592 1824 2E20     		mov	r0, #46
 3593 1826 085E     		ldrsh	r0, [r1, r0]
 3594 1828 9B5E     		ldrsh	r3, [r3, r2]
 3595 182a 2199     		ldr	r1, [sp, #132]
 3596 182c 209A     		ldr	r2, [sp, #128]
 3597 182e 5143     		mul	r1, r2
 3598 1830 8C46     		mov	ip, r1
 3599 1832 011C     		mov	r1, r0
 3600 1834 5943     		mul	r1, r3
 3601 1836 6246     		mov	r2, ip
 3602 1838 521A     		sub	r2, r2, r1
 3603 183a D117     		asr	r1, r2, #31
 3604 183c 9446     		mov	ip, r2
 3605 183e 0A0E     		lsr	r2, r1, #24
 3606 1840 9346     		mov	fp, r2
 3607 1842 DC44     		add	ip, ip, fp
 3608 1844 6146     		mov	r1, ip
 3609 1846 0912     		asr	r1, r1, #8
 3610 1848 2AAA     		add	r2, sp, #168
 3611 184a 2A91     		str	r1, [sp, #168]
 3612 184c 1188     		ldrh	r1, [r2]
 3613              		.loc 1 193 0
 3614 184e 219A     		ldr	r2, [sp, #132]
 3615              		.loc 1 192 0
 3616 1850 E981     		strh	r1, [r5, #14]
 3617              		.loc 1 193 0
 3618 1852 2099     		ldr	r1, [sp, #128]
 3619 1854 5343     		mul	r3, r2
 3620 1856 4143     		mul	r1, r0
 3621 1858 CA18     		add	r2, r1, r3
 3622 185a D017     		asr	r0, r2, #31
ARM GAS  C:\Users\asha\AppData\Local\Temp\ccstE6wQ.s 			page 68


 3623 185c 030E     		lsr	r3, r0, #24
 3624 185e 9918     		add	r1, r3, r2
 3625 1860 0812     		asr	r0, r1, #8
 3626 1862 2B90     		str	r0, [sp, #172]
 3627 1864 2BAA     		add	r2, sp, #172
 3628 1866 1388     		ldrh	r3, [r2]
 3629              		.loc 1 192 0
 3630 1868 0999     		ldr	r1, [sp, #36]
 3631              		.loc 1 193 0
 3632 186a E381     		strh	r3, [r4, #14]
 3633              		.loc 1 192 0
 3634 186c 3023     		mov	r3, #48
 3635 186e C85E     		ldrsh	r0, [r1, r3]
 3636 1870 57AA     		add	r2, sp, #348
 3637 1872 2190     		str	r0, [sp, #132]
 3638 1874 1378     		ldrb	r3, [r2]
 3639 1876 5146     		mov	r1, sl
 3640 1878 5B00     		lsl	r3, r3, #1
 3641 187a 585E     		ldrsh	r0, [r3, r1]
 3642 187c 0E99     		ldr	r1, [sp, #56]
 3643 187e 2090     		str	r0, [sp, #128]
 3644 1880 4246     		mov	r2, r8
 3645 1882 9B5E     		ldrsh	r3, [r3, r2]
 3646 1884 3020     		mov	r0, #48
 3647 1886 085E     		ldrsh	r0, [r1, r0]
 3648 1888 209A     		ldr	r2, [sp, #128]
 3649 188a 2199     		ldr	r1, [sp, #132]
 3650 188c 5143     		mul	r1, r2
 3651 188e 8C46     		mov	ip, r1
 3652 1890 011C     		mov	r1, r0
 3653 1892 5943     		mul	r1, r3
 3654 1894 6246     		mov	r2, ip
 3655 1896 521A     		sub	r2, r2, r1
 3656 1898 D117     		asr	r1, r2, #31
 3657 189a 9446     		mov	ip, r2
 3658 189c 0A0E     		lsr	r2, r1, #24
 3659 189e 9346     		mov	fp, r2
 3660 18a0 DC44     		add	ip, ip, fp
 3661 18a2 6146     		mov	r1, ip
 3662 18a4 0912     		asr	r1, r1, #8
 3663 18a6 3091     		str	r1, [sp, #192]
 3664 18a8 30AA     		add	r2, sp, #192
 3665 18aa 1188     		ldrh	r1, [r2]
 3666              		.loc 1 193 0
 3667 18ac 219A     		ldr	r2, [sp, #132]
 3668              		.loc 1 192 0
 3669 18ae 2982     		strh	r1, [r5, #16]
 3670              		.loc 1 193 0
 3671 18b0 2099     		ldr	r1, [sp, #128]
 3672 18b2 5343     		mul	r3, r2
 3673 18b4 4143     		mul	r1, r0
 3674 18b6 CA18     		add	r2, r1, r3
 3675 18b8 D017     		asr	r0, r2, #31
 3676 18ba 030E     		lsr	r3, r0, #24
 3677 18bc 9918     		add	r1, r3, r2
 3678 18be 0812     		asr	r0, r1, #8
 3679 18c0 3190     		str	r0, [sp, #196]
ARM GAS  C:\Users\asha\AppData\Local\Temp\ccstE6wQ.s 			page 69


 3680 18c2 31AA     		add	r2, sp, #196
 3681 18c4 1388     		ldrh	r3, [r2]
 3682              		.loc 1 192 0
 3683 18c6 0999     		ldr	r1, [sp, #36]
 3684              		.loc 1 193 0
 3685 18c8 2382     		strh	r3, [r4, #16]
 3686              		.loc 1 192 0
 3687 18ca 2E4A     		ldr	r2, .L55+16
 3688 18cc 3223     		mov	r3, #50
 3689 18ce C85E     		ldrsh	r0, [r1, r3]
 3690 18d0 6A44     		add	r2, r2, sp
 3691 18d2 2190     		str	r0, [sp, #132]
 3692 18d4 1378     		ldrb	r3, [r2]
 3693 18d6 5146     		mov	r1, sl
 3694 18d8 5B00     		lsl	r3, r3, #1
 3695 18da 585E     		ldrsh	r0, [r3, r1]
 3696 18dc 0E99     		ldr	r1, [sp, #56]
 3697 18de 2090     		str	r0, [sp, #128]
 3698 18e0 4246     		mov	r2, r8
 3699 18e2 3220     		mov	r0, #50
 3700 18e4 085E     		ldrsh	r0, [r1, r0]
 3701 18e6 9B5E     		ldrsh	r3, [r3, r2]
 3702 18e8 2199     		ldr	r1, [sp, #132]
 3703 18ea 209A     		ldr	r2, [sp, #128]
 3704 18ec 5143     		mul	r1, r2
 3705 18ee 8C46     		mov	ip, r1
 3706 18f0 011C     		mov	r1, r0
 3707 18f2 5943     		mul	r1, r3
 3708 18f4 6246     		mov	r2, ip
 3709 18f6 521A     		sub	r2, r2, r1
 3710 18f8 D117     		asr	r1, r2, #31
 3711 18fa 9446     		mov	ip, r2
 3712 18fc 0A0E     		lsr	r2, r1, #24
 3713 18fe 9346     		mov	fp, r2
 3714 1900 DC44     		add	ip, ip, fp
 3715 1902 6146     		mov	r1, ip
 3716 1904 0A12     		asr	r2, r1, #8
 3717 1906 32A9     		add	r1, sp, #200
 3718 1908 3292     		str	r2, [sp, #200]
 3719 190a 0A88     		ldrh	r2, [r1]
 3720              		.loc 1 193 0
 3721 190c 2099     		ldr	r1, [sp, #128]
 3722              		.loc 1 192 0
 3723 190e 6A82     		strh	r2, [r5, #18]
 3724              		.loc 1 193 0
 3725 1910 4143     		mul	r1, r0
 3726 1912 2198     		ldr	r0, [sp, #132]
 3727 1914 4343     		mul	r3, r0
 3728 1916 C818     		add	r0, r1, r3
 3729 1918 C217     		asr	r2, r0, #31
 3730 191a 130E     		lsr	r3, r2, #24
 3731 191c 1A18     		add	r2, r3, r0
 3732 191e 1112     		asr	r1, r2, #8
 3733 1920 3391     		str	r1, [sp, #204]
 3734 1922 33A8     		add	r0, sp, #204
 3735 1924 0388     		ldrh	r3, [r0]
 3736              		.loc 1 192 0
ARM GAS  C:\Users\asha\AppData\Local\Temp\ccstE6wQ.s 			page 70


 3737 1926 099A     		ldr	r2, [sp, #36]
 3738              		.loc 1 193 0
 3739 1928 6382     		strh	r3, [r4, #18]
 3740              		.loc 1 192 0
 3741 192a AF20     		mov	r0, #175
 3742 192c 3423     		mov	r3, #52
 3743 192e D15E     		ldrsh	r1, [r2, r3]
 3744 1930 4200     		lsl	r2, r0, #1
 3745 1932 2191     		str	r1, [sp, #132]
 3746 1934 6A44     		add	r2, r2, sp
 3747 1936 1378     		ldrb	r3, [r2]
 3748 1938 5146     		mov	r1, sl
 3749 193a 5B00     		lsl	r3, r3, #1
 3750 193c 585E     		ldrsh	r0, [r3, r1]
 3751 193e 0E99     		ldr	r1, [sp, #56]
 3752 1940 2090     		str	r0, [sp, #128]
 3753 1942 4246     		mov	r2, r8
 3754 1944 9B5E     		ldrsh	r3, [r3, r2]
 3755 1946 3420     		mov	r0, #52
 3756 1948 085E     		ldrsh	r0, [r1, r0]
 3757 194a 209A     		ldr	r2, [sp, #128]
 3758 194c 2199     		ldr	r1, [sp, #132]
 3759 194e 5143     		mul	r1, r2
 3760 1950 8C46     		mov	ip, r1
 3761 1952 011C     		mov	r1, r0
 3762 1954 5943     		mul	r1, r3
 3763 1956 6246     		mov	r2, ip
 3764 1958 521A     		sub	r2, r2, r1
 3765 195a D117     		asr	r1, r2, #31
 3766 195c 9446     		mov	ip, r2
 3767 195e 0A0E     		lsr	r2, r1, #24
 3768 1960 9346     		mov	fp, r2
 3769 1962 DC44     		add	ip, ip, fp
 3770 1964 6146     		mov	r1, ip
 3771 1966 0912     		asr	r1, r1, #8
 3772 1968 3491     		str	r1, [sp, #208]
 3773 196a 34AA     		add	r2, sp, #208
 3774 196c 1188     		ldrh	r1, [r2]
 3775              		.loc 1 193 0
 3776 196e 219A     		ldr	r2, [sp, #132]
 3777 1970 0AE0     		b	.L56
 3778              	.L57:
 3779 1972 C046     		.align	2
 3780              	.L55:
 3781 1974 55010000 		.word	341
 3782 1978 57010000 		.word	343
 3783 197c 59010000 		.word	345
 3784 1980 5B010000 		.word	347
 3785 1984 5D010000 		.word	349
 3786              	.L56:
 3787              		.loc 1 192 0
 3788 1988 A982     		strh	r1, [r5, #20]
 3789              		.loc 1 193 0
 3790 198a 2099     		ldr	r1, [sp, #128]
 3791 198c 5343     		mul	r3, r2
 3792 198e 4143     		mul	r1, r0
 3793 1990 CA18     		add	r2, r1, r3
ARM GAS  C:\Users\asha\AppData\Local\Temp\ccstE6wQ.s 			page 71


 3794 1992 D017     		asr	r0, r2, #31
 3795 1994 030E     		lsr	r3, r0, #24
 3796 1996 9918     		add	r1, r3, r2
 3797 1998 0812     		asr	r0, r1, #8
 3798 199a 3590     		str	r0, [sp, #212]
 3799 199c 35AA     		add	r2, sp, #212
 3800 199e 1388     		ldrh	r3, [r2]
 3801              		.loc 1 192 0
 3802 19a0 0999     		ldr	r1, [sp, #36]
 3803              		.loc 1 193 0
 3804 19a2 A382     		strh	r3, [r4, #20]
 3805              		.loc 1 192 0
 3806 19a4 DC4A     		ldr	r2, .L58
 3807 19a6 3623     		mov	r3, #54
 3808 19a8 C85E     		ldrsh	r0, [r1, r3]
 3809 19aa 6A44     		add	r2, r2, sp
 3810 19ac 2190     		str	r0, [sp, #132]
 3811 19ae 1378     		ldrb	r3, [r2]
 3812 19b0 5146     		mov	r1, sl
 3813 19b2 5B00     		lsl	r3, r3, #1
 3814 19b4 585E     		ldrsh	r0, [r3, r1]
 3815 19b6 0E99     		ldr	r1, [sp, #56]
 3816 19b8 2090     		str	r0, [sp, #128]
 3817 19ba 4246     		mov	r2, r8
 3818 19bc 3620     		mov	r0, #54
 3819 19be 085E     		ldrsh	r0, [r1, r0]
 3820 19c0 9B5E     		ldrsh	r3, [r3, r2]
 3821 19c2 2199     		ldr	r1, [sp, #132]
 3822 19c4 209A     		ldr	r2, [sp, #128]
 3823 19c6 5143     		mul	r1, r2
 3824 19c8 8C46     		mov	ip, r1
 3825 19ca 011C     		mov	r1, r0
 3826 19cc 5943     		mul	r1, r3
 3827 19ce 6246     		mov	r2, ip
 3828 19d0 521A     		sub	r2, r2, r1
 3829 19d2 D117     		asr	r1, r2, #31
 3830 19d4 9446     		mov	ip, r2
 3831 19d6 0A0E     		lsr	r2, r1, #24
 3832 19d8 9346     		mov	fp, r2
 3833 19da DC44     		add	ip, ip, fp
 3834 19dc 6146     		mov	r1, ip
 3835 19de 0912     		asr	r1, r1, #8
 3836 19e0 36AA     		add	r2, sp, #216
 3837 19e2 3691     		str	r1, [sp, #216]
 3838 19e4 1188     		ldrh	r1, [r2]
 3839              		.loc 1 193 0
 3840 19e6 219A     		ldr	r2, [sp, #132]
 3841              		.loc 1 192 0
 3842 19e8 E982     		strh	r1, [r5, #22]
 3843              		.loc 1 193 0
 3844 19ea 2099     		ldr	r1, [sp, #128]
 3845 19ec 5343     		mul	r3, r2
 3846 19ee 4143     		mul	r1, r0
 3847 19f0 CA18     		add	r2, r1, r3
 3848 19f2 D017     		asr	r0, r2, #31
 3849 19f4 030E     		lsr	r3, r0, #24
 3850 19f6 9918     		add	r1, r3, r2
ARM GAS  C:\Users\asha\AppData\Local\Temp\ccstE6wQ.s 			page 72


 3851 19f8 0812     		asr	r0, r1, #8
 3852 19fa 3790     		str	r0, [sp, #220]
 3853 19fc 37AA     		add	r2, sp, #220
 3854 19fe 1388     		ldrh	r3, [r2]
 3855              		.loc 1 192 0
 3856 1a00 0999     		ldr	r1, [sp, #36]
 3857              		.loc 1 193 0
 3858 1a02 E382     		strh	r3, [r4, #22]
 3859              		.loc 1 192 0
 3860 1a04 3823     		mov	r3, #56
 3861 1a06 C85E     		ldrsh	r0, [r1, r3]
 3862 1a08 58AA     		add	r2, sp, #352
 3863 1a0a 2190     		str	r0, [sp, #132]
 3864 1a0c 1378     		ldrb	r3, [r2]
 3865 1a0e 5146     		mov	r1, sl
 3866 1a10 5B00     		lsl	r3, r3, #1
 3867 1a12 585E     		ldrsh	r0, [r3, r1]
 3868 1a14 0E99     		ldr	r1, [sp, #56]
 3869 1a16 2090     		str	r0, [sp, #128]
 3870 1a18 4246     		mov	r2, r8
 3871 1a1a 9B5E     		ldrsh	r3, [r3, r2]
 3872 1a1c 3820     		mov	r0, #56
 3873 1a1e 085E     		ldrsh	r0, [r1, r0]
 3874 1a20 209A     		ldr	r2, [sp, #128]
 3875 1a22 2199     		ldr	r1, [sp, #132]
 3876 1a24 5143     		mul	r1, r2
 3877 1a26 8C46     		mov	ip, r1
 3878 1a28 011C     		mov	r1, r0
 3879 1a2a 5943     		mul	r1, r3
 3880 1a2c 6246     		mov	r2, ip
 3881 1a2e 521A     		sub	r2, r2, r1
 3882 1a30 D117     		asr	r1, r2, #31
 3883 1a32 9446     		mov	ip, r2
 3884 1a34 0A0E     		lsr	r2, r1, #24
 3885 1a36 9346     		mov	fp, r2
 3886 1a38 DC44     		add	ip, ip, fp
 3887 1a3a 6146     		mov	r1, ip
 3888 1a3c 0912     		asr	r1, r1, #8
 3889 1a3e 3891     		str	r1, [sp, #224]
 3890 1a40 38AA     		add	r2, sp, #224
 3891 1a42 1188     		ldrh	r1, [r2]
 3892              		.loc 1 193 0
 3893 1a44 219A     		ldr	r2, [sp, #132]
 3894              		.loc 1 192 0
 3895 1a46 2983     		strh	r1, [r5, #24]
 3896              		.loc 1 193 0
 3897 1a48 2099     		ldr	r1, [sp, #128]
 3898 1a4a 5343     		mul	r3, r2
 3899 1a4c 4143     		mul	r1, r0
 3900 1a4e CA18     		add	r2, r1, r3
 3901 1a50 D017     		asr	r0, r2, #31
 3902 1a52 030E     		lsr	r3, r0, #24
 3903 1a54 9918     		add	r1, r3, r2
 3904 1a56 0812     		asr	r0, r1, #8
 3905 1a58 3990     		str	r0, [sp, #228]
 3906 1a5a 39AA     		add	r2, sp, #228
 3907 1a5c 1388     		ldrh	r3, [r2]
ARM GAS  C:\Users\asha\AppData\Local\Temp\ccstE6wQ.s 			page 73


 3908              		.loc 1 192 0
 3909 1a5e 0999     		ldr	r1, [sp, #36]
 3910              		.loc 1 193 0
 3911 1a60 2383     		strh	r3, [r4, #24]
 3912              		.loc 1 192 0
 3913 1a62 AE4A     		ldr	r2, .L58+4
 3914 1a64 3A23     		mov	r3, #58
 3915 1a66 C85E     		ldrsh	r0, [r1, r3]
 3916 1a68 6A44     		add	r2, r2, sp
 3917 1a6a 2190     		str	r0, [sp, #132]
 3918 1a6c 1378     		ldrb	r3, [r2]
 3919 1a6e 5146     		mov	r1, sl
 3920 1a70 5B00     		lsl	r3, r3, #1
 3921 1a72 585E     		ldrsh	r0, [r3, r1]
 3922 1a74 0E99     		ldr	r1, [sp, #56]
 3923 1a76 2090     		str	r0, [sp, #128]
 3924 1a78 4246     		mov	r2, r8
 3925 1a7a 3A20     		mov	r0, #58
 3926 1a7c 085E     		ldrsh	r0, [r1, r0]
 3927 1a7e 9B5E     		ldrsh	r3, [r3, r2]
 3928 1a80 2199     		ldr	r1, [sp, #132]
 3929 1a82 209A     		ldr	r2, [sp, #128]
 3930 1a84 5143     		mul	r1, r2
 3931 1a86 8C46     		mov	ip, r1
 3932 1a88 011C     		mov	r1, r0
 3933 1a8a 5943     		mul	r1, r3
 3934 1a8c 6246     		mov	r2, ip
 3935 1a8e 521A     		sub	r2, r2, r1
 3936 1a90 D117     		asr	r1, r2, #31
 3937 1a92 9446     		mov	ip, r2
 3938 1a94 0A0E     		lsr	r2, r1, #24
 3939 1a96 9346     		mov	fp, r2
 3940 1a98 DC44     		add	ip, ip, fp
 3941 1a9a 6146     		mov	r1, ip
 3942 1a9c 0A12     		asr	r2, r1, #8
 3943 1a9e 3AA9     		add	r1, sp, #232
 3944 1aa0 3A92     		str	r2, [sp, #232]
 3945 1aa2 0A88     		ldrh	r2, [r1]
 3946              		.loc 1 193 0
 3947 1aa4 2099     		ldr	r1, [sp, #128]
 3948              		.loc 1 192 0
 3949 1aa6 6A83     		strh	r2, [r5, #26]
 3950              		.loc 1 193 0
 3951 1aa8 4143     		mul	r1, r0
 3952 1aaa 2198     		ldr	r0, [sp, #132]
 3953 1aac 4343     		mul	r3, r0
 3954 1aae C818     		add	r0, r1, r3
 3955 1ab0 C217     		asr	r2, r0, #31
 3956 1ab2 130E     		lsr	r3, r2, #24
 3957 1ab4 1A18     		add	r2, r3, r0
 3958 1ab6 1112     		asr	r1, r2, #8
 3959 1ab8 3B91     		str	r1, [sp, #236]
 3960 1aba 3BA8     		add	r0, sp, #236
 3961 1abc 0388     		ldrh	r3, [r0]
 3962              		.loc 1 192 0
 3963 1abe 099A     		ldr	r2, [sp, #36]
 3964              		.loc 1 193 0
ARM GAS  C:\Users\asha\AppData\Local\Temp\ccstE6wQ.s 			page 74


 3965 1ac0 6383     		strh	r3, [r4, #26]
 3966              		.loc 1 192 0
 3967 1ac2 B120     		mov	r0, #177
 3968 1ac4 3C23     		mov	r3, #60
 3969 1ac6 D15E     		ldrsh	r1, [r2, r3]
 3970 1ac8 4200     		lsl	r2, r0, #1
 3971 1aca 2191     		str	r1, [sp, #132]
 3972 1acc 6A44     		add	r2, r2, sp
 3973 1ace 1378     		ldrb	r3, [r2]
 3974 1ad0 5146     		mov	r1, sl
 3975 1ad2 5B00     		lsl	r3, r3, #1
 3976 1ad4 585E     		ldrsh	r0, [r3, r1]
 3977 1ad6 0E99     		ldr	r1, [sp, #56]
 3978 1ad8 2090     		str	r0, [sp, #128]
 3979 1ada 4246     		mov	r2, r8
 3980 1adc 9B5E     		ldrsh	r3, [r3, r2]
 3981 1ade 3C20     		mov	r0, #60
 3982 1ae0 085E     		ldrsh	r0, [r1, r0]
 3983 1ae2 209A     		ldr	r2, [sp, #128]
 3984 1ae4 2199     		ldr	r1, [sp, #132]
 3985 1ae6 5143     		mul	r1, r2
 3986 1ae8 8C46     		mov	ip, r1
 3987 1aea 011C     		mov	r1, r0
 3988 1aec 5943     		mul	r1, r3
 3989 1aee 6246     		mov	r2, ip
 3990 1af0 521A     		sub	r2, r2, r1
 3991 1af2 D117     		asr	r1, r2, #31
 3992 1af4 9446     		mov	ip, r2
 3993 1af6 0A0E     		lsr	r2, r1, #24
 3994 1af8 9346     		mov	fp, r2
 3995 1afa DC44     		add	ip, ip, fp
 3996 1afc 6146     		mov	r1, ip
 3997 1afe 0912     		asr	r1, r1, #8
 3998 1b00 3C91     		str	r1, [sp, #240]
 3999 1b02 3CAA     		add	r2, sp, #240
 4000 1b04 1188     		ldrh	r1, [r2]
 4001              		.loc 1 193 0
 4002 1b06 219A     		ldr	r2, [sp, #132]
 4003              		.loc 1 192 0
 4004 1b08 A983     		strh	r1, [r5, #28]
 4005              		.loc 1 193 0
 4006 1b0a 2099     		ldr	r1, [sp, #128]
 4007 1b0c 5343     		mul	r3, r2
 4008 1b0e 4143     		mul	r1, r0
 4009 1b10 CA18     		add	r2, r1, r3
 4010 1b12 D017     		asr	r0, r2, #31
 4011 1b14 030E     		lsr	r3, r0, #24
 4012 1b16 9918     		add	r1, r3, r2
 4013 1b18 0812     		asr	r0, r1, #8
 4014 1b1a 3D90     		str	r0, [sp, #244]
 4015 1b1c 3DAA     		add	r2, sp, #244
 4016 1b1e 1388     		ldrh	r3, [r2]
 4017              		.loc 1 192 0
 4018 1b20 0999     		ldr	r1, [sp, #36]
 4019              		.loc 1 193 0
 4020 1b22 A383     		strh	r3, [r4, #28]
 4021              		.loc 1 192 0
ARM GAS  C:\Users\asha\AppData\Local\Temp\ccstE6wQ.s 			page 75


 4022 1b24 7E4A     		ldr	r2, .L58+8
 4023 1b26 3E23     		mov	r3, #62
 4024 1b28 C85E     		ldrsh	r0, [r1, r3]
 4025 1b2a 6A44     		add	r2, r2, sp
 4026 1b2c 2090     		str	r0, [sp, #128]
 4027 1b2e 1378     		ldrb	r3, [r2]
 4028 1b30 5146     		mov	r1, sl
 4029 1b32 5B00     		lsl	r3, r3, #1
 4030 1b34 585E     		ldrsh	r0, [r3, r1]
 4031 1b36 0E99     		ldr	r1, [sp, #56]
 4032 1b38 0990     		str	r0, [sp, #36]
 4033 1b3a 4246     		mov	r2, r8
 4034 1b3c 3E20     		mov	r0, #62
 4035 1b3e 085E     		ldrsh	r0, [r1, r0]
 4036 1b40 9B5E     		ldrsh	r3, [r3, r2]
 4037 1b42 2099     		ldr	r1, [sp, #128]
 4038 1b44 099A     		ldr	r2, [sp, #36]
 4039 1b46 5143     		mul	r1, r2
 4040 1b48 8C46     		mov	ip, r1
 4041 1b4a 011C     		mov	r1, r0
 4042 1b4c 5943     		mul	r1, r3
 4043 1b4e 6246     		mov	r2, ip
 4044 1b50 521A     		sub	r2, r2, r1
 4045 1b52 D117     		asr	r1, r2, #31
 4046 1b54 9446     		mov	ip, r2
 4047 1b56 0A0E     		lsr	r2, r1, #24
 4048 1b58 9346     		mov	fp, r2
 4049 1b5a DC44     		add	ip, ip, fp
 4050 1b5c 6146     		mov	r1, ip
 4051 1b5e 0912     		asr	r1, r1, #8
 4052 1b60 8AB2     		uxth	r2, r1
 4053 1b62 2992     		str	r2, [sp, #164]
 4054 1b64 29AA     		add	r2, sp, #164
 4055 1b66 1188     		ldrh	r1, [r2]
 4056              		.loc 1 193 0
 4057 1b68 209A     		ldr	r2, [sp, #128]
 4058              		.loc 1 192 0
 4059 1b6a E983     		strh	r1, [r5, #30]
 4060              		.loc 1 193 0
 4061 1b6c 0999     		ldr	r1, [sp, #36]
 4062 1b6e 5343     		mul	r3, r2
 4063 1b70 4143     		mul	r1, r0
 4064 1b72 CA18     		add	r2, r1, r3
 4065 1b74 D017     		asr	r0, r2, #31
 4066 1b76 030E     		lsr	r3, r0, #24
 4067 1b78 9818     		add	r0, r3, r2
 4068 1b7a 0112     		asr	r1, r0, #8
 194:.\main.c      **** 			
 195:.\main.c      **** 		}
 196:.\main.c      **** 		
 197:.\main.c      **** 		
 198:.\main.c      **** 		for(localcounter = 0; localcounter< 16; localcounter++)
 199:.\main.c      **** 		{
 200:.\main.c      **** 			real0[i + localcounter] = real1[i + localcounter] + interreal[localcounter];
 4069              		.loc 1 200 0
 4070 1b7c 1098     		ldr	r0, [sp, #64]
 4071 1b7e 2C22     		mov	r2, #44
ARM GAS  C:\Users\asha\AppData\Local\Temp\ccstE6wQ.s 			page 76


 4072 1b80 6B46     		mov	r3, sp
 4073 1b82 D35A     		ldrh	r3, [r2, r3]
 4074 1b84 0288     		ldrh	r2, [r0]
 4075 1b86 0D98     		ldr	r0, [sp, #52]
 4076 1b88 0293     		str	r3, [sp, #8]
 4077 1b8a 9B18     		add	r3, r3, r2
 4078 1b8c 0380     		strh	r3, [r0]
 201:.\main.c      **** 			img0[i + localcounter] = img1[i + localcounter] + interimg[localcounter];
 4079              		.loc 1 201 0
 4080 1b8e 3020     		mov	r0, #48
 4081 1b90 6B46     		mov	r3, sp
 4082 1b92 C35A     		ldrh	r3, [r0, r3]
 4083 1b94 0F98     		ldr	r0, [sp, #60]
 4084 1b96 9B46     		mov	fp, r3
 4085 1b98 0088     		ldrh	r0, [r0]
 4086 1b9a 2F93     		str	r3, [sp, #188]
 4087 1b9c 8344     		add	fp, fp, r0
 4088 1b9e 3E90     		str	r0, [sp, #248]
 4089 1ba0 0698     		ldr	r0, [sp, #24]
 4090 1ba2 5B46     		mov	r3, fp
 4091 1ba4 0380     		strh	r3, [r0]
 4092              		.loc 1 200 0
 4093 1ba6 109B     		ldr	r3, [sp, #64]
 4094 1ba8 11A8     		add	r0, sp, #68
 4095 1baa 5B88     		ldrh	r3, [r3, #2]
 4096 1bac 0088     		ldrh	r0, [r0]
 4097 1bae 9C46     		mov	ip, r3
 4098 1bb0 0D9B     		ldr	r3, [sp, #52]
 4099 1bb2 8346     		mov	fp, r0
 4100 1bb4 6044     		add	r0, r0, ip
 4101 1bb6 5880     		strh	r0, [r3, #2]
 4102              		.loc 1 201 0
 4103 1bb8 0F9B     		ldr	r3, [sp, #60]
 4104 1bba 19A8     		add	r0, sp, #100
 4105 1bbc 5B88     		ldrh	r3, [r3, #2]
 4106 1bbe 0088     		ldrh	r0, [r0]
 4107 1bc0 3F93     		str	r3, [sp, #252]
 4108 1bc2 2E90     		str	r0, [sp, #184]
 4109 1bc4 C018     		add	r0, r0, r3
 4110 1bc6 0990     		str	r0, [sp, #36]
 4111 1bc8 6B46     		mov	r3, sp
 4112 1bca 2420     		mov	r0, #36
 4113 1bcc C05A     		ldrh	r0, [r0, r3]
 4114 1bce 069B     		ldr	r3, [sp, #24]
 4115              		.loc 1 193 0
 4116 1bd0 89B2     		uxth	r1, r1
 4117              		.loc 1 201 0
 4118 1bd2 5880     		strh	r0, [r3, #2]
 4119              		.loc 1 200 0
 4120 1bd4 12AB     		add	r3, sp, #72
 4121 1bd6 1B88     		ldrh	r3, [r3]
 4122              		.loc 1 193 0
 4123 1bd8 E183     		strh	r1, [r4, #30]
 4124              		.loc 1 200 0
 4125 1bda 2D93     		str	r3, [sp, #180]
 4126 1bdc 1098     		ldr	r0, [sp, #64]
 4127              		.loc 1 201 0
ARM GAS  C:\Users\asha\AppData\Local\Temp\ccstE6wQ.s 			page 77


 4128 1bde 89B2     		uxth	r1, r1
 4129              		.loc 1 200 0
 4130 1be0 8088     		ldrh	r0, [r0, #4]
 4131 1be2 1B18     		add	r3, r3, r0
 4132 1be4 0993     		str	r3, [sp, #36]
 4133 1be6 4090     		str	r0, [sp, #256]
 4134 1be8 2423     		mov	r3, #36
 4135 1bea 6846     		mov	r0, sp
 4136 1bec 1B5A     		ldrh	r3, [r3, r0]
 4137 1bee 0D98     		ldr	r0, [sp, #52]
 4138 1bf0 8380     		strh	r3, [r0, #4]
 4139              		.loc 1 201 0
 4140 1bf2 0F9B     		ldr	r3, [sp, #60]
 4141 1bf4 13A8     		add	r0, sp, #76
 4142 1bf6 9B88     		ldrh	r3, [r3, #4]
 4143 1bf8 0088     		ldrh	r0, [r0]
 4144 1bfa 4193     		str	r3, [sp, #260]
 4145 1bfc 2C90     		str	r0, [sp, #176]
 4146 1bfe C018     		add	r0, r0, r3
 4147 1c00 0990     		str	r0, [sp, #36]
 4148 1c02 6B46     		mov	r3, sp
 4149 1c04 2420     		mov	r0, #36
 4150 1c06 C05A     		ldrh	r0, [r0, r3]
 4151 1c08 069B     		ldr	r3, [sp, #24]
 4152 1c0a 9880     		strh	r0, [r3, #4]
 4153              		.loc 1 200 0
 4154 1c0c 1098     		ldr	r0, [sp, #64]
 4155 1c0e 14AB     		add	r3, sp, #80
 4156 1c10 C088     		ldrh	r0, [r0, #6]
 4157 1c12 1B88     		ldrh	r3, [r3]
 4158 1c14 4290     		str	r0, [sp, #264]
 4159 1c16 2793     		str	r3, [sp, #156]
 4160 1c18 1B18     		add	r3, r3, r0
 4161 1c1a 0993     		str	r3, [sp, #36]
 4162 1c1c 6846     		mov	r0, sp
 4163 1c1e 2423     		mov	r3, #36
 4164 1c20 1B5A     		ldrh	r3, [r3, r0]
 4165 1c22 0D98     		ldr	r0, [sp, #52]
 4166 1c24 C380     		strh	r3, [r0, #6]
 4167              		.loc 1 201 0
 4168 1c26 0F9B     		ldr	r3, [sp, #60]
 4169 1c28 15A8     		add	r0, sp, #84
 4170 1c2a DB88     		ldrh	r3, [r3, #6]
 4171 1c2c 0088     		ldrh	r0, [r0]
 4172 1c2e 4393     		str	r3, [sp, #268]
 4173 1c30 2690     		str	r0, [sp, #152]
 4174 1c32 C018     		add	r0, r0, r3
 4175 1c34 0990     		str	r0, [sp, #36]
 4176 1c36 6B46     		mov	r3, sp
 4177 1c38 2420     		mov	r0, #36
 4178 1c3a C05A     		ldrh	r0, [r0, r3]
 4179 1c3c 069B     		ldr	r3, [sp, #24]
 4180 1c3e D880     		strh	r0, [r3, #6]
 4181              		.loc 1 200 0
 4182 1c40 1098     		ldr	r0, [sp, #64]
 4183 1c42 16AB     		add	r3, sp, #88
 4184 1c44 0089     		ldrh	r0, [r0, #8]
ARM GAS  C:\Users\asha\AppData\Local\Temp\ccstE6wQ.s 			page 78


 4185 1c46 1B88     		ldrh	r3, [r3]
 4186 1c48 4490     		str	r0, [sp, #272]
 4187 1c4a 2593     		str	r3, [sp, #148]
 4188 1c4c 1B18     		add	r3, r3, r0
 4189 1c4e 0993     		str	r3, [sp, #36]
 4190 1c50 6846     		mov	r0, sp
 4191 1c52 2423     		mov	r3, #36
 4192 1c54 1B5A     		ldrh	r3, [r3, r0]
 4193 1c56 0D98     		ldr	r0, [sp, #52]
 4194 1c58 0381     		strh	r3, [r0, #8]
 4195              		.loc 1 201 0
 4196 1c5a 0F9B     		ldr	r3, [sp, #60]
 4197 1c5c 17A8     		add	r0, sp, #92
 4198 1c5e 1B89     		ldrh	r3, [r3, #8]
 4199 1c60 0088     		ldrh	r0, [r0]
 4200 1c62 4593     		str	r3, [sp, #276]
 4201 1c64 2490     		str	r0, [sp, #144]
 4202 1c66 C018     		add	r0, r0, r3
 4203 1c68 0990     		str	r0, [sp, #36]
 4204 1c6a 6B46     		mov	r3, sp
 4205 1c6c 2420     		mov	r0, #36
 4206 1c6e C05A     		ldrh	r0, [r0, r3]
 4207 1c70 069B     		ldr	r3, [sp, #24]
 4208 1c72 1881     		strh	r0, [r3, #8]
 4209              		.loc 1 200 0
 4210 1c74 1098     		ldr	r0, [sp, #64]
 4211 1c76 1DAB     		add	r3, sp, #116
 4212 1c78 4089     		ldrh	r0, [r0, #10]
 4213 1c7a 1B88     		ldrh	r3, [r3]
 4214 1c7c 4690     		str	r0, [sp, #280]
 4215 1c7e 2393     		str	r3, [sp, #140]
 4216 1c80 1B18     		add	r3, r3, r0
 4217 1c82 0993     		str	r3, [sp, #36]
 4218 1c84 6846     		mov	r0, sp
 4219 1c86 2423     		mov	r3, #36
 4220 1c88 1B5A     		ldrh	r3, [r3, r0]
 4221 1c8a 0D98     		ldr	r0, [sp, #52]
 4222 1c8c 4381     		strh	r3, [r0, #10]
 4223              		.loc 1 201 0
 4224 1c8e 0F9B     		ldr	r3, [sp, #60]
 4225 1c90 1EA8     		add	r0, sp, #120
 4226 1c92 5B89     		ldrh	r3, [r3, #10]
 4227 1c94 0088     		ldrh	r0, [r0]
 4228 1c96 4793     		str	r3, [sp, #284]
 4229 1c98 2290     		str	r0, [sp, #136]
 4230 1c9a C018     		add	r0, r0, r3
 4231 1c9c 0990     		str	r0, [sp, #36]
 4232 1c9e 6B46     		mov	r3, sp
 4233 1ca0 2420     		mov	r0, #36
 4234 1ca2 C05A     		ldrh	r0, [r0, r3]
 4235 1ca4 069B     		ldr	r3, [sp, #24]
 4236 1ca6 5881     		strh	r0, [r3, #10]
 4237              		.loc 1 200 0
 4238 1ca8 1098     		ldr	r0, [sp, #64]
 4239 1caa 1AAB     		add	r3, sp, #104
 4240 1cac 1B88     		ldrh	r3, [r3]
 4241 1cae 8089     		ldrh	r0, [r0, #12]
ARM GAS  C:\Users\asha\AppData\Local\Temp\ccstE6wQ.s 			page 79


 4242 1cb0 2193     		str	r3, [sp, #132]
 4243 1cb2 1B18     		add	r3, r3, r0
 4244 1cb4 0993     		str	r3, [sp, #36]
 4245 1cb6 4890     		str	r0, [sp, #288]
 4246 1cb8 2423     		mov	r3, #36
 4247 1cba 6846     		mov	r0, sp
 4248 1cbc 1B5A     		ldrh	r3, [r3, r0]
 4249 1cbe 0D98     		ldr	r0, [sp, #52]
 4250 1cc0 8381     		strh	r3, [r0, #12]
 4251              		.loc 1 201 0
 4252 1cc2 0F9B     		ldr	r3, [sp, #60]
 4253 1cc4 1FA8     		add	r0, sp, #124
 4254 1cc6 0088     		ldrh	r0, [r0]
 4255 1cc8 9B89     		ldrh	r3, [r3, #12]
 4256 1cca 2090     		str	r0, [sp, #128]
 4257 1ccc C018     		add	r0, r0, r3
 4258 1cce 0990     		str	r0, [sp, #36]
 4259 1cd0 4993     		str	r3, [sp, #292]
 4260 1cd2 2420     		mov	r0, #36
 4261 1cd4 6B46     		mov	r3, sp
 4262 1cd6 C05A     		ldrh	r0, [r0, r3]
 4263 1cd8 069B     		ldr	r3, [sp, #24]
 4264 1cda 9881     		strh	r0, [r3, #12]
 4265              		.loc 1 200 0
 4266 1cdc 1098     		ldr	r0, [sp, #64]
 4267 1cde 2AAB     		add	r3, sp, #168
 4268 1ce0 C089     		ldrh	r0, [r0, #14]
 4269 1ce2 1B88     		ldrh	r3, [r3]
 4270 1ce4 4A90     		str	r0, [sp, #296]
 4271 1ce6 1F93     		str	r3, [sp, #124]
 4272 1ce8 1B18     		add	r3, r3, r0
 4273 1cea 0993     		str	r3, [sp, #36]
 4274 1cec 6846     		mov	r0, sp
 4275 1cee 2423     		mov	r3, #36
 4276 1cf0 1B5A     		ldrh	r3, [r3, r0]
 4277 1cf2 0D98     		ldr	r0, [sp, #52]
 4278 1cf4 C381     		strh	r3, [r0, #14]
 4279              		.loc 1 201 0
 4280 1cf6 0F9B     		ldr	r3, [sp, #60]
 4281 1cf8 2BA8     		add	r0, sp, #172
 4282 1cfa 0088     		ldrh	r0, [r0]
 4283 1cfc DB89     		ldrh	r3, [r3, #14]
 4284 1cfe 1A90     		str	r0, [sp, #104]
 4285 1d00 C018     		add	r0, r0, r3
 4286 1d02 0990     		str	r0, [sp, #36]
 4287 1d04 2B93     		str	r3, [sp, #172]
 4288 1d06 2420     		mov	r0, #36
 4289 1d08 6B46     		mov	r3, sp
 4290 1d0a C05A     		ldrh	r0, [r0, r3]
 4291 1d0c 069B     		ldr	r3, [sp, #24]
 4292 1d0e D881     		strh	r0, [r3, #14]
 4293              		.loc 1 200 0
 4294 1d10 1098     		ldr	r0, [sp, #64]
 4295 1d12 30AB     		add	r3, sp, #192
 4296 1d14 1B88     		ldrh	r3, [r3]
 4297 1d16 05E0     		b	.L59
 4298              	.L60:
ARM GAS  C:\Users\asha\AppData\Local\Temp\ccstE6wQ.s 			page 80


 4299              		.align	2
 4300              	.L58:
 4301 1d18 5F010000 		.word	351
 4302 1d1c 61010000 		.word	353
 4303 1d20 63010000 		.word	355
 4304              	.L59:
 4305 1d24 008A     		ldrh	r0, [r0, #16]
 4306 1d26 1E93     		str	r3, [sp, #120]
 4307 1d28 1B18     		add	r3, r3, r0
 4308 1d2a 0993     		str	r3, [sp, #36]
 4309 1d2c 3090     		str	r0, [sp, #192]
 4310 1d2e 2423     		mov	r3, #36
 4311 1d30 6846     		mov	r0, sp
 4312 1d32 1B5A     		ldrh	r3, [r3, r0]
 4313 1d34 0D98     		ldr	r0, [sp, #52]
 4314 1d36 0382     		strh	r3, [r0, #16]
 4315              		.loc 1 201 0
 4316 1d38 0F9B     		ldr	r3, [sp, #60]
 4317 1d3a 31A8     		add	r0, sp, #196
 4318 1d3c 0088     		ldrh	r0, [r0]
 4319 1d3e 1B8A     		ldrh	r3, [r3, #16]
 4320 1d40 1D90     		str	r0, [sp, #116]
 4321 1d42 C018     		add	r0, r0, r3
 4322 1d44 0990     		str	r0, [sp, #36]
 4323 1d46 3193     		str	r3, [sp, #196]
 4324 1d48 2420     		mov	r0, #36
 4325 1d4a 6B46     		mov	r3, sp
 4326 1d4c C05A     		ldrh	r0, [r0, r3]
 4327 1d4e 069B     		ldr	r3, [sp, #24]
 4328 1d50 1882     		strh	r0, [r3, #16]
 4329              		.loc 1 200 0
 4330 1d52 1098     		ldr	r0, [sp, #64]
 4331 1d54 32AB     		add	r3, sp, #200
 4332 1d56 1B88     		ldrh	r3, [r3]
 4333 1d58 408A     		ldrh	r0, [r0, #18]
 4334 1d5a 1793     		str	r3, [sp, #92]
 4335 1d5c 1B18     		add	r3, r3, r0
 4336 1d5e 0993     		str	r3, [sp, #36]
 4337 1d60 3290     		str	r0, [sp, #200]
 4338 1d62 2423     		mov	r3, #36
 4339 1d64 6846     		mov	r0, sp
 4340 1d66 1B5A     		ldrh	r3, [r3, r0]
 4341 1d68 0D98     		ldr	r0, [sp, #52]
 4342 1d6a 4382     		strh	r3, [r0, #18]
 4343              		.loc 1 201 0
 4344 1d6c 0F9B     		ldr	r3, [sp, #60]
 4345 1d6e 33A8     		add	r0, sp, #204
 4346 1d70 0088     		ldrh	r0, [r0]
 4347 1d72 5B8A     		ldrh	r3, [r3, #18]
 4348 1d74 1690     		str	r0, [sp, #88]
 4349 1d76 C018     		add	r0, r0, r3
 4350 1d78 0990     		str	r0, [sp, #36]
 4351 1d7a 3393     		str	r3, [sp, #204]
 4352 1d7c 2420     		mov	r0, #36
 4353 1d7e 6B46     		mov	r3, sp
 4354 1d80 C05A     		ldrh	r0, [r0, r3]
 4355 1d82 069B     		ldr	r3, [sp, #24]
ARM GAS  C:\Users\asha\AppData\Local\Temp\ccstE6wQ.s 			page 81


 4356 1d84 5882     		strh	r0, [r3, #18]
 4357              		.loc 1 200 0
 4358 1d86 1098     		ldr	r0, [sp, #64]
 4359 1d88 34AB     		add	r3, sp, #208
 4360 1d8a 1B88     		ldrh	r3, [r3]
 4361 1d8c 808A     		ldrh	r0, [r0, #20]
 4362 1d8e 1593     		str	r3, [sp, #84]
 4363 1d90 1B18     		add	r3, r3, r0
 4364 1d92 0993     		str	r3, [sp, #36]
 4365 1d94 3490     		str	r0, [sp, #208]
 4366 1d96 2423     		mov	r3, #36
 4367 1d98 6846     		mov	r0, sp
 4368 1d9a 1B5A     		ldrh	r3, [r3, r0]
 4369 1d9c 0D98     		ldr	r0, [sp, #52]
 4370 1d9e 8382     		strh	r3, [r0, #20]
 4371              		.loc 1 201 0
 4372 1da0 0F9B     		ldr	r3, [sp, #60]
 4373 1da2 35A8     		add	r0, sp, #212
 4374 1da4 0088     		ldrh	r0, [r0]
 4375 1da6 9B8A     		ldrh	r3, [r3, #20]
 4376 1da8 1490     		str	r0, [sp, #80]
 4377 1daa C018     		add	r0, r0, r3
 4378 1dac 0990     		str	r0, [sp, #36]
 4379 1dae 3593     		str	r3, [sp, #212]
 4380 1db0 2420     		mov	r0, #36
 4381 1db2 6B46     		mov	r3, sp
 4382 1db4 C05A     		ldrh	r0, [r0, r3]
 4383 1db6 069B     		ldr	r3, [sp, #24]
 4384 1db8 9882     		strh	r0, [r3, #20]
 4385              		.loc 1 200 0
 4386 1dba 1098     		ldr	r0, [sp, #64]
 4387 1dbc 36AB     		add	r3, sp, #216
 4388 1dbe 1B88     		ldrh	r3, [r3]
 4389 1dc0 C08A     		ldrh	r0, [r0, #22]
 4390 1dc2 1393     		str	r3, [sp, #76]
 4391 1dc4 1B18     		add	r3, r3, r0
 4392 1dc6 0993     		str	r3, [sp, #36]
 4393 1dc8 3690     		str	r0, [sp, #216]
 4394 1dca 2423     		mov	r3, #36
 4395 1dcc 6846     		mov	r0, sp
 4396 1dce 1B5A     		ldrh	r3, [r3, r0]
 4397 1dd0 0D98     		ldr	r0, [sp, #52]
 4398 1dd2 C382     		strh	r3, [r0, #22]
 4399              		.loc 1 201 0
 4400 1dd4 0F9B     		ldr	r3, [sp, #60]
 4401 1dd6 37A8     		add	r0, sp, #220
 4402 1dd8 0088     		ldrh	r0, [r0]
 4403 1dda DB8A     		ldrh	r3, [r3, #22]
 4404 1ddc 1290     		str	r0, [sp, #72]
 4405 1dde C018     		add	r0, r0, r3
 4406 1de0 0990     		str	r0, [sp, #36]
 4407 1de2 3793     		str	r3, [sp, #220]
 4408 1de4 2420     		mov	r0, #36
 4409 1de6 6B46     		mov	r3, sp
 4410 1de8 C05A     		ldrh	r0, [r0, r3]
 4411 1dea 069B     		ldr	r3, [sp, #24]
 4412 1dec D882     		strh	r0, [r3, #22]
ARM GAS  C:\Users\asha\AppData\Local\Temp\ccstE6wQ.s 			page 82


 4413              		.loc 1 200 0
 4414 1dee 1098     		ldr	r0, [sp, #64]
 4415 1df0 38AB     		add	r3, sp, #224
 4416 1df2 1B88     		ldrh	r3, [r3]
 4417 1df4 008B     		ldrh	r0, [r0, #24]
 4418 1df6 1993     		str	r3, [sp, #100]
 4419 1df8 1B18     		add	r3, r3, r0
 4420 1dfa 0993     		str	r3, [sp, #36]
 4421 1dfc 3890     		str	r0, [sp, #224]
 4422 1dfe 2423     		mov	r3, #36
 4423 1e00 6846     		mov	r0, sp
 4424 1e02 1B5A     		ldrh	r3, [r3, r0]
 4425 1e04 0D98     		ldr	r0, [sp, #52]
 4426 1e06 0383     		strh	r3, [r0, #24]
 4427              		.loc 1 201 0
 4428 1e08 0F9B     		ldr	r3, [sp, #60]
 4429 1e0a 39A8     		add	r0, sp, #228
 4430 1e0c 0088     		ldrh	r0, [r0]
 4431 1e0e 1B8B     		ldrh	r3, [r3, #24]
 4432 1e10 1190     		str	r0, [sp, #68]
 4433 1e12 C018     		add	r0, r0, r3
 4434 1e14 0990     		str	r0, [sp, #36]
 4435 1e16 3993     		str	r3, [sp, #228]
 4436 1e18 2420     		mov	r0, #36
 4437 1e1a 6B46     		mov	r3, sp
 4438 1e1c C05A     		ldrh	r0, [r0, r3]
 4439 1e1e 069B     		ldr	r3, [sp, #24]
 4440 1e20 1883     		strh	r0, [r3, #24]
 4441              		.loc 1 200 0
 4442 1e22 1098     		ldr	r0, [sp, #64]
 4443 1e24 3AAB     		add	r3, sp, #232
 4444 1e26 1B88     		ldrh	r3, [r3]
 4445 1e28 408B     		ldrh	r0, [r0, #26]
 4446 1e2a 0C93     		str	r3, [sp, #48]
 4447 1e2c 1B18     		add	r3, r3, r0
 4448 1e2e 0993     		str	r3, [sp, #36]
 4449 1e30 3A90     		str	r0, [sp, #232]
 4450 1e32 2423     		mov	r3, #36
 4451 1e34 6846     		mov	r0, sp
 4452 1e36 1B5A     		ldrh	r3, [r3, r0]
 4453 1e38 0D98     		ldr	r0, [sp, #52]
 4454 1e3a 4383     		strh	r3, [r0, #26]
 4455              		.loc 1 201 0
 4456 1e3c 0F9B     		ldr	r3, [sp, #60]
 4457 1e3e 3BA8     		add	r0, sp, #236
 4458 1e40 0088     		ldrh	r0, [r0]
 4459 1e42 5B8B     		ldrh	r3, [r3, #26]
 4460 1e44 0B90     		str	r0, [sp, #44]
 4461 1e46 C018     		add	r0, r0, r3
 4462 1e48 0990     		str	r0, [sp, #36]
 4463 1e4a 3B93     		str	r3, [sp, #236]
 4464 1e4c 2420     		mov	r0, #36
 4465 1e4e 6B46     		mov	r3, sp
 4466 1e50 C05A     		ldrh	r0, [r0, r3]
 4467 1e52 069B     		ldr	r3, [sp, #24]
 4468 1e54 5883     		strh	r0, [r3, #26]
 4469              		.loc 1 200 0
ARM GAS  C:\Users\asha\AppData\Local\Temp\ccstE6wQ.s 			page 83


 4470 1e56 1098     		ldr	r0, [sp, #64]
 4471 1e58 3CAB     		add	r3, sp, #240
 4472 1e5a 1B88     		ldrh	r3, [r3]
 4473 1e5c 808B     		ldrh	r0, [r0, #28]
 4474 1e5e 0993     		str	r3, [sp, #36]
 4475 1e60 1B18     		add	r3, r3, r0
 4476 1e62 0E93     		str	r3, [sp, #56]
 4477 1e64 3C90     		str	r0, [sp, #240]
 4478 1e66 3823     		mov	r3, #56
 4479 1e68 6846     		mov	r0, sp
 4480 1e6a 1B5A     		ldrh	r3, [r3, r0]
 4481 1e6c 0D98     		ldr	r0, [sp, #52]
 4482 1e6e 8383     		strh	r3, [r0, #28]
 4483              		.loc 1 201 0
 4484 1e70 0F9B     		ldr	r3, [sp, #60]
 4485 1e72 3DA8     		add	r0, sp, #244
 4486 1e74 0088     		ldrh	r0, [r0]
 4487 1e76 9B8B     		ldrh	r3, [r3, #28]
 4488 1e78 0E90     		str	r0, [sp, #56]
 4489 1e7a C018     		add	r0, r0, r3
 4490 1e7c 2A90     		str	r0, [sp, #168]
 4491 1e7e 3D93     		str	r3, [sp, #244]
 4492 1e80 2AAB     		add	r3, sp, #168
 4493 1e82 1888     		ldrh	r0, [r3]
 4494 1e84 069B     		ldr	r3, [sp, #24]
 4495 1e86 9883     		strh	r0, [r3, #28]
 4496              		.loc 1 200 0
 4497 1e88 1098     		ldr	r0, [sp, #64]
 4498 1e8a 29AB     		add	r3, sp, #164
 4499 1e8c 1B88     		ldrh	r3, [r3]
 4500 1e8e C08B     		ldrh	r0, [r0, #30]
 4501 1e90 2A93     		str	r3, [sp, #168]
 4502 1e92 1B18     		add	r3, r3, r0
 4503 1e94 2993     		str	r3, [sp, #164]
 4504 1e96 4B90     		str	r0, [sp, #300]
 4505 1e98 29A8     		add	r0, sp, #164
 4506 1e9a 0388     		ldrh	r3, [r0]
 4507 1e9c 0D98     		ldr	r0, [sp, #52]
 4508              		.loc 1 201 0
 4509 1e9e 2991     		str	r1, [sp, #164]
 4510              		.loc 1 200 0
 4511 1ea0 C383     		strh	r3, [r0, #30]
 4512              		.loc 1 201 0
 4513 1ea2 0F9B     		ldr	r3, [sp, #60]
 4514 1ea4 D88B     		ldrh	r0, [r3, #30]
 4515 1ea6 069B     		ldr	r3, [sp, #24]
 4516 1ea8 0918     		add	r1, r1, r0
 4517 1eaa 0190     		str	r0, [sp, #4]
 202:.\main.c      **** 		}
 203:.\main.c      **** 		
 204:.\main.c      **** 		for(localcounter = 16; localcounter< 32; localcounter++)
 205:.\main.c      **** 		{
 206:.\main.c      **** 			real0[i + localcounter] = real1[i + localcounter - 16] - interreal[localcounter % 16];
 4518              		.loc 1 206 0
 4519 1eac 0298     		ldr	r0, [sp, #8]
 4520              		.loc 1 201 0
 4521 1eae D983     		strh	r1, [r3, #30]
ARM GAS  C:\Users\asha\AppData\Local\Temp\ccstE6wQ.s 			page 84


 4522              		.loc 1 206 0
 4523 1eb0 0D99     		ldr	r1, [sp, #52]
 4524 1eb2 131A     		sub	r3, r2, r0
 4525 1eb4 0B84     		strh	r3, [r1, #32]
 207:.\main.c      **** 			img0[i + localcounter] = img1[i + localcounter - 16] - interimg[localcounter % 16];
 4526              		.loc 1 207 0
 4527 1eb6 3E9A     		ldr	r2, [sp, #248]
 4528 1eb8 2F98     		ldr	r0, [sp, #188]
 4529 1eba 0699     		ldr	r1, [sp, #24]
 4530 1ebc 131A     		sub	r3, r2, r0
 4531              		.loc 1 39 0
 4532 1ebe 0A98     		ldr	r0, [sp, #40]
 4533              		.loc 1 207 0
 4534 1ec0 0B84     		strh	r3, [r1, #32]
 4535              		.loc 1 206 0
 4536 1ec2 5A46     		mov	r2, fp
 4537              		.loc 1 39 0
 4538 1ec4 031C     		mov	r3, r0
 4539              		.loc 1 206 0
 4540 1ec6 6146     		mov	r1, ip
 4541              		.loc 1 39 0
 4542 1ec8 4B44     		add	r3, r3, r9
 4543              		.loc 1 206 0
 4544 1eca 881A     		sub	r0, r1, r2
 4545 1ecc 5884     		strh	r0, [r3, #34]
 4546              		.loc 1 39 0
 4547 1ece 0A99     		ldr	r1, [sp, #40]
 4548 1ed0 E148     		ldr	r0, .L61
 4549 1ed2 4218     		add	r2, r0, r1
 4550              		.loc 1 207 0
 4551 1ed4 2E99     		ldr	r1, [sp, #184]
 4552 1ed6 3F98     		ldr	r0, [sp, #252]
 4553 1ed8 401A     		sub	r0, r0, r1
 4554 1eda 5084     		strh	r0, [r2, #34]
 4555              		.loc 1 206 0
 4556 1edc 4099     		ldr	r1, [sp, #256]
 4557 1ede 2D98     		ldr	r0, [sp, #180]
 4558 1ee0 091A     		sub	r1, r1, r0
 4559 1ee2 9984     		strh	r1, [r3, #36]
 4560              		.loc 1 207 0
 4561 1ee4 4198     		ldr	r0, [sp, #260]
 4562 1ee6 2C99     		ldr	r1, [sp, #176]
 4563 1ee8 401A     		sub	r0, r0, r1
 4564 1eea 9084     		strh	r0, [r2, #36]
 4565              		.loc 1 206 0
 4566 1eec 4299     		ldr	r1, [sp, #264]
 4567 1eee 2798     		ldr	r0, [sp, #156]
 4568 1ef0 091A     		sub	r1, r1, r0
 4569 1ef2 D984     		strh	r1, [r3, #38]
 4570              		.loc 1 207 0
 4571 1ef4 4398     		ldr	r0, [sp, #268]
 4572 1ef6 2699     		ldr	r1, [sp, #152]
 4573 1ef8 401A     		sub	r0, r0, r1
 4574 1efa D084     		strh	r0, [r2, #38]
 4575              		.loc 1 206 0
 4576 1efc 4499     		ldr	r1, [sp, #272]
 4577 1efe 2598     		ldr	r0, [sp, #148]
ARM GAS  C:\Users\asha\AppData\Local\Temp\ccstE6wQ.s 			page 85


 4578 1f00 091A     		sub	r1, r1, r0
 4579 1f02 1985     		strh	r1, [r3, #40]
 4580              		.loc 1 207 0
 4581 1f04 4598     		ldr	r0, [sp, #276]
 4582 1f06 2499     		ldr	r1, [sp, #144]
 4583 1f08 401A     		sub	r0, r0, r1
 4584 1f0a 1085     		strh	r0, [r2, #40]
 4585              		.loc 1 206 0
 4586 1f0c 4699     		ldr	r1, [sp, #280]
 4587 1f0e 2398     		ldr	r0, [sp, #140]
 4588 1f10 091A     		sub	r1, r1, r0
 4589 1f12 5985     		strh	r1, [r3, #42]
 4590              		.loc 1 207 0
 4591 1f14 4798     		ldr	r0, [sp, #284]
 4592 1f16 2299     		ldr	r1, [sp, #136]
 4593 1f18 401A     		sub	r0, r0, r1
 4594 1f1a 5085     		strh	r0, [r2, #42]
 4595              		.loc 1 206 0
 4596 1f1c 2198     		ldr	r0, [sp, #132]
 4597 1f1e 4899     		ldr	r1, [sp, #288]
 4598 1f20 091A     		sub	r1, r1, r0
 4599 1f22 9985     		strh	r1, [r3, #44]
 4600              		.loc 1 207 0
 4601 1f24 4998     		ldr	r0, [sp, #292]
 4602 1f26 2099     		ldr	r1, [sp, #128]
 4603 1f28 401A     		sub	r0, r0, r1
 4604 1f2a 9085     		strh	r0, [r2, #44]
 4605              		.loc 1 206 0
 4606 1f2c 4A99     		ldr	r1, [sp, #296]
 4607 1f2e 1F98     		ldr	r0, [sp, #124]
 4608 1f30 091A     		sub	r1, r1, r0
 4609 1f32 D985     		strh	r1, [r3, #46]
 4610              		.loc 1 207 0
 4611 1f34 2B98     		ldr	r0, [sp, #172]
 4612 1f36 1A99     		ldr	r1, [sp, #104]
 4613 1f38 401A     		sub	r0, r0, r1
 4614 1f3a D085     		strh	r0, [r2, #46]
 4615              		.loc 1 206 0
 4616 1f3c 3099     		ldr	r1, [sp, #192]
 4617 1f3e 1E98     		ldr	r0, [sp, #120]
 4618 1f40 091A     		sub	r1, r1, r0
 4619 1f42 1986     		strh	r1, [r3, #48]
 4620              		.loc 1 207 0
 4621 1f44 3198     		ldr	r0, [sp, #196]
 4622 1f46 1D99     		ldr	r1, [sp, #116]
 4623 1f48 401A     		sub	r0, r0, r1
 4624 1f4a 1086     		strh	r0, [r2, #48]
 4625              		.loc 1 206 0
 4626 1f4c 3299     		ldr	r1, [sp, #200]
 4627 1f4e 1798     		ldr	r0, [sp, #92]
 4628 1f50 091A     		sub	r1, r1, r0
 4629 1f52 5986     		strh	r1, [r3, #50]
 4630              		.loc 1 207 0
 4631 1f54 3398     		ldr	r0, [sp, #204]
 4632 1f56 1699     		ldr	r1, [sp, #88]
 4633 1f58 401A     		sub	r0, r0, r1
 4634 1f5a 5086     		strh	r0, [r2, #50]
ARM GAS  C:\Users\asha\AppData\Local\Temp\ccstE6wQ.s 			page 86


 4635              		.loc 1 206 0
 4636 1f5c 3499     		ldr	r1, [sp, #208]
 4637 1f5e 1598     		ldr	r0, [sp, #84]
 4638 1f60 091A     		sub	r1, r1, r0
 4639 1f62 9986     		strh	r1, [r3, #52]
 4640              		.loc 1 207 0
 4641 1f64 3598     		ldr	r0, [sp, #212]
 4642 1f66 1499     		ldr	r1, [sp, #80]
 4643 1f68 401A     		sub	r0, r0, r1
 4644 1f6a 9086     		strh	r0, [r2, #52]
 4645              		.loc 1 206 0
 4646 1f6c 3699     		ldr	r1, [sp, #216]
 4647 1f6e 1398     		ldr	r0, [sp, #76]
 4648 1f70 091A     		sub	r1, r1, r0
 4649 1f72 D986     		strh	r1, [r3, #54]
 4650              		.loc 1 207 0
 4651 1f74 3798     		ldr	r0, [sp, #220]
 4652 1f76 1299     		ldr	r1, [sp, #72]
 4653 1f78 401A     		sub	r0, r0, r1
 4654 1f7a D086     		strh	r0, [r2, #54]
 4655              		.loc 1 206 0
 4656 1f7c 1998     		ldr	r0, [sp, #100]
 4657 1f7e 3899     		ldr	r1, [sp, #224]
 4658 1f80 091A     		sub	r1, r1, r0
 4659 1f82 1987     		strh	r1, [r3, #56]
 4660              		.loc 1 207 0
 4661 1f84 3998     		ldr	r0, [sp, #228]
 4662 1f86 1199     		ldr	r1, [sp, #68]
 4663 1f88 401A     		sub	r0, r0, r1
 4664 1f8a 1087     		strh	r0, [r2, #56]
 4665              		.loc 1 206 0
 4666 1f8c 3A99     		ldr	r1, [sp, #232]
 4667 1f8e 0C98     		ldr	r0, [sp, #48]
 4668 1f90 091A     		sub	r1, r1, r0
 4669 1f92 5987     		strh	r1, [r3, #58]
 4670              		.loc 1 207 0
 4671 1f94 3B98     		ldr	r0, [sp, #236]
 4672 1f96 0B99     		ldr	r1, [sp, #44]
 4673 1f98 401A     		sub	r0, r0, r1
 4674 1f9a 5087     		strh	r0, [r2, #58]
 4675              		.loc 1 206 0
 4676 1f9c 3C99     		ldr	r1, [sp, #240]
 4677 1f9e 0998     		ldr	r0, [sp, #36]
 4678 1fa0 091A     		sub	r1, r1, r0
 4679 1fa2 9987     		strh	r1, [r3, #60]
 4680              		.loc 1 207 0
 4681 1fa4 3D98     		ldr	r0, [sp, #244]
 4682 1fa6 0E99     		ldr	r1, [sp, #56]
 4683 1fa8 401A     		sub	r0, r0, r1
 4684 1faa 9087     		strh	r0, [r2, #60]
 4685              		.loc 1 206 0
 4686 1fac 4B99     		ldr	r1, [sp, #300]
 4687 1fae 2A98     		ldr	r0, [sp, #168]
 4688 1fb0 091A     		sub	r1, r1, r0
 4689 1fb2 D987     		strh	r1, [r3, #62]
 4690              		.loc 1 207 0
 4691 1fb4 019B     		ldr	r3, [sp, #4]
ARM GAS  C:\Users\asha\AppData\Local\Temp\ccstE6wQ.s 			page 87


 4692 1fb6 2999     		ldr	r1, [sp, #164]
 4693 1fb8 581A     		sub	r0, r3, r1
 4694 1fba 0A9B     		ldr	r3, [sp, #40]
 4695 1fbc D087     		strh	r0, [r2, #62]
 4696 1fbe 4033     		add	r3, r3, #64
 4697 1fc0 1098     		ldr	r0, [sp, #64]
 4698 1fc2 0F99     		ldr	r1, [sp, #60]
 4699 1fc4 0D9A     		ldr	r2, [sp, #52]
 4700 1fc6 0A93     		str	r3, [sp, #40]
 4701 1fc8 069B     		ldr	r3, [sp, #24]
 4702 1fca 4030     		add	r0, r0, #64
 4703 1fcc 4031     		add	r1, r1, #64
 4704 1fce 4032     		add	r2, r2, #64
 4705 1fd0 4033     		add	r3, r3, #64
 4706 1fd2 1090     		str	r0, [sp, #64]
 4707 1fd4 0F91     		str	r1, [sp, #60]
 4708 1fd6 0D92     		str	r2, [sp, #52]
 4709 1fd8 0693     		str	r3, [sp, #24]
 4710              		.loc 1 188 0
 4711 1fda 0A98     		ldr	r0, [sp, #40]
 4712 1fdc 8028     		cmp	r0, #128
 4713 1fde 01D0     		beq	.LCB4083
 4714 1fe0 FFF7BDFA 		bl	.L8	@far jump
 4715              	.LCB4083:
 208:.\main.c      **** 		}
 209:.\main.c      **** 		i = i+32;
 210:.\main.c      **** 	}
 211:.\main.c      **** 	
 212:.\main.c      **** 	/* Sixth stage of FFT Radix 2, 64 point FFT */
 213:.\main.c      **** 	for(i=0; i< NUM_FFT; )
 214:.\main.c      **** 	{
 215:.\main.c      **** 	for(j = 0; j< 32; j++)
 216:.\main.c      **** 	{
 217:.\main.c      **** 		interreal[j] = ((real0[i+ j + 32] * twiddlereal[array2[j]]) - (img0[i+j + 32] * twiddleimg[array2
 218:.\main.c      **** 		interimg[j] = ((real0[i+ j + 32] * twiddleimg[array2[j]]) + (img0[i+j + 32] * twiddlereal[array2[
 219:.\main.c      **** 				
 220:.\main.c      **** 	}
 221:.\main.c      **** 		
 222:.\main.c      **** 	for(localcounter = 0; localcounter< 32; localcounter++)
 223:.\main.c      **** 	{
 224:.\main.c      **** 		real1[i + localcounter] = real0[i+localcounter] + interreal[localcounter];
 225:.\main.c      **** 		img1[i + localcounter] = img0[i+localcounter] + interimg[localcounter];
 226:.\main.c      **** 	}
 227:.\main.c      **** 	
 228:.\main.c      **** 	for(localcounter = 32; localcounter< 64; localcounter++)
 4716              		.loc 1 228 0
 4717 1fe4 6B46     		mov	r3, sp
 4718 1fe6 3533     		add	r3, r3, #53
 4719 1fe8 FF33     		add	r3, r3, #255
 4720 1fea 0693     		str	r3, [sp, #24]
 4721 1fec 0023     		mov	r3, #0
 4722              	.L10:
 4723              		.loc 1 217 0
 4724 1fee 4846     		mov	r0, r9
 4725 1ff0 C218     		add	r2, r0, r3
 4726 1ff2 4032     		add	r2, r2, #64
 4727 1ff4 0020     		mov	r0, #0
ARM GAS  C:\Users\asha\AppData\Local\Temp\ccstE6wQ.s 			page 88


 4728 1ff6 115E     		ldrsh	r1, [r2, r0]
 4729 1ff8 069A     		ldr	r2, [sp, #24]
 4730 1ffa 0A91     		str	r1, [sp, #40]
 4731 1ffc 1078     		ldrb	r0, [r2]
 4732 1ffe 4100     		lsl	r1, r0, #1
 4733 2000 081C     		mov	r0, r1
 4734 2002 5044     		add	r0, r0, sl
 4735 2004 8B46     		mov	fp, r1
 4736 2006 0021     		mov	r1, #0
 4737 2008 415E     		ldrsh	r1, [r0, r1]
 4738 200a 9348     		ldr	r0, .L61
 4739 200c C218     		add	r2, r0, r3
 4740 200e 4032     		add	r2, r2, #64
 4741 2010 0020     		mov	r0, #0
 4742 2012 125E     		ldrsh	r2, [r2, r0]
 4743 2014 0992     		str	r2, [sp, #36]
 4744 2016 5A46     		mov	r2, fp
 4745 2018 4244     		add	r2, r2, r8
 4746 201a 0020     		mov	r0, #0
 4747 201c 125E     		ldrsh	r2, [r2, r0]
 4748 201e 0998     		ldr	r0, [sp, #36]
 4749 2020 0D92     		str	r2, [sp, #52]
 4750 2022 0A9A     		ldr	r2, [sp, #40]
 4751 2024 4A43     		mul	r2, r1
 4752 2026 9446     		mov	ip, r2
 4753 2028 0D9A     		ldr	r2, [sp, #52]
 4754 202a 5043     		mul	r0, r2
 4755 202c 6246     		mov	r2, ip
 4756 202e 121A     		sub	r2, r2, r0
 4757 2030 D017     		asr	r0, r2, #31
 4758 2032 9446     		mov	ip, r2
 4759 2034 020E     		lsr	r2, r0, #24
 4760 2036 9346     		mov	fp, r2
 4761 2038 DC44     		add	ip, ip, fp
 4762              		.loc 1 218 0
 4763 203a 099A     		ldr	r2, [sp, #36]
 4764              		.loc 1 217 0
 4765 203c 6046     		mov	r0, ip
 4766 203e 0012     		asr	r0, r0, #8
 4767 2040 5853     		strh	r0, [r3, r5]
 4768              		.loc 1 218 0
 4769 2042 5143     		mul	r1, r2
 4770 2044 0D98     		ldr	r0, [sp, #52]
 4771 2046 0A9A     		ldr	r2, [sp, #40]
 4772 2048 4243     		mul	r2, r0
 4773 204a 8818     		add	r0, r1, r2
 4774 204c C217     		asr	r2, r0, #31
 4775 204e 120E     		lsr	r2, r2, #24
 4776 2050 1118     		add	r1, r2, r0
 4777 2052 0812     		asr	r0, r1, #8
 4778 2054 1853     		strh	r0, [r3, r4]
 4779              		.loc 1 217 0
 4780 2056 4946     		mov	r1, r9
 4781              		.loc 1 218 0
 4782 2058 0233     		add	r3, r3, #2
 4783              		.loc 1 217 0
 4784 205a CA18     		add	r2, r1, r3
ARM GAS  C:\Users\asha\AppData\Local\Temp\ccstE6wQ.s 			page 89


 4785 205c 4032     		add	r2, r2, #64
 4786 205e 0021     		mov	r1, #0
 4787 2060 505E     		ldrsh	r0, [r2, r1]
 4788 2062 069A     		ldr	r2, [sp, #24]
 4789 2064 0990     		str	r0, [sp, #36]
 4790 2066 5078     		ldrb	r0, [r2, #1]
 4791 2068 7B4A     		ldr	r2, .L61
 4792 206a 4100     		lsl	r1, r0, #1
 4793 206c 081C     		mov	r0, r1
 4794 206e 5044     		add	r0, r0, sl
 4795 2070 8B46     		mov	fp, r1
 4796 2072 0021     		mov	r1, #0
 4797 2074 405E     		ldrsh	r0, [r0, r1]
 4798 2076 D118     		add	r1, r2, r3
 4799 2078 5A46     		mov	r2, fp
 4800 207a 0A90     		str	r0, [sp, #40]
 4801 207c 4244     		add	r2, r2, r8
 4802 207e 081C     		mov	r0, r1
 4803 2080 0021     		mov	r1, #0
 4804 2082 525E     		ldrsh	r2, [r2, r1]
 4805 2084 4030     		add	r0, r0, #64
 4806 2086 0021     		mov	r1, #0
 4807 2088 405E     		ldrsh	r0, [r0, r1]
 4808 208a 0D92     		str	r2, [sp, #52]
 4809 208c 0A99     		ldr	r1, [sp, #40]
 4810 208e 099A     		ldr	r2, [sp, #36]
 4811 2090 4A43     		mul	r2, r1
 4812 2092 9446     		mov	ip, r2
 4813 2094 0D9A     		ldr	r2, [sp, #52]
 4814 2096 6146     		mov	r1, ip
 4815 2098 4243     		mul	r2, r0
 4816 209a 891A     		sub	r1, r1, r2
 4817 209c CA17     		asr	r2, r1, #31
 4818 209e 8C46     		mov	ip, r1
 4819 20a0 110E     		lsr	r1, r2, #24
 4820 20a2 8B46     		mov	fp, r1
 4821 20a4 DC44     		add	ip, ip, fp
 4822              		.loc 1 218 0
 4823 20a6 0A99     		ldr	r1, [sp, #40]
 4824              		.loc 1 217 0
 4825 20a8 6246     		mov	r2, ip
 4826 20aa 1212     		asr	r2, r2, #8
 4827 20ac 5A53     		strh	r2, [r3, r5]
 4828              		.loc 1 218 0
 4829 20ae 4143     		mul	r1, r0
 4830 20b0 099A     		ldr	r2, [sp, #36]
 4831 20b2 0D98     		ldr	r0, [sp, #52]
 4832 20b4 4243     		mul	r2, r0
 4833 20b6 8918     		add	r1, r1, r2
 4834 20b8 C817     		asr	r0, r1, #31
 4835 20ba 020E     		lsr	r2, r0, #24
 4836 20bc 5018     		add	r0, r2, r1
 4837 20be 0212     		asr	r2, r0, #8
 4838 20c0 1A53     		strh	r2, [r3, r4]
 4839 20c2 0699     		ldr	r1, [sp, #24]
 4840 20c4 0233     		add	r3, r3, #2
 4841 20c6 0231     		add	r1, r1, #2
ARM GAS  C:\Users\asha\AppData\Local\Temp\ccstE6wQ.s 			page 90


 4842 20c8 0691     		str	r1, [sp, #24]
 4843              		.loc 1 215 0
 4844 20ca 402B     		cmp	r3, #64
 4845 20cc 8FD1     		bne	.L10
 4846 20ce 0023     		mov	r3, #0
 4847              	.L11:
 4848              		.loc 1 224 0
 4849 20d0 4846     		mov	r0, r9
 4850 20d2 595B     		ldrh	r1, [r3, r5]
 4851 20d4 1A5A     		ldrh	r2, [r3, r0]
 4852              		.loc 1 225 0
 4853 20d6 6048     		ldr	r0, .L61
 4854              		.loc 1 224 0
 4855 20d8 8A18     		add	r2, r1, r2
 4856 20da DA53     		strh	r2, [r3, r7]
 4857              		.loc 1 225 0
 4858 20dc 195B     		ldrh	r1, [r3, r4]
 4859 20de 1A5A     		ldrh	r2, [r3, r0]
 4860              		.loc 1 224 0
 4861 20e0 4846     		mov	r0, r9
 4862              		.loc 1 225 0
 4863 20e2 8A18     		add	r2, r1, r2
 4864 20e4 9A53     		strh	r2, [r3, r6]
 4865 20e6 0233     		add	r3, r3, #2
 4866              		.loc 1 224 0
 4867 20e8 595B     		ldrh	r1, [r3, r5]
 4868 20ea 1A5A     		ldrh	r2, [r3, r0]
 4869              		.loc 1 225 0
 4870 20ec 5A48     		ldr	r0, .L61
 4871              		.loc 1 224 0
 4872 20ee 8A18     		add	r2, r1, r2
 4873 20f0 DA53     		strh	r2, [r3, r7]
 4874              		.loc 1 225 0
 4875 20f2 195B     		ldrh	r1, [r3, r4]
 4876 20f4 1A5A     		ldrh	r2, [r3, r0]
 4877 20f6 8A18     		add	r2, r1, r2
 4878 20f8 9A53     		strh	r2, [r3, r6]
 4879 20fa 0233     		add	r3, r3, #2
 4880              		.loc 1 222 0
 4881 20fc 402B     		cmp	r3, #64
 4882 20fe E7D1     		bne	.L11
 4883 2100 0023     		mov	r3, #0
 4884 2102 2022     		mov	r2, #32
 4885              	.L12:
 229:.\main.c      **** 	{
 230:.\main.c      **** 		real1[i + localcounter] = real0[i + localcounter - 32] - interreal[localcounter % 32];
 4886              		.loc 1 230 0
 4887 2104 F818     		add	r0, r7, r3
 4888 2106 1F21     		mov	r1, #31
 4889 2108 1140     		and	r1, r1, r2
 4890 210a 4030     		add	r0, r0, #64
 4891 210c 0690     		str	r0, [sp, #24]
 4892 210e 4800     		lsl	r0, r1, #1
 4893 2110 0990     		str	r0, [sp, #36]
 4894 2112 0998     		ldr	r0, [sp, #36]
 4895 2114 4946     		mov	r1, r9
 4896 2116 405B     		ldrh	r0, [r0, r5]
ARM GAS  C:\Users\asha\AppData\Local\Temp\ccstE6wQ.s 			page 91


 4897 2118 595A     		ldrh	r1, [r3, r1]
 231:.\main.c      **** 		img1[i + localcounter] = img0[i + localcounter - 32] - interimg[localcounter % 32];
 4898              		.loc 1 231 0
 4899 211a 0132     		add	r2, r2, #1
 4900              		.loc 1 230 0
 4901 211c 091A     		sub	r1, r1, r0
 4902 211e 081C     		add	r0, r1, #0
 4903 2120 0699     		ldr	r1, [sp, #24]
 4904 2122 0880     		strh	r0, [r1]
 4905              		.loc 1 231 0
 4906 2124 F018     		add	r0, r6, r3
 4907 2126 4030     		add	r0, r0, #64
 4908 2128 8346     		mov	fp, r0
 4909 212a 4B48     		ldr	r0, .L61
 4910 212c 195A     		ldrh	r1, [r3, r0]
 4911 212e 0998     		ldr	r0, [sp, #36]
 4912 2130 8C46     		mov	ip, r1
 4913 2132 015B     		ldrh	r1, [r0, r4]
 4914 2134 6046     		mov	r0, ip
 4915 2136 0233     		add	r3, r3, #2
 4916 2138 411A     		sub	r1, r0, r1
 4917 213a 5846     		mov	r0, fp
 4918 213c 0180     		strh	r1, [r0]
 4919              		.loc 1 230 0
 4920 213e F818     		add	r0, r7, r3
 4921 2140 1F21     		mov	r1, #31
 4922 2142 1140     		and	r1, r1, r2
 4923 2144 4030     		add	r0, r0, #64
 4924              		.loc 1 231 0
 4925 2146 0692     		str	r2, [sp, #24]
 4926              		.loc 1 230 0
 4927 2148 0990     		str	r0, [sp, #36]
 4928 214a 4900     		lsl	r1, r1, #1
 4929 214c 4A46     		mov	r2, r9
 4930 214e 485B     		ldrh	r0, [r1, r5]
 4931 2150 9A5A     		ldrh	r2, [r3, r2]
 4932 2152 121A     		sub	r2, r2, r0
 4933 2154 101C     		add	r0, r2, #0
 4934 2156 099A     		ldr	r2, [sp, #36]
 4935 2158 1080     		strh	r0, [r2]
 4936              		.loc 1 231 0
 4937 215a 3F4A     		ldr	r2, .L61
 4938 215c 095B     		ldrh	r1, [r1, r4]
 4939 215e 9A5A     		ldrh	r2, [r3, r2]
 4940 2160 F018     		add	r0, r6, r3
 4941 2162 511A     		sub	r1, r2, r1
 4942 2164 069A     		ldr	r2, [sp, #24]
 4943 2166 4030     		add	r0, r0, #64
 4944 2168 0132     		add	r2, r2, #1
 4945 216a 0180     		strh	r1, [r0]
 4946 216c 0233     		add	r3, r3, #2
 4947              		.loc 1 228 0
 4948 216e 402A     		cmp	r2, #64
 4949 2170 C8D1     		bne	.L12
 4950 2172 0023     		mov	r3, #0
 4951              	.L14:
 232:.\main.c      **** 	}
ARM GAS  C:\Users\asha\AppData\Local\Temp\ccstE6wQ.s 			page 92


 233:.\main.c      **** 		i = i+64;
 234:.\main.c      **** 	}
 235:.\main.c      **** 	/* Sveneth stage of the Radix 2 128 point FFT */
 236:.\main.c      **** 		for(j = 0; j< 64; j++)
 237:.\main.c      **** 	{
 238:.\main.c      **** 		interreal[j] = ((real1[ j + 64] * twiddlereal[j]) - (img1[j + 64] * twiddleimg[j]))/ 256;
 4952              		.loc 1 238 0
 4953 2174 FA18     		add	r2, r7, r3
 4954 2176 8032     		add	r2, r2, #128
 4955 2178 0021     		mov	r1, #0
 4956 217a 505E     		ldrsh	r0, [r2, r1]
 4957 217c F118     		add	r1, r6, r3
 4958 217e 5246     		mov	r2, sl
 4959 2180 8031     		add	r1, r1, #128
 4960 2182 0A90     		str	r0, [sp, #40]
 4961 2184 985E     		ldrsh	r0, [r3, r2]
 4962 2186 0022     		mov	r2, #0
 4963 2188 895E     		ldrsh	r1, [r1, r2]
 4964 218a 0991     		str	r1, [sp, #36]
 4965 218c 4146     		mov	r1, r8
 4966 218e 595E     		ldrsh	r1, [r3, r1]
 4967 2190 099A     		ldr	r2, [sp, #36]
 4968 2192 0691     		str	r1, [sp, #24]
 4969 2194 0A99     		ldr	r1, [sp, #40]
 4970 2196 4143     		mul	r1, r0
 4971 2198 8C46     		mov	ip, r1
 4972 219a 0699     		ldr	r1, [sp, #24]
 4973 219c 4A43     		mul	r2, r1
 4974 219e 6146     		mov	r1, ip
 4975 21a0 891A     		sub	r1, r1, r2
 4976 21a2 CA17     		asr	r2, r1, #31
 4977 21a4 8C46     		mov	ip, r1
 4978 21a6 110E     		lsr	r1, r2, #24
 4979 21a8 8B46     		mov	fp, r1
 4980 21aa DC44     		add	ip, ip, fp
 4981 21ac 6246     		mov	r2, ip
 239:.\main.c      **** 		interimg[j] = ((real1[ j + 64] * twiddleimg[j]) + (img1[j + 64] * twiddlereal[j]))/256;
 4982              		.loc 1 239 0
 4983 21ae 0999     		ldr	r1, [sp, #36]
 4984              		.loc 1 238 0
 4985 21b0 1212     		asr	r2, r2, #8
 4986 21b2 5A53     		strh	r2, [r3, r5]
 4987              		.loc 1 239 0
 4988 21b4 4143     		mul	r1, r0
 4989 21b6 0A9A     		ldr	r2, [sp, #40]
 4990 21b8 0698     		ldr	r0, [sp, #24]
 4991 21ba 4243     		mul	r2, r0
 4992 21bc 8818     		add	r0, r1, r2
 4993 21be C217     		asr	r2, r0, #31
 4994 21c0 120E     		lsr	r2, r2, #24
 4995 21c2 1118     		add	r1, r2, r0
 4996 21c4 0812     		asr	r0, r1, #8
 4997 21c6 1853     		strh	r0, [r3, r4]
 4998 21c8 0233     		add	r3, r3, #2
 4999              		.loc 1 238 0
 5000 21ca FA18     		add	r2, r7, r3
 5001 21cc 8032     		add	r2, r2, #128
ARM GAS  C:\Users\asha\AppData\Local\Temp\ccstE6wQ.s 			page 93


 5002 21ce 0020     		mov	r0, #0
 5003 21d0 115E     		ldrsh	r1, [r2, r0]
 5004 21d2 0991     		str	r1, [sp, #36]
 5005 21d4 5146     		mov	r1, sl
 5006 21d6 585E     		ldrsh	r0, [r3, r1]
 5007 21d8 4246     		mov	r2, r8
 5008 21da 0A90     		str	r0, [sp, #40]
 5009 21dc F118     		add	r1, r6, r3
 5010 21de 9A5E     		ldrsh	r2, [r3, r2]
 5011 21e0 8031     		add	r1, r1, #128
 5012 21e2 0020     		mov	r0, #0
 5013 21e4 095E     		ldrsh	r1, [r1, r0]
 5014 21e6 0692     		str	r2, [sp, #24]
 5015 21e8 0A98     		ldr	r0, [sp, #40]
 5016 21ea 099A     		ldr	r2, [sp, #36]
 5017 21ec 4243     		mul	r2, r0
 5018 21ee 9446     		mov	ip, r2
 5019 21f0 069A     		ldr	r2, [sp, #24]
 5020 21f2 6046     		mov	r0, ip
 5021 21f4 4A43     		mul	r2, r1
 5022 21f6 801A     		sub	r0, r0, r2
 5023 21f8 C217     		asr	r2, r0, #31
 5024 21fa 8446     		mov	ip, r0
 5025 21fc 100E     		lsr	r0, r2, #24
 5026 21fe 8346     		mov	fp, r0
 5027 2200 DC44     		add	ip, ip, fp
 5028 2202 6246     		mov	r2, ip
 5029 2204 1212     		asr	r2, r2, #8
 5030 2206 5A53     		strh	r2, [r3, r5]
 5031              		.loc 1 239 0
 5032 2208 0A9A     		ldr	r2, [sp, #40]
 5033 220a 0698     		ldr	r0, [sp, #24]
 5034 220c 5143     		mul	r1, r2
 5035 220e 099A     		ldr	r2, [sp, #36]
 5036 2210 4243     		mul	r2, r0
 5037 2212 8818     		add	r0, r1, r2
 5038 2214 C217     		asr	r2, r0, #31
 5039 2216 120E     		lsr	r2, r2, #24
 5040 2218 1118     		add	r1, r2, r0
 5041 221a 0A12     		asr	r2, r1, #8
 5042 221c 1A53     		strh	r2, [r3, r4]
 5043 221e 0233     		add	r3, r3, #2
 5044              		.loc 1 236 0
 5045 2220 802B     		cmp	r3, #128
 5046 2222 A7D1     		bne	.L14
 5047 2224 0023     		mov	r3, #0
 5048              	.L15:
 240:.\main.c      **** 				
 241:.\main.c      **** 	}
 242:.\main.c      **** 		
 243:.\main.c      **** 	for(localcounter = 0; localcounter< 64; localcounter++)
 244:.\main.c      **** 	{
 245:.\main.c      **** 		real0[localcounter] = real1[localcounter] + interreal[localcounter];
 5049              		.loc 1 245 0
 5050 2226 595B     		ldrh	r1, [r3, r5]
 5051 2228 D85B     		ldrh	r0, [r3, r7]
 5052 222a 0A18     		add	r2, r1, r0
ARM GAS  C:\Users\asha\AppData\Local\Temp\ccstE6wQ.s 			page 94


 5053 222c 4946     		mov	r1, r9
 5054 222e 5A52     		strh	r2, [r3, r1]
 246:.\main.c      **** 		img0[localcounter] = img1[localcounter] + interimg[localcounter];
 5055              		.loc 1 246 0
 5056 2230 985B     		ldrh	r0, [r3, r6]
 5057 2232 195B     		ldrh	r1, [r3, r4]
 5058 2234 0A18     		add	r2, r1, r0
 5059 2236 0848     		ldr	r0, .L61
 5060 2238 1A52     		strh	r2, [r3, r0]
 5061 223a 0233     		add	r3, r3, #2
 5062              		.loc 1 245 0
 5063 223c 595B     		ldrh	r1, [r3, r5]
 5064 223e DA5B     		ldrh	r2, [r3, r7]
 5065 2240 8A18     		add	r2, r1, r2
 5066 2242 4946     		mov	r1, r9
 5067 2244 5A52     		strh	r2, [r3, r1]
 5068              		.loc 1 246 0
 5069 2246 195B     		ldrh	r1, [r3, r4]
 5070 2248 9A5B     		ldrh	r2, [r3, r6]
 5071 224a 8A18     		add	r2, r1, r2
 5072 224c 1A52     		strh	r2, [r3, r0]
 5073 224e 0233     		add	r3, r3, #2
 5074              		.loc 1 243 0
 5075 2250 802B     		cmp	r3, #128
 5076 2252 E8D1     		bne	.L15
 5077 2254 4023     		mov	r3, #64
 5078 2256 01E0     		b	.L62
 5079              	.L63:
 5080              		.align	2
 5081              	.L61:
 5082 2258 00000000 		.word	img0
 5083              	.L62:
 5084              	.LVL7:
 5085              	.L16:
 247:.\main.c      **** 	}
 248:.\main.c      **** 	
 249:.\main.c      **** 	for(localcounter = 64; localcounter< 128; localcounter++)
 250:.\main.c      **** 	{
 251:.\main.c      **** 		real0[localcounter] = real1[localcounter - 64] - interreal[localcounter % 64];
 5086              		.loc 1 251 0
 5087 225c 181C     		mov	r0, r3
 5088 225e 3F21     		mov	r1, #63
 5089 2260 1940     		and	r1, r1, r3
 5090 2262 4038     		sub	r0, r0, #64
 5091 2264 5A00     		lsl	r2, r3, #1
 5092 2266 4000     		lsl	r0, r0, #1
 5093 2268 4900     		lsl	r1, r1, #1
 5094 226a 0692     		str	r2, [sp, #24]
 5095 226c 0A90     		str	r0, [sp, #40]
 5096 226e 0991     		str	r1, [sp, #36]
 5097 2270 495B     		ldrh	r1, [r1, r5]
 5098 2272 C05B     		ldrh	r0, [r0, r7]
 5099              		.loc 1 249 0
 5100 2274 0133     		add	r3, r3, #1
 5101              	.LVL8:
 5102              		.loc 1 251 0
 5103 2276 401A     		sub	r0, r0, r1
ARM GAS  C:\Users\asha\AppData\Local\Temp\ccstE6wQ.s 			page 95


 5104 2278 011C     		add	r1, r0, #0
 5105 227a 4846     		mov	r0, r9
 5106 227c 1152     		strh	r1, [r2, r0]
 252:.\main.c      **** 		img0[localcounter] = img1[localcounter - 64] - interimg[localcounter % 64];
 5107              		.loc 1 252 0
 5108 227e 0A99     		ldr	r1, [sp, #40]
 5109 2280 099A     		ldr	r2, [sp, #36]
 5110 2282 885B     		ldrh	r0, [r1, r6]
 5111 2284 115B     		ldrh	r1, [r2, r4]
 5112 2286 144A     		ldr	r2, .L64
 5113 2288 401A     		sub	r0, r0, r1
 5114 228a 0699     		ldr	r1, [sp, #24]
 5115              		.loc 1 249 0
 5116 228c DBB2     		uxtb	r3, r3
 5117              	.LVL9:
 5118              		.loc 1 252 0
 5119 228e 8852     		strh	r0, [r1, r2]
 5120              		.loc 1 251 0
 5121 2290 181C     		mov	r0, r3
 5122 2292 3F21     		mov	r1, #63
 5123 2294 1940     		and	r1, r1, r3
 5124 2296 4038     		sub	r0, r0, #64
 5125 2298 5A00     		lsl	r2, r3, #1
 5126 229a 4000     		lsl	r0, r0, #1
 5127 229c 4900     		lsl	r1, r1, #1
 5128 229e 0692     		str	r2, [sp, #24]
 5129 22a0 0A90     		str	r0, [sp, #40]
 5130 22a2 0991     		str	r1, [sp, #36]
 5131 22a4 495B     		ldrh	r1, [r1, r5]
 5132 22a6 C05B     		ldrh	r0, [r0, r7]
 5133              		.loc 1 249 0
 5134 22a8 0133     		add	r3, r3, #1
 5135              	.LVL10:
 5136              		.loc 1 251 0
 5137 22aa 401A     		sub	r0, r0, r1
 5138 22ac 011C     		add	r1, r0, #0
 5139 22ae 4846     		mov	r0, r9
 5140 22b0 1152     		strh	r1, [r2, r0]
 5141              		.loc 1 252 0
 5142 22b2 0A99     		ldr	r1, [sp, #40]
 5143 22b4 099A     		ldr	r2, [sp, #36]
 5144 22b6 885B     		ldrh	r0, [r1, r6]
 5145 22b8 115B     		ldrh	r1, [r2, r4]
 5146 22ba 074A     		ldr	r2, .L64
 5147 22bc 401A     		sub	r0, r0, r1
 5148 22be 0699     		ldr	r1, [sp, #24]
 5149              		.loc 1 249 0
 5150 22c0 DBB2     		uxtb	r3, r3
 5151              	.LVL11:
 5152              		.loc 1 252 0
 5153 22c2 8852     		strh	r0, [r1, r2]
 5154              		.loc 1 249 0
 5155 22c4 802B     		cmp	r3, #128
 5156 22c6 C9D1     		bne	.L16
 253:.\main.c      **** 	}
 254:.\main.c      **** 	
 255:.\main.c      **** 	Pin_Write(0);
ARM GAS  C:\Users\asha\AppData\Local\Temp\ccstE6wQ.s 			page 96


 5157              		.loc 1 255 0
 5158 22c8 0020     		mov	r0, #0
 5159 22ca FFF7FEFF 		bl	Pin_Write
 5160              	.LVL12:
 256:.\main.c      **** 	
 257:.\main.c      **** 	CyDelay(10);
 5161              		.loc 1 257 0
 5162 22ce 0A20     		mov	r0, #10
 5163 22d0 FFF7FEFF 		bl	CyDelay
 258:.\main.c      **** 	}
 5164              		.loc 1 258 0
 5165 22d4 FDF74FFF 		bl	.L17	@ far jump
 5166              	.L65:
 5167              		.align	2
 5168              	.L64:
 5169 22d8 00000000 		.word	img0
 5170              		.cfi_endproc
 5171              	.LFE20:
 5172              		.size	main, .-main
 5173              		.global	samples
 5174              		.comm	revsamples,256,4
 5175              		.comm	real0,128,4
 5176              		.comm	img0,128,4
 5177              		.comm	real1,128,4
 5178              		.comm	img1,128,4
 5179              		.comm	twiddlereal,64,4
 5180              		.comm	twiddleimg,64,4
 5181              		.comm	interreal,64,4
 5182              		.comm	interimg,64,4
 5183              		.comm	x,4,4
 5184              		.comm	x2,4,4
 5185              		.comm	x4,4,4
 5186              		.comm	x6,4,4
 5187              		.comm	product,4,4
 5188 22dc C046C046 		.section	.rodata
 5189              		.align	2
 5190              		.set	.LANCHOR0,. + 0
 5191              		.type	C.7.2118, %object
 5192              		.size	C.7.2118, 4
 5193              	C.7.2118:
 5194 0000 00       		.byte	0
 5195 0001 10       		.byte	16
 5196 0002 20       		.byte	32
 5197 0003 30       		.byte	48
 5198              		.type	C.8.2119, %object
 5199              		.size	C.8.2119, 8
 5200              	C.8.2119:
 5201 0004 00       		.byte	0
 5202 0005 08       		.byte	8
 5203 0006 10       		.byte	16
 5204 0007 18       		.byte	24
 5205 0008 20       		.byte	32
 5206 0009 28       		.byte	40
 5207 000a 30       		.byte	48
 5208 000b 38       		.byte	56
 5209              		.type	C.9.2120, %object
 5210              		.size	C.9.2120, 16
ARM GAS  C:\Users\asha\AppData\Local\Temp\ccstE6wQ.s 			page 97


 5211              	C.9.2120:
 5212 000c 00       		.byte	0
 5213 000d 04       		.byte	4
 5214 000e 08       		.byte	8
 5215 000f 0C       		.byte	12
 5216 0010 10       		.byte	16
 5217 0011 14       		.byte	20
 5218 0012 18       		.byte	24
 5219 0013 1C       		.byte	28
 5220 0014 20       		.byte	32
 5221 0015 24       		.byte	36
 5222 0016 28       		.byte	40
 5223 0017 2C       		.byte	44
 5224 0018 30       		.byte	48
 5225 0019 34       		.byte	52
 5226 001a 38       		.byte	56
 5227 001b 3C       		.byte	60
 5228              		.type	C.10.2121, %object
 5229              		.size	C.10.2121, 32
 5230              	C.10.2121:
 5231 001c 00       		.byte	0
 5232 001d 02       		.byte	2
 5233 001e 04       		.byte	4
 5234 001f 06       		.byte	6
 5235 0020 08       		.byte	8
 5236 0021 0A       		.byte	10
 5237 0022 0C       		.byte	12
 5238 0023 0E       		.byte	14
 5239 0024 10       		.byte	16
 5240 0025 12       		.byte	18
 5241 0026 14       		.byte	20
 5242 0027 16       		.byte	22
 5243 0028 18       		.byte	24
 5244 0029 1A       		.byte	26
 5245 002a 1C       		.byte	28
 5246 002b 1E       		.byte	30
 5247 002c 20       		.byte	32
 5248 002d 22       		.byte	34
 5249 002e 24       		.byte	36
 5250 002f 26       		.byte	38
 5251 0030 28       		.byte	40
 5252 0031 2A       		.byte	42
 5253 0032 2C       		.byte	44
 5254 0033 2E       		.byte	46
 5255 0034 30       		.byte	48
 5256 0035 32       		.byte	50
 5257 0036 34       		.byte	52
 5258 0037 36       		.byte	54
 5259 0038 38       		.byte	56
 5260 0039 3A       		.byte	58
 5261 003a 3C       		.byte	60
 5262 003b 3E       		.byte	62
 5263              		.data
 5264              		.align	2
 5265              		.set	.LANCHOR1,. + 0
 5266              		.type	samples, %object
 5267              		.size	samples, 256
ARM GAS  C:\Users\asha\AppData\Local\Temp\ccstE6wQ.s 			page 98


 5268              	samples:
 5269 0000 80000000 		.word	128
 5270 0004 CB000000 		.word	203
 5271 0008 F9000000 		.word	249
 5272 000c F9000000 		.word	249
 5273 0010 CB000000 		.word	203
 5274 0014 80000000 		.word	128
 5275 0018 34000000 		.word	52
 5276 001c 06000000 		.word	6
 5277 0020 06000000 		.word	6
 5278 0024 34000000 		.word	52
 5279 0028 7F000000 		.word	127
 5280 002c CB000000 		.word	203
 5281 0030 F9000000 		.word	249
 5282 0034 F9000000 		.word	249
 5283 0038 CB000000 		.word	203
 5284 003c 80000000 		.word	128
 5285 0040 34000000 		.word	52
 5286 0044 06000000 		.word	6
 5287 0048 06000000 		.word	6
 5288 004c 34000000 		.word	52
 5289 0050 7F000000 		.word	127
 5290 0054 CB000000 		.word	203
 5291 0058 F9000000 		.word	249
 5292 005c F9000000 		.word	249
 5293 0060 CB000000 		.word	203
 5294 0064 80000000 		.word	128
 5295 0068 34000000 		.word	52
 5296 006c 06000000 		.word	6
 5297 0070 06000000 		.word	6
 5298 0074 34000000 		.word	52
 5299 0078 7F000000 		.word	127
 5300 007c CB000000 		.word	203
 5301 0080 F9000000 		.word	249
 5302 0084 F9000000 		.word	249
 5303 0088 CB000000 		.word	203
 5304 008c 80000000 		.word	128
 5305 0090 34000000 		.word	52
 5306 0094 06000000 		.word	6
 5307 0098 06000000 		.word	6
 5308 009c 34000000 		.word	52
 5309 00a0 7F000000 		.word	127
 5310 00a4 CB000000 		.word	203
 5311 00a8 F9000000 		.word	249
 5312 00ac F9000000 		.word	249
 5313 00b0 CB000000 		.word	203
 5314 00b4 80000000 		.word	128
 5315 00b8 34000000 		.word	52
 5316 00bc 06000000 		.word	6
 5317 00c0 06000000 		.word	6
 5318 00c4 34000000 		.word	52
 5319 00c8 7F000000 		.word	127
 5320 00cc CB000000 		.word	203
 5321 00d0 F9000000 		.word	249
 5322 00d4 F9000000 		.word	249
 5323 00d8 CB000000 		.word	203
 5324 00dc 80000000 		.word	128
ARM GAS  C:\Users\asha\AppData\Local\Temp\ccstE6wQ.s 			page 99


 5325 00e0 34000000 		.word	52
 5326 00e4 06000000 		.word	6
 5327 00e8 06000000 		.word	6
 5328 00ec 34000000 		.word	52
 5329 00f0 7F000000 		.word	127
 5330 00f4 CB000000 		.word	203
 5331 00f8 F9000000 		.word	249
 5332 00fc F9000000 		.word	249
 5333              		.text
 5334              	.Letext0: