ARM GAS  C:\Users\danie\AppData\Local\Temp\cck955PV.s 			page 1


   1              		.syntax unified
   2              		.cpu cortex-m3
   3              		.fpu softvfp
   4              		.eabi_attribute 20, 1
   5              		.eabi_attribute 21, 1
   6              		.eabi_attribute 23, 3
   7              		.eabi_attribute 24, 1
   8              		.eabi_attribute 25, 1
   9              		.eabi_attribute 26, 1
  10              		.eabi_attribute 30, 1
  11              		.eabi_attribute 34, 1
  12              		.eabi_attribute 18, 4
  13              		.thumb
  14              		.syntax unified
  15              		.file	"fir_filter1.c"
  16              		.text
  17              	.Ltext0:
  18              		.cfi_sections	.debug_frame
  19              		.section	.text.firFixedInit,"ax",%progbits
  20              		.align	2
  21              		.global	firFixedInit
  22              		.thumb
  23              		.thumb_func
  24              		.type	firFixedInit, %function
  25              	firFixedInit:
  26              	.LFB64:
  27              		.file 1 "fir_filter1.c"
   1:fir_filter1.c **** #include "fir_filter1.h"
   2:fir_filter1.c **** 
   3:fir_filter1.c **** /*I DETTE TILFÆLDE BRUGES DMA TIL AT FLYTTE DATA OG ALLOKERE.
   4:fir_filter1.c **** DER PROCESSERES PÅ PAKKER AF NO_OF_SAMPLES OG IKKE PR. SAMPLE.
   5:fir_filter1.c **** DERFOR BENYTTES firStoreNewInputSamples TIL AT GEMME BÅDE 
   6:fir_filter1.c **** KOEFFICIENTER OG adc_SampleArray[NO_OF_SAMPLES] I ET ARRAY TIL FILTERET.
   7:fir_filter1.c **** DERNÆST BRUGES */
   8:fir_filter1.c **** 
   9:fir_filter1.c **** //array til at holde både input samples og filter koefficienter
  10:fir_filter1.c **** int16_t insamp[ BUFFER_LEN ];
  11:fir_filter1.c **** //
  12:fir_filter1.c **** // FIR init
  13:fir_filter1.c **** void firFixedInit( void )
  14:fir_filter1.c **** {
  28              		.loc 1 14 0
  29              		.cfi_startproc
  30              		@ args = 0, pretend = 0, frame = 0
  31              		@ frame_needed = 0, uses_anonymous_args = 0
  32 0000 08B5     		push	{r3, lr}
  33              		.cfi_def_cfa_offset 8
  34              		.cfi_offset 3, -8
  35              		.cfi_offset 14, -4
  15:fir_filter1.c ****  memset( insamp, 0, sizeof( insamp ) );
  36              		.loc 1 15 0
  37 0002 4FF48E72 		mov	r2, #284
  38 0006 0021     		movs	r1, #0
  39 0008 0148     		ldr	r0, .L3
  40 000a FFF7FEFF 		bl	memset
  41              	.LVL0:
  42 000e 08BD     		pop	{r3, pc}
ARM GAS  C:\Users\danie\AppData\Local\Temp\cck955PV.s 			page 2


  43              	.L4:
  44              		.align	2
  45              	.L3:
  46 0010 00000000 		.word	insamp
  47              		.cfi_endproc
  48              	.LFE64:
  49              		.size	firFixedInit, .-firFixedInit
  50              		.section	.text.firMoveProcSamples,"ax",%progbits
  51              		.align	2
  52              		.global	firMoveProcSamples
  53              		.thumb
  54              		.thumb_func
  55              		.type	firMoveProcSamples, %function
  56              	firMoveProcSamples:
  57              	.LFB65:
  16:fir_filter1.c **** }
  17:fir_filter1.c **** 
  18:fir_filter1.c **** //move processed samples
  19:fir_filter1.c **** void firMoveProcSamples( int length )
  20:fir_filter1.c **** {
  58              		.loc 1 20 0
  59              		.cfi_startproc
  60              		@ args = 0, pretend = 0, frame = 0
  61              		@ frame_needed = 0, uses_anonymous_args = 0
  62              	.LVL1:
  63 0000 08B5     		push	{r3, lr}
  64              		.cfi_def_cfa_offset 8
  65              		.cfi_offset 3, -8
  66              		.cfi_offset 14, -4
  21:fir_filter1.c ****     // shift input samples back in time for next time
  22:fir_filter1.c ****     memmove( &insamp[0], &insamp[length],
  67              		.loc 1 22 0
  68 0002 044B     		ldr	r3, .L7
  69 0004 7C22     		movs	r2, #124
  70 0006 03EB4001 		add	r1, r3, r0, lsl #1
  71 000a 1846     		mov	r0, r3
  72              	.LVL2:
  73 000c FFF7FEFF 		bl	memmove
  74              	.LVL3:
  75 0010 08BD     		pop	{r3, pc}
  76              	.L8:
  77 0012 00BF     		.align	2
  78              	.L7:
  79 0014 00000000 		.word	insamp
  80              		.cfi_endproc
  81              	.LFE65:
  82              		.size	firMoveProcSamples, .-firMoveProcSamples
  83              		.section	.text.firStoreNewSamples,"ax",%progbits
  84              		.align	2
  85              		.global	firStoreNewSamples
  86              		.thumb
  87              		.thumb_func
  88              		.type	firStoreNewSamples, %function
  89              	firStoreNewSamples:
  90              	.LFB66:
  23:fir_filter1.c ****             (MAX_FLT_LEN - 1) * sizeof(int16_t) );
  24:fir_filter1.c **** }
ARM GAS  C:\Users\danie\AppData\Local\Temp\cck955PV.s 			page 3


  25:fir_filter1.c **** 
  26:fir_filter1.c **** //tager pakker af ADC data
  27:fir_filter1.c **** int16_t *firStoreNewSamples( int16_t *inp, int length )
  28:fir_filter1.c **** {
  91              		.loc 1 28 0
  92              		.cfi_startproc
  93              		@ args = 0, pretend = 0, frame = 0
  94              		@ frame_needed = 0, uses_anonymous_args = 0
  95              	.LVL4:
  96 0000 10B5     		push	{r4, lr}
  97              		.cfi_def_cfa_offset 8
  98              		.cfi_offset 4, -8
  99              		.cfi_offset 14, -4
  29:fir_filter1.c ****     // put the new samples at the high end of the buffer
  30:fir_filter1.c ****     memcpy( &insamp[MAX_FLT_LEN - 1], inp, //husk at insamp er erklæret oppe i toppen af denne .c 
 100              		.loc 1 30 0
 101 0002 044C     		ldr	r4, .L11
 102 0004 4A00     		lsls	r2, r1, #1
 103 0006 0146     		mov	r1, r0
 104              	.LVL5:
 105 0008 2046     		mov	r0, r4
 106              	.LVL6:
 107 000a FFF7FEFF 		bl	memcpy
 108              	.LVL7:
  31:fir_filter1.c ****             length * sizeof(int16_t) );
  32:fir_filter1.c ****     // return the location at which to apply the filtering
  33:fir_filter1.c ****     return &insamp[MAX_FLT_LEN - 1]; //returnerer adresse som fir-filter funktionen benytter som pa
  34:fir_filter1.c **** }
 109              		.loc 1 34 0
 110 000e 2046     		mov	r0, r4
 111 0010 10BD     		pop	{r4, pc}
 112              	.L12:
 113 0012 00BF     		.align	2
 114              	.L11:
 115 0014 7C000000 		.word	insamp+124
 116              		.cfi_endproc
 117              	.LFE66:
 118              		.size	firStoreNewSamples, .-firStoreNewSamples
 119              		.section	.text.firFixed,"ax",%progbits
 120              		.align	2
 121              		.global	firFixed
 122              		.thumb
 123              		.thumb_func
 124              		.type	firFixed, %function
 125              	firFixed:
 126              	.LFB67:
  35:fir_filter1.c **** 
  36:fir_filter1.c **** // the FIR filter function
  37:fir_filter1.c **** void firFixed(int16_t *coeffs, int16_t *input, int16_t *output,
  38:fir_filter1.c ****        int length, int filterLength )
  39:fir_filter1.c **** {
 127              		.loc 1 39 0
 128              		.cfi_startproc
 129              		@ args = 4, pretend = 0, frame = 0
 130              		@ frame_needed = 0, uses_anonymous_args = 0
 131              	.LVL8:
 132 0000 2DE9F047 		push	{r4, r5, r6, r7, r8, r9, r10, lr}
ARM GAS  C:\Users\danie\AppData\Local\Temp\cck955PV.s 			page 4


 133              		.cfi_def_cfa_offset 32
 134              		.cfi_offset 4, -32
 135              		.cfi_offset 5, -28
 136              		.cfi_offset 6, -24
 137              		.cfi_offset 7, -20
 138              		.cfi_offset 8, -16
 139              		.cfi_offset 9, -12
 140              		.cfi_offset 10, -8
 141              		.cfi_offset 14, -4
 142 0004 DDF82080 		ldr	r8, [sp, #32]
 143              	.LVL9:
  40:fir_filter1.c ****     int32_t acc;     // accumulator for MACs
  41:fir_filter1.c ****     int16_t *coeffp; // pointer to coefficients
  42:fir_filter1.c ****     int16_t *inputp; // pointer to input samples
  43:fir_filter1.c ****     int n;
  44:fir_filter1.c ****     int k;
  45:fir_filter1.c **** 
  46:fir_filter1.c ****     // apply the filter to each input sample
  47:fir_filter1.c ****     for ( n = 0; n < length; n++ ) {
 144              		.loc 1 47 0
 145 0008 4FF00009 		mov	r9, #0
 146 000c 25E0     		b	.L14
 147              	.LVL10:
 148              	.L18:
  48:fir_filter1.c ****         // calculate output n
  49:fir_filter1.c ****         coeffp = coeffs;
  50:fir_filter1.c ****         inputp = &input[n];
 149              		.loc 1 50 0
 150 000e 4FEA490A 		lsl	r10, r9, #1
 151 0012 01EB0A06 		add	r6, r1, r10
 152              	.LVL11:
  49:fir_filter1.c ****         inputp = &input[n];
 153              		.loc 1 49 0
 154 0016 0546     		mov	r5, r0
  51:fir_filter1.c ****         // load rounding constant
  52:fir_filter1.c ****         acc = 1 << 14;
  53:fir_filter1.c ****         // perform the multiply-accumulate
  54:fir_filter1.c ****         for ( k = 0; k < filterLength; k++ ) {
 155              		.loc 1 54 0
 156 0018 0024     		movs	r4, #0
  52:fir_filter1.c ****         // perform the multiply-accumulate
 157              		.loc 1 52 0
 158 001a 4FF48047 		mov	r7, #16384
 159              		.loc 1 54 0
 160 001e 08E0     		b	.L15
 161              	.LVL12:
 162              	.L16:
  55:fir_filter1.c ****             acc += (int32_t)(*coeffp++) * (int32_t)(*inputp--);
 163              		.loc 1 55 0 discriminator 3
 164 0020 B5F900E0 		ldrsh	lr, [r5]
 165              	.LVL13:
 166 0024 B6F900C0 		ldrsh	ip, [r6]
 167 0028 0CFB0E77 		mla	r7, ip, lr, r7
 168              	.LVL14:
  54:fir_filter1.c ****             acc += (int32_t)(*coeffp++) * (int32_t)(*inputp--);
 169              		.loc 1 54 0 discriminator 3
 170 002c 0134     		adds	r4, r4, #1
ARM GAS  C:\Users\danie\AppData\Local\Temp\cck955PV.s 			page 5


 171              	.LVL15:
 172              		.loc 1 55 0 discriminator 3
 173 002e 023E     		subs	r6, r6, #2
 174              	.LVL16:
 175 0030 0235     		adds	r5, r5, #2
 176              	.LVL17:
 177              	.L15:
  54:fir_filter1.c ****             acc += (int32_t)(*coeffp++) * (int32_t)(*inputp--);
 178              		.loc 1 54 0 discriminator 1
 179 0032 4445     		cmp	r4, r8
 180 0034 F4DB     		blt	.L16
  56:fir_filter1.c ****         }
  57:fir_filter1.c ****         // saturate the result - for at undgå overflow
  58:fir_filter1.c ****         if ( acc > 0x3fffffff ) {
 181              		.loc 1 58 0
 182 0036 B7F1804F 		cmp	r7, #1073741824
 183 003a 03DA     		bge	.L19
  59:fir_filter1.c ****             acc = 0x3fffffff;
  60:fir_filter1.c ****         } else if ( acc < -0x40000000 ) {
 184              		.loc 1 60 0
 185 003c B7F1404F 		cmp	r7, #-1073741824
 186 0040 03DB     		blt	.L20
 187 0042 04E0     		b	.L17
 188              	.L19:
  59:fir_filter1.c ****             acc = 0x3fffffff;
 189              		.loc 1 59 0
 190 0044 6FF04047 		mvn	r7, #-1073741824
 191              	.LVL18:
 192 0048 01E0     		b	.L17
 193              	.LVL19:
 194              	.L20:
  61:fir_filter1.c ****             acc = -0x40000000;
 195              		.loc 1 61 0
 196 004a 4FF04047 		mov	r7, #-1073741824
 197              	.LVL20:
 198              	.L17:
  62:fir_filter1.c ****         }
  63:fir_filter1.c ****         // convert from Q30 to Q15
  64:fir_filter1.c ****         output[n] = (int16_t)(acc >> 15);
 199              		.loc 1 64 0 discriminator 2
 200 004e 47F3CF37 		sbfx	r7, r7, #15, #16
 201              	.LVL21:
 202 0052 22F80A70 		strh	r7, [r2, r10]	@ movhi
  47:fir_filter1.c ****         // calculate output n
 203              		.loc 1 47 0 discriminator 2
 204 0056 09F10109 		add	r9, r9, #1
 205              	.LVL22:
 206              	.L14:
  47:fir_filter1.c ****         // calculate output n
 207              		.loc 1 47 0 is_stmt 0 discriminator 1
 208 005a 9945     		cmp	r9, r3
 209 005c D7DB     		blt	.L18
  65:fir_filter1.c ****     }
  66:fir_filter1.c **** }...
 210              		.loc 1 66 0 is_stmt 1
 211 005e BDE8F087 		pop	{r4, r5, r6, r7, r8, r9, r10, pc}
 212              		.cfi_endproc
ARM GAS  C:\Users\danie\AppData\Local\Temp\cck955PV.s 			page 6


 213              	.LFE67:
 214              		.size	firFixed, .-firFixed
 215              		.comm	insamp,284,4
 216 0062 00BF     		.text
 217              	.Letext0:
 218              		.file 2 "c:\\program files (x86)\\cypress\\psoc creator\\4.3\\psoc creator\\import\\gnu\\arm\\5.4.
 219              		.file 3 "c:\\program files (x86)\\cypress\\psoc creator\\4.3\\psoc creator\\import\\gnu\\arm\\5.4.
 220              		.file 4 "Generated_Source\\PSoC5/core_cm3.h"
 221              		.file 5 "c:\\program files (x86)\\cypress\\psoc creator\\4.3\\psoc creator\\import\\gnu\\arm\\5.4.