ARM GAS  C:\Users\danie\AppData\Local\Temp\ccgko4Fm.s 			page 1


   1              		.syntax unified
   2              		.cpu cortex-m3
   3              		.fpu softvfp
   4              		.eabi_attribute 20, 1
   5              		.eabi_attribute 21, 1
   6              		.eabi_attribute 23, 3
   7              		.eabi_attribute 24, 1
   8              		.eabi_attribute 25, 1
   9              		.eabi_attribute 26, 1
  10              		.eabi_attribute 30, 1
  11              		.eabi_attribute 34, 1
  12              		.eabi_attribute 18, 4
  13              		.thumb
  14              		.syntax unified
  15              		.file	"main.c"
  16              		.text
  17              	.Ltext0:
  18              		.cfi_sections	.debug_frame
  19              		.global	__aeabi_i2d
  20              		.section	.text.intToFloat,"ax",%progbits
  21              		.align	2
  22              		.global	intToFloat
  23              		.thumb
  24              		.thumb_func
  25              		.type	intToFloat, %function
  26              	intToFloat:
  27              	.LFB64:
  28              		.file 1 "main.c"
   1:main.c        **** /* ========================================
   2:main.c        ****  *
   3:main.c        ****  * Copyright YOUR COMPANY, THE YEAR
   4:main.c        ****  * All Rights Reserved
   5:main.c        ****  * UNPUBLISHED, LICENSED SOFTWARE.
   6:main.c        ****  *
   7:main.c        ****  * CONFIDENTIAL AND PROPRIETARY INFORMATION
   8:main.c        ****  * WHICH IS THE PROPERTY OF your company.
   9:main.c        ****  *
  10:main.c        ****  * ========================================
  11:main.c        **** */
  12:main.c        **** #include "project.h"
  13:main.c        **** #include <stdio.h>
  14:main.c        **** #include <string.h>
  15:main.c        **** #include "fir_filter1.h"
  16:main.c        **** 
  17:main.c        **** #define NO_OF_SAMPLES 80 //Samme bliver brugt til begge kanaler, skal stemme overens med max_input_
  18:main.c        **** 
  19:main.c        **** #define TRANSFER_COUNT NO_OF_SAMPLES*2 //Samme bliver brugt til begge kanaler
  20:main.c        **** 
  21:main.c        **** #define DMA_BYTES_PER_BURST 2
  22:main.c        **** #define DMA_REQUEST_PER_BURST 1
  23:main.c        **** #define DMA_SRC_BASE (CYDEV_PERIPH_BASE)
  24:main.c        **** #define DMA_DST_BASE (CYDEV_SRAM_BASE)
  25:main.c        **** 
  26:main.c        **** //FILTERKOEFFICIENTER
  27:main.c        **** //FILTER 1
  28:main.c        **** #define FILTER_LEN  63
  29:main.c        **** int16 coeffs[ FILTER_LEN ] =
ARM GAS  C:\Users\danie\AppData\Local\Temp\ccgko4Fm.s 			page 2


  30:main.c        **** {
  31:main.c        ****  -1468, 1058,   594,   287,    186,  284,   485,   613,
  32:main.c        ****    495,   90,  -435,  -762,   -615,   21,   821,  1269,
  33:main.c        ****    982,    9, -1132, -1721,  -1296,    1,  1445,  2136,
  34:main.c        ****   1570,    0, -1666, -2413,  -1735,   -2,  1770,  2512,
  35:main.c        ****   1770,   -2, -1735, -2413,  -1666,    0,  1570,  2136,
  36:main.c        ****   1445,    1, -1296, -1721,  -1132,    9,   982,  1269,
  37:main.c        ****    821,   21,  -615,  -762,   -435,   90,   495,   613,
  38:main.c        ****    485,  284,   186,   287,    594, 1058, -1468
  39:main.c        **** };
  40:main.c        **** 
  41:main.c        **** //FUNKTIONER TIL TYPEKONVERTERING AF ARRAYS
  42:main.c        **** void intToFloat( int16_t *input, double *output, int length )
  43:main.c        **** {
  29              		.loc 1 43 0
  30              		.cfi_startproc
  31              		@ args = 0, pretend = 0, frame = 0
  32              		@ frame_needed = 0, uses_anonymous_args = 0
  33              	.LVL0:
  34 0000 2DE9F041 		push	{r4, r5, r6, r7, r8, lr}
  35              		.cfi_def_cfa_offset 24
  36              		.cfi_offset 4, -24
  37              		.cfi_offset 5, -20
  38              		.cfi_offset 6, -16
  39              		.cfi_offset 7, -12
  40              		.cfi_offset 8, -8
  41              		.cfi_offset 14, -4
  42 0004 8046     		mov	r8, r0
  43 0006 0F46     		mov	r7, r1
  44 0008 1646     		mov	r6, r2
  45              	.LVL1:
  44:main.c        ****     int i;
  45:main.c        ****  
  46:main.c        ****     for ( i = 0; i < length; i++ ) {
  46              		.loc 1 46 0
  47 000a 0024     		movs	r4, #0
  48 000c 08E0     		b	.L2
  49              	.LVL2:
  50              	.L3:
  47:main.c        ****         output[i] = (double)input[i];
  51              		.loc 1 47 0 discriminator 3
  52 000e 07EBC405 		add	r5, r7, r4, lsl #3
  53 0012 38F91400 		ldrsh	r0, [r8, r4, lsl #1]
  54 0016 FFF7FEFF 		bl	__aeabi_i2d
  55              	.LVL3:
  56 001a C5E90001 		strd	r0, [r5]
  46:main.c        ****         output[i] = (double)input[i];
  57              		.loc 1 46 0 discriminator 3
  58 001e 0134     		adds	r4, r4, #1
  59              	.LVL4:
  60              	.L2:
  46:main.c        ****         output[i] = (double)input[i];
  61              		.loc 1 46 0 is_stmt 0 discriminator 1
  62 0020 B442     		cmp	r4, r6
  63 0022 F4DB     		blt	.L3
  48:main.c        ****     }
  49:main.c        **** }
ARM GAS  C:\Users\danie\AppData\Local\Temp\ccgko4Fm.s 			page 3


  64              		.loc 1 49 0 is_stmt 1
  65 0024 BDE8F081 		pop	{r4, r5, r6, r7, r8, pc}
  66              		.cfi_endproc
  67              	.LFE64:
  68              		.size	intToFloat, .-intToFloat
  69              		.global	__aeabi_dcmpgt
  70              		.global	__aeabi_dcmplt
  71              		.global	__aeabi_d2iz
  72              		.section	.text.floatToInt,"ax",%progbits
  73              		.align	2
  74              		.global	floatToInt
  75              		.thumb
  76              		.thumb_func
  77              		.type	floatToInt, %function
  78              	floatToInt:
  79              	.LFB65:
  50:main.c        ****  
  51:main.c        **** void floatToInt( double *input, int16_t *output, int length )
  52:main.c        **** {
  80              		.loc 1 52 0
  81              		.cfi_startproc
  82              		@ args = 0, pretend = 0, frame = 0
  83              		@ frame_needed = 0, uses_anonymous_args = 0
  84              	.LVL5:
  85 0000 2DE9F84F 		push	{r3, r4, r5, r6, r7, r8, r9, r10, fp, lr}
  86              		.cfi_def_cfa_offset 40
  87              		.cfi_offset 3, -40
  88              		.cfi_offset 4, -36
  89              		.cfi_offset 5, -32
  90              		.cfi_offset 6, -28
  91              		.cfi_offset 7, -24
  92              		.cfi_offset 8, -20
  93              		.cfi_offset 9, -16
  94              		.cfi_offset 10, -12
  95              		.cfi_offset 11, -8
  96              		.cfi_offset 14, -4
  97 0004 8346     		mov	fp, r0
  98 0006 8A46     		mov	r10, r1
  99 0008 9146     		mov	r9, r2
 100              	.LVL6:
  53:main.c        ****     int i;
  54:main.c        ****  
  55:main.c        ****     for ( i = 0; i < length; i++ ) {
 101              		.loc 1 55 0
 102 000a 0024     		movs	r4, #0
 103 000c 24E0     		b	.L6
 104              	.LVL7:
 105              	.L11:
  56:main.c        ****         if ( input[i] > 32767.0 ) {
 106              		.loc 1 56 0
 107 000e A046     		mov	r8, r4
 108 0010 0BEBC405 		add	r5, fp, r4, lsl #3
 109 0014 D5E90067 		ldrd	r6, [r5]
 110 0018 11A3     		adr	r3, .L16
 111 001a D3E90023 		ldrd	r2, [r3]
 112 001e 3046     		mov	r0, r6
 113 0020 3946     		mov	r1, r7
ARM GAS  C:\Users\danie\AppData\Local\Temp\ccgko4Fm.s 			page 4


 114 0022 FFF7FEFF 		bl	__aeabi_dcmpgt
 115              	.LVL8:
 116 0026 28B1     		cbz	r0, .L14
  57:main.c        ****             input[i] = 32767.0;
 117              		.loc 1 57 0
 118 0028 0DA3     		adr	r3, .L16
 119 002a D3E90023 		ldrd	r2, [r3]
 120 002e C5E90023 		strd	r2, [r5]
 121 0032 0AE0     		b	.L9
 122              	.L14:
  58:main.c        ****         } else if ( input[i] < -32768.0 ) {
 123              		.loc 1 58 0
 124 0034 0022     		movs	r2, #0
 125 0036 0C4B     		ldr	r3, .L16+8
 126 0038 3046     		mov	r0, r6
 127 003a 3946     		mov	r1, r7
 128 003c FFF7FEFF 		bl	__aeabi_dcmplt
 129              	.LVL9:
 130 0040 18B1     		cbz	r0, .L9
  59:main.c        ****             input[i] = -32768.0;
 131              		.loc 1 59 0
 132 0042 0022     		movs	r2, #0
 133 0044 084B     		ldr	r3, .L16+8
 134 0046 C5E90023 		strd	r2, [r5]
 135              	.L9:
  60:main.c        ****         }
  61:main.c        ****         // convert
  62:main.c        ****         output[i] = (int16_t)input[i];
 136              		.loc 1 62 0 discriminator 2
 137 004a D5E90001 		ldrd	r0, [r5]
 138 004e FFF7FEFF 		bl	__aeabi_d2iz
 139              	.LVL10:
 140 0052 2AF81800 		strh	r0, [r10, r8, lsl #1]	@ movhi
  55:main.c        ****         if ( input[i] > 32767.0 ) {
 141              		.loc 1 55 0 discriminator 2
 142 0056 0134     		adds	r4, r4, #1
 143              	.LVL11:
 144              	.L6:
  55:main.c        ****         if ( input[i] > 32767.0 ) {
 145              		.loc 1 55 0 is_stmt 0 discriminator 1
 146 0058 4C45     		cmp	r4, r9
 147 005a D8DB     		blt	.L11
  63:main.c        ****     }
  64:main.c        **** }
 148              		.loc 1 64 0 is_stmt 1
 149 005c BDE8F88F 		pop	{r3, r4, r5, r6, r7, r8, r9, r10, fp, pc}
 150              	.LVL12:
 151              	.L17:
 152              		.align	3
 153              	.L16:
 154 0060 00000000 		.word	0
 155 0064 C0FFDF40 		.word	1088421824
 156 0068 0000E0C0 		.word	-1059061760
 157              		.cfi_endproc
 158              	.LFE65:
 159              		.size	floatToInt, .-floatToInt
 160              		.section	.text.Init,"ax",%progbits
ARM GAS  C:\Users\danie\AppData\Local\Temp\ccgko4Fm.s 			page 5


 161              		.align	2
 162              		.global	Init
 163              		.thumb
 164              		.thumb_func
 165              		.type	Init, %function
 166              	Init:
 167              	.LFB66:
  65:main.c        **** 
  66:main.c        **** //ISR PROTOER
  67:main.c        **** CY_ISR_PROTO(ISR_DMA_Done);
  68:main.c        **** 
  69:main.c        **** //
  70:main.c        ****     /* DMA_Chan is used to store the DMA channel handle */ 
  71:main.c        **** uint8 DMA_Chan;
  72:main.c        **** 
  73:main.c        **** /* DMA_TD array is used to store all of the TDs associated with the channel*/
  74:main.c        **** uint8 DMA_TD[2]; //Transaction Descriptors "navigerer" data hen til 2 forskellige arrays (ping ping
  75:main.c        **** 
  76:main.c        **** /* DMA_DISABLE_TD definition not available for PSoC 5LP inside CyDmac.h in PSoC Creator 2.1 SP1.
  77:main.c        ****  * So, manually define the DMA_DISABLE_TD */
  78:main.c        **** #if (CY_PSOC5LP)
  79:main.c        **** 	#if !defined(DMA_DISABLE_TD)
  80:main.c        **** 	    #define DMA_DISABLE_TD          0xFEu
  81:main.c        **** 	#endif
  82:main.c        **** #endif  /* (CY_PSOC5LP) */
  83:main.c        **** 
  84:main.c        **** //Sample arrays som DMA fylder op
  85:main.c        **** static int16 adc_sampleArray1[NO_OF_SAMPLES]={0}; //evt træk offset fra ifht input til filteret - 
  86:main.c        **** static int16 adc_sampleArray2[NO_OF_SAMPLES]={0};
  87:main.c        **** 
  88:main.c        **** void Init()
  89:main.c        **** {   //8 bit = 1 byte pr burst (1 byte til memory ad gangen)
 168              		.loc 1 89 0
 169              		.cfi_startproc
 170              		@ args = 0, pretend = 0, frame = 0
 171              		@ frame_needed = 0, uses_anonymous_args = 0
 172 0000 70B5     		push	{r4, r5, r6, lr}
 173              		.cfi_def_cfa_offset 16
 174              		.cfi_offset 4, -16
 175              		.cfi_offset 5, -12
 176              		.cfi_offset 6, -8
 177              		.cfi_offset 14, -4
  90:main.c        ****     //16 bit = 2 byte pr burst
  91:main.c        ****     DMA_Chan = DMA_1_DmaInitialize(DMA_BYTES_PER_BURST, DMA_REQUEST_PER_BURST, HI16(DMA_SRC_BASE), 
 178              		.loc 1 91 0
 179 0002 41F6FF73 		movw	r3, #8191
 180 0006 4FF48042 		mov	r2, #16384
 181 000a 0121     		movs	r1, #1
 182 000c 0220     		movs	r0, #2
 183 000e FFF7FEFF 		bl	DMA_1_DmaInitialize
 184              	.LVL13:
 185 0012 1B4E     		ldr	r6, .L20
 186 0014 3070     		strb	r0, [r6]
  92:main.c        **** 		
  93:main.c        ****     /*CyDmaTdAllocate - Allocate TDs */
  94:main.c        **** 	DMA_TD[0] = CyDmaTdAllocate();
 187              		.loc 1 94 0
ARM GAS  C:\Users\danie\AppData\Local\Temp\ccgko4Fm.s 			page 6


 188 0016 FFF7FEFF 		bl	CyDmaTdAllocate
 189              	.LVL14:
 190 001a 1A4C     		ldr	r4, .L20+4
 191 001c 2070     		strb	r0, [r4]
  95:main.c        **** 	DMA_TD[1] = CyDmaTdAllocate();
 192              		.loc 1 95 0
 193 001e FFF7FEFF 		bl	CyDmaTdAllocate
 194              	.LVL15:
 195 0022 0246     		mov	r2, r0
 196 0024 6070     		strb	r0, [r4, #1]
  96:main.c        ****     
  97:main.c        ****     //NO_OF_SAMPLES ad gangen (80 samples * 2 byte), inkrementer transaction descriptor, lav interr
  98:main.c        ****     CyDmaTdSetConfiguration(DMA_TD[0],TRANSFER_COUNT, DMA_TD[1],  TD_INC_DST_ADR);
 197              		.loc 1 98 0
 198 0026 0223     		movs	r3, #2
 199 0028 A021     		movs	r1, #160
 200 002a 2078     		ldrb	r0, [r4]	@ zero_extendqisi2
 201 002c FFF7FEFF 		bl	CyDmaTdSetConfiguration
 202              	.LVL16:
  99:main.c        **** 	CyDmaTdSetConfiguration(DMA_TD[1], TRANSFER_COUNT, DMA_DISABLE_TD, TD_INC_DST_ADR | DMA_1__TD_TERM
 203              		.loc 1 99 0
 204 0030 0623     		movs	r3, #6
 205 0032 FE22     		movs	r2, #254
 206 0034 A021     		movs	r1, #160
 207 0036 6078     		ldrb	r0, [r4, #1]	@ zero_extendqisi2
 208 0038 FFF7FEFF 		bl	CyDmaTdSetConfiguration
 209              	.LVL17:
 100:main.c        ****     
 101:main.c        ****     //Sætter destinationsadressen til første sampleArray, peger på første plads
 102:main.c        ****     CyDmaTdSetAddress(DMA_TD[0], LO16((uint32)ADC_DelSig_1_DEC_SAMP_PTR), LO16((uint32)&adc_sampleA
 210              		.loc 1 102 0
 211 003c 124D     		ldr	r5, .L20+8
 212 003e AAB2     		uxth	r2, r5
 213 0040 44F61061 		movw	r1, #19984
 214 0044 2078     		ldrb	r0, [r4]	@ zero_extendqisi2
 215 0046 FFF7FEFF 		bl	CyDmaTdSetAddress
 216              	.LVL18:
 103:main.c        **** 	CyDmaTdSetAddress(DMA_TD[1], LO16((uint32)ADC_DelSig_1_DEC_SAMP_PTR), LO16((uint32)&adc_sampleArra
 217              		.loc 1 103 0
 218 004a 05F1A002 		add	r2, r5, #160
 219 004e 92B2     		uxth	r2, r2
 220 0050 44F61061 		movw	r1, #19984
 221 0054 6078     		ldrb	r0, [r4, #1]	@ zero_extendqisi2
 222 0056 FFF7FEFF 		bl	CyDmaTdSetAddress
 223              	.LVL19:
 104:main.c        ****     
 105:main.c        ****     /*Map the TD to the DMA Channel */
 106:main.c        **** 	CyDmaChSetInitialTd(DMA_Chan, DMA_TD[0]);
 224              		.loc 1 106 0
 225 005a 2178     		ldrb	r1, [r4]	@ zero_extendqisi2
 226 005c 3078     		ldrb	r0, [r6]	@ zero_extendqisi2
 227 005e FFF7FEFF 		bl	CyDmaChSetInitialTd
 228              	.LVL20:
 107:main.c        ****     
 108:main.c        ****     //Enable DMA channel. 
 109:main.c        ****     CyDmaChEnable(DMA_Chan, 1);
 229              		.loc 1 109 0
ARM GAS  C:\Users\danie\AppData\Local\Temp\ccgko4Fm.s 			page 7


 230 0062 0121     		movs	r1, #1
 231 0064 3078     		ldrb	r0, [r6]	@ zero_extendqisi2
 232 0066 FFF7FEFF 		bl	CyDmaChEnable
 233              	.LVL21:
 110:main.c        **** 
 111:main.c        **** 	/* Start ADC */
 112:main.c        **** 	ADC_DelSig_1_Start();
 234              		.loc 1 112 0
 235 006a FFF7FEFF 		bl	ADC_DelSig_1_Start
 236              	.LVL22:
 113:main.c        ****     
 114:main.c        ****     /* Disable the ADC ISR as it is not required */
 115:main.c        ****     ADC_DelSig_1_IRQ_Disable();
 237              		.loc 1 115 0
 238 006e FFF7FEFF 		bl	ADC_DelSig_1_IRQ_Disable
 239              	.LVL23:
 116:main.c        **** 
 117:main.c        **** 	/* Start ADC conversion */
 118:main.c        **** 	ADC_DelSig_1_StartConvert();
 240              		.loc 1 118 0
 241 0072 FFF7FEFF 		bl	ADC_DelSig_1_StartConvert
 242              	.LVL24:
 119:main.c        **** 	
 120:main.c        **** 	/* Start isr connected to DMA nrq signal */
 121:main.c        **** 	ISR_DMA_Done_Start();
 243              		.loc 1 121 0
 244 0076 FFF7FEFF 		bl	ISR_DMA_Done_Start
 245              	.LVL25:
 122:main.c        **** 
 123:main.c        **** 	/* Enable global interrupt */
 124:main.c        **** 	CYGlobalIntEnable; 
 246              		.loc 1 124 0
 247              		.syntax unified
 248              	@ 124 "main.c" 1
 249 007a 62B6     		CPSIE   i
 250              	@ 0 "" 2
 251              		.thumb
 252              		.syntax unified
 253 007c 70BD     		pop	{r4, r5, r6, pc}
 254              	.L21:
 255 007e 00BF     		.align	2
 256              	.L20:
 257 0080 00000000 		.word	DMA_Chan
 258 0084 00000000 		.word	DMA_TD
 259 0088 00000000 		.word	.LANCHOR0
 260              		.cfi_endproc
 261              	.LFE66:
 262              		.size	Init, .-Init
 263              		.section	.text.ISR_DMA_Done,"ax",%progbits
 264              		.align	2
 265              		.global	ISR_DMA_Done
 266              		.thumb
 267              		.thumb_func
 268              		.type	ISR_DMA_Done, %function
 269              	ISR_DMA_Done:
 270              	.LFB67:
 125:main.c        ****     
ARM GAS  C:\Users\danie\AppData\Local\Temp\ccgko4Fm.s 			page 8


 126:main.c        **** };
 127:main.c        **** 
 128:main.c        **** 
 129:main.c        **** //Når DMA er done med at overføre TIL BEGGE SAMPLE ARRAYS startes DMA_Done interrupt
 130:main.c        **** CY_ISR(ISR_DMA_Done)
 131:main.c        **** {    
 271              		.loc 1 131 0
 272              		.cfi_startproc
 273              		@ args = 0, pretend = 0, frame = 320
 274              		@ frame_needed = 0, uses_anonymous_args = 0
 275 0000 00B5     		push	{lr}
 276              		.cfi_def_cfa_offset 4
 277              		.cfi_offset 14, -4
 278 0002 D3B0     		sub	sp, sp, #332
 279              		.cfi_def_cfa_offset 336
 132:main.c        **** //HER 
 133:main.c        **** firFixedInit();
 280              		.loc 1 133 0
 281 0004 FFF7FEFF 		bl	firFixedInit
 282              	.LVL26:
 134:main.c        **** 
 135:main.c        **** int16_t *filter_outputArray[NO_OF_SAMPLES];
 136:main.c        **** int16_t *filter_workingArray1 = firStoreNewSamples(adc_sampleArray1, NO_OF_SAMPLES);
 283              		.loc 1 136 0
 284 0008 5021     		movs	r1, #80
 285 000a 0848     		ldr	r0, .L24
 286 000c FFF7FEFF 		bl	firStoreNewSamples
 287              	.LVL27:
 137:main.c        **** 
 138:main.c        **** /*Definer flere koefficientarrays og brug dette koefficient array i kald
 139:main.c        **** samme metode med nyt koefficientarray for at lade adc input samples 
 140:main.c        **** gennemløbe flere arrays uden at påvirke hinanden*/
 141:main.c        **** firFixed(coeffs, filter_workingArray1, *filter_outputArray, NO_OF_SAMPLES, FILTER_LEN);
 288              		.loc 1 141 0
 289 0010 029A     		ldr	r2, [sp, #8]
 290 0012 3F23     		movs	r3, #63
 291 0014 0093     		str	r3, [sp]
 292 0016 5023     		movs	r3, #80
 293 0018 0146     		mov	r1, r0
 294 001a 0548     		ldr	r0, .L24+4
 295              	.LVL28:
 296 001c FFF7FEFF 		bl	firFixed
 297              	.LVL29:
 142:main.c        **** 
 143:main.c        **** //Flyt processeret data
 144:main.c        **** firMoveProcSamples(NO_OF_SAMPLES);
 298              		.loc 1 144 0
 299 0020 5020     		movs	r0, #80
 300 0022 FFF7FEFF 		bl	firMoveProcSamples
 301              	.LVL30:
 145:main.c        **** }
 302              		.loc 1 145 0
 303 0026 53B0     		add	sp, sp, #332
 304              		.cfi_def_cfa_offset 4
 305              		@ sp needed
 306 0028 5DF804FB 		ldr	pc, [sp], #4
 307              	.L25:
ARM GAS  C:\Users\danie\AppData\Local\Temp\ccgko4Fm.s 			page 9


 308              		.align	2
 309              	.L24:
 310 002c 00000000 		.word	.LANCHOR0
 311 0030 00000000 		.word	.LANCHOR1
 312              		.cfi_endproc
 313              	.LFE67:
 314              		.size	ISR_DMA_Done, .-ISR_DMA_Done
 315              		.section	.text.main,"ax",%progbits
 316              		.align	2
 317              		.global	main
 318              		.thumb
 319              		.thumb_func
 320              		.type	main, %function
 321              	main:
 322              	.LFB68:
 146:main.c        **** 
 147:main.c        **** int main(void)
 148:main.c        **** {
 323              		.loc 1 148 0
 324              		.cfi_startproc
 325              		@ Volatile: function does not return.
 326              		@ args = 0, pretend = 0, frame = 0
 327              		@ frame_needed = 0, uses_anonymous_args = 0
 328 0000 08B5     		push	{r3, lr}
 329              		.cfi_def_cfa_offset 8
 330              		.cfi_offset 3, -8
 331              		.cfi_offset 14, -4
 149:main.c        ****     Init();
 332              		.loc 1 149 0
 333 0002 FFF7FEFF 		bl	Init
 334              	.LVL31:
 335              	.L27:
 336 0006 FEE7     		b	.L27
 337              		.cfi_endproc
 338              	.LFE68:
 339              		.size	main, .-main
 340              		.comm	DMA_TD,2,4
 341              		.comm	DMA_Chan,1,1
 342              		.global	coeffs
 343              		.data
 344              		.align	2
 345              		.set	.LANCHOR1,. + 0
 346              		.type	coeffs, %object
 347              		.size	coeffs, 126
 348              	coeffs:
 349 0000 44FA     		.short	-1468
 350 0002 2204     		.short	1058
 351 0004 5202     		.short	594
 352 0006 1F01     		.short	287
 353 0008 BA00     		.short	186
 354 000a 1C01     		.short	284
 355 000c E501     		.short	485
 356 000e 6502     		.short	613
 357 0010 EF01     		.short	495
 358 0012 5A00     		.short	90
 359 0014 4DFE     		.short	-435
 360 0016 06FD     		.short	-762
ARM GAS  C:\Users\danie\AppData\Local\Temp\ccgko4Fm.s 			page 10


 361 0018 99FD     		.short	-615
 362 001a 1500     		.short	21
 363 001c 3503     		.short	821
 364 001e F504     		.short	1269
 365 0020 D603     		.short	982
 366 0022 0900     		.short	9
 367 0024 94FB     		.short	-1132
 368 0026 47F9     		.short	-1721
 369 0028 F0FA     		.short	-1296
 370 002a 0100     		.short	1
 371 002c A505     		.short	1445
 372 002e 5808     		.short	2136
 373 0030 2206     		.short	1570
 374 0032 0000     		.short	0
 375 0034 7EF9     		.short	-1666
 376 0036 93F6     		.short	-2413
 377 0038 39F9     		.short	-1735
 378 003a FEFF     		.short	-2
 379 003c EA06     		.short	1770
 380 003e D009     		.short	2512
 381 0040 EA06     		.short	1770
 382 0042 FEFF     		.short	-2
 383 0044 39F9     		.short	-1735
 384 0046 93F6     		.short	-2413
 385 0048 7EF9     		.short	-1666
 386 004a 0000     		.short	0
 387 004c 2206     		.short	1570
 388 004e 5808     		.short	2136
 389 0050 A505     		.short	1445
 390 0052 0100     		.short	1
 391 0054 F0FA     		.short	-1296
 392 0056 47F9     		.short	-1721
 393 0058 94FB     		.short	-1132
 394 005a 0900     		.short	9
 395 005c D603     		.short	982
 396 005e F504     		.short	1269
 397 0060 3503     		.short	821
 398 0062 1500     		.short	21
 399 0064 99FD     		.short	-615
 400 0066 06FD     		.short	-762
 401 0068 4DFE     		.short	-435
 402 006a 5A00     		.short	90
 403 006c EF01     		.short	495
 404 006e 6502     		.short	613
 405 0070 E501     		.short	485
 406 0072 1C01     		.short	284
 407 0074 BA00     		.short	186
 408 0076 1F01     		.short	287
 409 0078 5202     		.short	594
 410 007a 2204     		.short	1058
 411 007c 44FA     		.short	-1468
 412              		.bss
 413              		.align	2
 414              		.set	.LANCHOR0,. + 0
 415              		.type	adc_sampleArray1, %object
 416              		.size	adc_sampleArray1, 160
 417              	adc_sampleArray1:
ARM GAS  C:\Users\danie\AppData\Local\Temp\ccgko4Fm.s 			page 11


 418 0000 00000000 		.space	160
 418      00000000 
 418      00000000 
 418      00000000 
 418      00000000 
 419              		.type	adc_sampleArray2, %object
 420              		.size	adc_sampleArray2, 160
 421              	adc_sampleArray2:
 422 00a0 00000000 		.space	160
 422      00000000 
 422      00000000 
 422      00000000 
 422      00000000 
 423              		.text
 424              	.Letext0:
 425              		.file 2 "c:\\program files (x86)\\cypress\\psoc creator\\4.3\\psoc creator\\import\\gnu\\arm\\5.4.
 426              		.file 3 "c:\\program files (x86)\\cypress\\psoc creator\\4.3\\psoc creator\\import\\gnu\\arm\\5.4.
 427              		.file 4 "Generated_Source\\PSoC5/cytypes.h"
 428              		.file 5 "Generated_Source\\PSoC5/core_cm3.h"
 429              		.file 6 "Generated_Source\\PSoC5/DMA_1_dma.h"
 430              		.file 7 "Generated_Source\\PSoC5/CYDMAC.H"
 431              		.file 8 "Generated_Source\\PSoC5/ADC_DelSig_1.h"
 432              		.file 9 "Generated_Source\\PSoC5/ADC_DelSig_1_IRQ.h"
 433              		.file 10 "Generated_Source\\PSoC5/ISR_DMA_Done.h"
 434              		.file 11 "fir_filter1.h"